 PhysXCommon_64

 Timestamp is 677b72a8 (Mon Jan  6 15:05:28 2025)

 Preferred load address is 0000000180000000

 Start         Length     Name                   Class
 0001:00000000 000028c0H .text$di                CODE
 0001:000028c0 001356b0H .text$mn                CODE
 0001:00137f70 00000040H .text$mn$00             CODE
 0001:00137fb0 00000620H .text$x                 CODE
 0002:00000000 00000278H .idata$5                DATA
 0002:00000278 00000028H .00cfg                  DATA
 0002:000002a0 00000008H .CRT$XCA                DATA
 0002:000002a8 00001428H .CRT$XCU                DATA
 0002:000016d0 00000008H .CRT$XCZ                DATA
 0002:000016d8 00000008H .CRT$XIA                DATA
 0002:000016e0 00000018H .CRT$XIC                DATA
 0002:000016f8 00000008H .CRT$XIZ                DATA
 0002:00001700 00000008H .CRT$XPA                DATA
 0002:00001708 00000010H .CRT$XPX                DATA
 0002:00001718 00000008H .CRT$XPXA               DATA
 0002:00001720 00000008H .CRT$XPZ                DATA
 0002:00001728 00000008H .CRT$XTA                DATA
 0002:00001730 00000010H .CRT$XTZ                DATA
 0002:00001738 00000000H .gehcont$y              DATA
 0002:00001738 00000000H .gfids$y                DATA
 0002:00001740 0000cfc0H .rdata                  DATA
 0002:0000e700 00000000H .rdata$CastGuardVftablesA DATA
 0002:0000e700 00000000H .rdata$CastGuardVftablesC DATA
 0002:0000e700 0000043cH .rdata$r                DATA
 0002:0000eb3c 00000224H .rdata$voltmd           DATA
 0002:0000ed60 00000418H .rdata$zzzdbg           DATA
 0002:0000f178 00000008H .rtc$IAA                DATA
 0002:0000f180 00000008H .rtc$IZZ                DATA
 0002:0000f188 00000008H .rtc$TAA                DATA
 0002:0000f190 00000008H .rtc$TZZ                DATA
 0002:0000f198 0000c8c0H .xdata                  DATA
 0002:0001ba58 00000084H .xdata$x                DATA
 0002:0001badc 00000020H .didat$2                DATA
 0002:0001bafc 00000024H .didat$3                DATA
 0002:0001bb20 00000088H .didat$4                DATA
 0002:0001bba8 00000318H .didat$6                DATA
 0002:0001bec0 00000090H .didat$7                DATA
 0002:0001bf50 0000a0dcH .edata                  DATA
 0002:0002602c 00000014H .idata$2                DATA
 0002:00026040 00000018H .idata$3                DATA
 0002:00026058 00000278H .idata$4                DATA
 0002:000262d0 000005aeH .idata$6                DATA
 0003:00000000 00001430H .data                   DATA
 0003:00001430 000005c8H .data$r                 DATA
 0003:000019f8 000000f0H .data$rs                DATA
 0003:00001ae8 00000088H .didat$5                DATA
 0003:00001b70 00003ae0H .bss                    DATA
 0004:00000000 00007098H .pdata                  DATA
 0005:00000000 00002304H _RDATA                  DATA
 0006:00000000 000000a0H .rsrc$01                DATA
 0006:000000a0 000004b0H .rsrc$02                DATA

  Address         Publics by Value              Rva+Base               Lib:Object

 0000:00000000       __guard_fids_count         0000000000000000     <absolute>
 0000:00000000       __guard_iat_table          0000000000000000     <absolute>
 0000:00000000       __arm64x_extra_rfe_table   0000000000000000     <absolute>
 0000:00000000       __guard_iat_count          0000000000000000     <absolute>
 0000:00000000       __guard_longjmp_count      0000000000000000     <absolute>
 0000:00000000       __hybrid_code_map          0000000000000000     <absolute>
 0000:00000000       __arm64x_extra_rfe_table_size 0000000000000000     <absolute>
 0000:00000000       __dynamic_value_reloc_table 0000000000000000     <absolute>
 0000:00000000       ___safe_se_handler_count   0000000000000000     <absolute>
 0000:00000000       __x64_code_ranges_to_entry_points_count 0000000000000000     <absolute>
 0000:00000000       __x64_code_ranges_to_entry_points 0000000000000000     <absolute>
 0000:00000000       __hybrid_auxiliary_iat     0000000000000000     <absolute>
 0000:00000000       __hybrid_auxiliary_iat_copy 0000000000000000     <absolute>
 0000:00000000       __guard_longjmp_table      0000000000000000     <absolute>
 0000:00000000       __arm64x_redirection_metadata 0000000000000000     <absolute>
 0000:00000000       ___safe_se_handler_table   0000000000000000     <absolute>
 0000:00000000       __AbsoluteZero             0000000000000000     <absolute>
 0000:00000000       __guard_check_icall_a64n_fptr 0000000000000000     <absolute>
 0000:00000000       __guard_eh_cont_count      0000000000000000     <absolute>
 0000:00000000       __guard_fids_table         0000000000000000     <absolute>
 0000:00000000       __arm64x_redirection_metadata_count 0000000000000000     <absolute>
 0000:00000000       __enclave_config           0000000000000000     <absolute>
 0000:00000000       __guard_eh_cont_table      0000000000000000     <absolute>
 0000:00000000       __arm64x_native_entrypoint 0000000000000000     <absolute>
 0000:00000000       __hybrid_code_map_count    0000000000000000     <absolute>
 0000:00000100       __guard_flags              0000000000000100     <absolute>
 0000:00000000       __ImageBase                0000000180000000     <linker-defined>
 0001:000028c0       ??_GCollection@Cm@physx@@UEAAPEAXI@Z 00000001800038c0 f i CmCollection.obj
 0001:000028c0       ??_ECollection@Cm@physx@@UEAAPEAXI@Z 00000001800038c0 f i CmCollection.obj
 0001:00002970       ??_EPxCollection@physx@@MEAAPEAXI@Z 0000000180003970 f i CmCollection.obj
 0001:00002970       ??_GPxCollection@physx@@MEAAPEAXI@Z 0000000180003970 f i CmCollection.obj
 0001:000029a0       ?PxCreateCollection@@YAPEAVPxCollection@physx@@XZ 00000001800039a0 f   CmCollection.obj
 0001:00002aa0       ?add@Collection@Cm@physx@@UEAAXAEAVPxBase@3@_K@Z 0000000180003aa0 f   CmCollection.obj
 0001:00002b90       ?add@Collection@Cm@physx@@UEAAXAEAVPxCollection@3@@Z 0000000180003b90 f   CmCollection.obj
 0001:00002d30       ?addId@Collection@Cm@physx@@UEAAXAEAVPxBase@3@_K@Z 0000000180003d30 f   CmCollection.obj
 0001:00002e60       ?contains@Collection@Cm@physx@@UEBA_NAEAVPxBase@3@@Z 0000000180003e60 f   CmCollection.obj
 0001:00002f10       ?create@?$HashBase@V?$Pair@QEAVPxBase@physx@@_K@shdfnd@physx@@PEAVPxBase@3@U?$Hash@PEAVPxBase@physx@@@23@UGetKey@?$HashMapBase@PEAVPxBase@physx@@_KU?$Hash@PEAVPxBase@physx@@@shdfnd@2@VNonTrackingAllocator@42@@internal@23@VNonTrackingAllocator@23@$00@internal@shdfnd@physx@@QEAAPEAV?$Pair@QEAVPxBase@physx@@_K@34@AEBQEAVPxBase@4@AEA_N@Z 0000000180003f10 f i CmCollection.obj
 0001:00002f10       ?create@?$HashBase@V?$Pair@$$CB_KPEAVPxBase@physx@@@shdfnd@physx@@_KU?$Hash@_K@23@UGetKey@?$HashMapBase@_KPEAVPxBase@physx@@U?$Hash@_K@shdfnd@2@VNonTrackingAllocator@42@@internal@23@VNonTrackingAllocator@23@$00@internal@shdfnd@physx@@QEAAPEAV?$Pair@$$CB_KPEAVPxBase@physx@@@34@AEB_KAEA_N@Z 0000000180003f10 f i CmCollection.obj
 0001:000030b0       ?erase@?$HashBase@V?$Pair@$$CB_KPEAVPxBase@physx@@@shdfnd@physx@@_KU?$Hash@_K@23@UGetKey@?$HashMapBase@_KPEAVPxBase@physx@@U?$Hash@_K@shdfnd@2@VNonTrackingAllocator@42@@internal@23@VNonTrackingAllocator@23@$00@internal@shdfnd@physx@@QEAA_NAEB_K@Z 00000001800040b0 f i CmCollection.obj
 0001:000030b0       ?erase@?$HashBase@V?$Pair@QEAVPxBase@physx@@_K@shdfnd@physx@@PEAVPxBase@3@U?$Hash@PEAVPxBase@physx@@@23@UGetKey@?$HashMapBase@PEAVPxBase@physx@@_KU?$Hash@PEAVPxBase@physx@@@shdfnd@2@VNonTrackingAllocator@42@@internal@23@VNonTrackingAllocator@23@$00@internal@shdfnd@physx@@QEAA_NAEBQEAVPxBase@4@@Z 00000001800040b0 f i CmCollection.obj
 0001:00003250       ?find@?$HashMapBase@_KPEAVPxBase@physx@@U?$Hash@_K@shdfnd@2@VNonTrackingAllocator@42@@internal@shdfnd@physx@@QEBAPEBV?$Pair@$$CB_KPEAVPxBase@physx@@@34@AEB_K@Z 0000000180004250 f i CmCollection.obj
 0001:000032f0       ?find@Collection@Cm@physx@@UEBAPEAVPxBase@3@_K@Z 00000001800042f0 f   CmCollection.obj
 0001:00003320       ?getId@Collection@Cm@physx@@UEBA_KAEBVPxBase@3@@Z 0000000180004320 f   CmCollection.obj
 0001:000033d0       ?getIds@Collection@Cm@physx@@UEBAIPEA_KII@Z 00000001800043d0 f   CmCollection.obj
 0001:00003490       ?getNbColumns@HeightField@Gu@physx@@UEBAIXZ 0000000180004490 f   GuBounds.obj
 0001:00003490       ?getNbIds@Collection@Cm@physx@@UEBAIXZ 0000000180004490 f   CmCollection.obj
 0001:000034a0       ?getNbObjects@Collection@Cm@physx@@UEBAIXZ 00000001800044a0 f   CmCollection.obj
 0001:000034b0       ?getObject@Collection@Cm@physx@@UEBAAEAVPxBase@3@I@Z 00000001800044b0 f   CmCollection.obj
 0001:000034c0       ?getObjects@Collection@Cm@physx@@UEBAIPEAPEAVPxBase@3@II@Z 00000001800044c0 f   CmCollection.obj
 0001:00003510       ?release@Collection@Cm@physx@@UEAAXXZ 0000000180004510 f i CmCollection.obj
 0001:00003530       ?remove@Collection@Cm@physx@@UEAAXAEAVPxBase@3@@Z 0000000180004530 f   CmCollection.obj
 0001:00003620       ?remove@Collection@Cm@physx@@UEAAXAEAVPxCollection@3@@Z 0000000180004620 f   CmCollection.obj
 0001:00003730       ?removeId@Collection@Cm@physx@@UEAAX_K@Z 0000000180004730 f   CmCollection.obj
 0001:000037b0       ?reserveInternal@?$HashBase@V?$Pair@QEAVPxBase@physx@@_K@shdfnd@physx@@PEAVPxBase@3@U?$Hash@PEAVPxBase@physx@@@23@UGetKey@?$HashMapBase@PEAVPxBase@physx@@_KU?$Hash@PEAVPxBase@physx@@@shdfnd@2@VNonTrackingAllocator@42@@internal@23@VNonTrackingAllocator@23@$00@internal@shdfnd@physx@@AEAAXI@Z 00000001800047b0 f i CmCollection.obj
 0001:000037b0       ?reserveInternal@?$HashBase@V?$Pair@$$CB_KPEAVPxBase@physx@@@shdfnd@physx@@_KU?$Hash@_K@23@UGetKey@?$HashMapBase@_KPEAVPxBase@physx@@U?$Hash@_K@shdfnd@2@VNonTrackingAllocator@42@@internal@23@VNonTrackingAllocator@23@$00@internal@shdfnd@physx@@AEAAXI@Z 00000001800047b0 f i CmCollection.obj
 0001:000039a0       ??0PtrTable@Cm@physx@@QEAA@W4PxEMPTY@2@@Z 00000001800049a0 f i CmPtrTable.obj
 0001:000039c0       ??0PtrTable@Cm@physx@@QEAA@XZ 00000001800049c0 f   CmPtrTable.obj
 0001:000039d0       ??1HeightFieldData@Gu@physx@@QEAA@XZ 00000001800049d0 f   GuBounds.obj
 0001:000039d0       _guard_check_icall_nop     00000001800049d0 f   LIBCMT:guard_support.obj
 0001:000039d0       ?requiresObjects@HeightField@Gu@physx@@UEAAXAEAVPxProcessPxBaseCallback@3@@Z 00000001800049d0 f   GuHeightField.obj
 0001:000039d0       ?profile@Callback@RTree@Gu@physx@@UEAAXXZ 00000001800049d0 f   GuMidphaseRTree.obj
 0001:000039d0       ??1AABBTreeBuildNode@Gu@physx@@QEAA@XZ 00000001800049d0 f   GuAABBTreeBuild.obj
 0001:000039d0       ?requiresObjects@ConvexMesh@Gu@physx@@UEAAXAEAVPxProcessPxBaseCallback@3@@Z 00000001800049d0 f   GuConvexMesh.obj
 0001:000039d0       ?requiresObjects@TriangleMesh@Gu@physx@@UEAAXAEAVPxProcessPxBaseCallback@3@@Z 00000001800049d0 f   GuTriangleMesh.obj
 0001:000039d0       ??1MaterialIndicesStruct@physx@@QEAA@XZ 00000001800049d0 f   GuGeometryUnion.obj
 0001:000039d0       ??1PtrTable@Cm@physx@@QEAA@XZ 00000001800049d0 f   CmPtrTable.obj
 0001:000039d0       ??1Box@Gu@physx@@QEAA@XZ   00000001800049d0 f   GuBounds.obj
 0001:000039e0       ??4MaterialIndicesStruct@physx@@QEAAAEAU01@AEBU01@@Z 00000001800049e0 f i GuGeometryUnion.obj
 0001:000039e0       ??4CmModuleUpdateLoader@Cm@physx@@QEAAAEAV012@AEBV012@@Z 00000001800049e0 f i CmWindowsModuleUpdateLoader.obj
 0001:000039e0       ??4PtrTable@Cm@physx@@QEAAAEAU012@AEBU012@@Z 00000001800049e0 f i CmPtrTable.obj
 0001:000039f0       ?add@PtrTable@Cm@physx@@QEAAXPEAXAEAVPtrTableStorageManager@23@@Z 00000001800049f0 f   CmPtrTable.obj
 0001:00003ab0       ?clear@PtrTable@Cm@physx@@QEAAXAEAVPtrTableStorageManager@23@@Z 0000000180004ab0 f   CmPtrTable.obj
 0001:00003b30       ?exportExtraData@PtrTable@Cm@physx@@QEAAXAEAVPxSerializationContext@3@@Z 0000000180004b30 f   CmPtrTable.obj
 0001:00003b80       ?find@PtrTable@Cm@physx@@QEBAIPEBX@Z 0000000180004b80 f   CmPtrTable.obj
 0001:00003bb0       ?getBinaryMetaData@PtrTable@Cm@physx@@SAXAEAVPxOutputStream@3@@Z 0000000180004bb0 f   CmPtrTable.obj
 0001:00003d60       ?getCount@PtrTable@Cm@physx@@QEBAIXZ 0000000180004d60 f i CmPtrTable.obj
 0001:00003d70       ?getPtrs@PtrTable@Cm@physx@@QEAAPEAPEAXXZ 0000000180004d70 f i CmPtrTable.obj
 0001:00003d70       ?getPtrs@PtrTable@Cm@physx@@QEBAPEBQEAXXZ 0000000180004d70 f i CmPtrTable.obj
 0001:00003d80       ?importExtraData@PtrTable@Cm@physx@@QEAAXAEAVPxDeserializationContext@3@@Z 0000000180004d80 f   CmPtrTable.obj
 0001:00003db0       ?realloc@PtrTable@Cm@physx@@AEAAXIIAEAVPtrTableStorageManager@23@@Z 0000000180004db0 f   CmPtrTable.obj
 0001:00003e40       ?replaceWithLast@PtrTable@Cm@physx@@QEAAXIAEAVPtrTableStorageManager@23@@Z 0000000180004e40 f   CmPtrTable.obj
 0001:00003f40       ??0RadixSort@Cm@physx@@QEAA@XZ 0000000180004f40 f   CmRadixSort.obj
 0001:00003f70       ??1RadixSort@Cm@physx@@UEAA@XZ 0000000180004f70 f   CmRadixSort.obj
 0001:00003f80       ??_ERadixSort@Cm@physx@@UEAAPEAXI@Z 0000000180004f80 f i CmRadixSort.obj
 0001:00004010       ?GetNbHits@RadixSort@Cm@physx@@QEBAIXZ 0000000180005010 f i CmRadixSort.obj
 0001:00004020       ?GetNbTotalCalls@RadixSort@Cm@physx@@QEBAIXZ 0000000180005020 f i CmRadixSort.obj
 0001:00004030       ?GetRanks@RadixSort@Cm@physx@@QEBAPEBIXZ 0000000180005030 f i CmRadixSort.obj
 0001:00004030       ?getHeightField@HeightFieldUtil@Gu@physx@@QEBAAEBVHeightField@23@XZ 0000000180005030 f i GuCCTSweepTests.obj
 0001:00004040       ?GetRecyclable@RadixSort@Cm@physx@@QEBAPEAIXZ 0000000180005040 f i CmRadixSort.obj
 0001:00004040       ?GetValencies@BigConvexData@physx@@QEBAPEBUValency@Gu@2@XZ 0000000180005040 f i GuMetaData.obj
 0001:00004040       ?getPos@AABBTreeBuildNode@Gu@physx@@QEBAPEBV123@XZ 0000000180005040 f i GuAABBTreeBuild.obj
 0001:00004040       ?getHeightFieldGeometry@HeightFieldUtil@Gu@physx@@QEBAAEBVPxHeightFieldGeometry@3@XZ 0000000180005040 f i GuCCTSweepTests.obj
 0001:00004050       ?SetBuffers@RadixSort@Cm@physx@@QEAA_NPEAI00PEAPEAI@Z 0000000180005050 f   CmRadixSort.obj
 0001:00004090       ?Sort@RadixSort@Cm@physx@@QEAAAEAV123@PEBIIW4RadixHint@23@@Z 0000000180005090 f   CmRadixSort.obj
 0001:000046e0       ?Sort@RadixSort@Cm@physx@@QEAAAEAV123@PEBMI@Z 00000001800056e0 f   CmRadixSort.obj
 0001:00004e40       ?invalidateRanks@RadixSort@Cm@physx@@QEAAXXZ 0000000180005e40 f i CmRadixSort.obj
 0001:00004e50       ??0RadixSortBuffered@Cm@physx@@QEAA@XZ 0000000180005e50 f   CmRadixSortBuffered.obj
 0001:00004e80       ??1RadixSortBuffered@Cm@physx@@UEAA@XZ 0000000180005e80 f   CmRadixSortBuffered.obj
 0001:00004eb0       ??_ERadixSortBuffered@Cm@physx@@UEAAPEAXI@Z 0000000180005eb0 f i CmRadixSortBuffered.obj
 0001:00004fe0       ?CheckResize@RadixSortBuffered@Cm@physx@@AEAAXI@Z 0000000180005fe0 f i CmRadixSortBuffered.obj
 0001:00005020       ?Resize@RadixSortBuffered@Cm@physx@@AEAA_NI@Z 0000000180006020 f   CmRadixSortBuffered.obj
 0001:00005110       ?Sort@RadixSortBuffered@Cm@physx@@QEAAAEAV123@PEBIIW4RadixHint@23@@Z 0000000180006110 f   CmRadixSortBuffered.obj
 0001:000051b0       ?Sort@RadixSortBuffered@Cm@physx@@QEAAAEAV123@PEBMI@Z 00000001800061b0 f   CmRadixSortBuffered.obj
 0001:00005240       ?reset@RadixSortBuffered@Cm@physx@@QEAAXXZ 0000000180006240 f   CmRadixSortBuffered.obj
 0001:000052c0       ??0DebugText@Cm@physx@@QEAA@$$QEAU012@@Z 00000001800062c0 f i CmRenderOutput.obj
 0001:000052c0       ??0DebugText@Cm@physx@@QEAA@AEBU012@@Z 00000001800062c0 f i CmRenderOutput.obj
 0001:000053a0       ??0DebugText@Cm@physx@@QEAA@AEBVPxVec3@2@MPEBDZZ 00000001800063a0 f   CmRenderOutput.obj
 0001:00005400       ??0RenderOutput@Cm@physx@@QEAA@AEAVRenderBuffer@12@@Z 0000000180006400 f i CmRenderOutput.obj
 0001:00005450       ??0RenderOutput@Cm@physx@@QEAA@AEBV012@@Z 0000000180006450 f i CmRenderOutput.obj
 0001:000054f0       ??4DebugText@Cm@physx@@QEAAAEAU012@$$QEAU012@@Z 00000001800064f0 f i CmRenderOutput.obj
 0001:000054f0       ??4DebugText@Cm@physx@@QEAAAEAU012@AEBU012@@Z 00000001800064f0 f i CmRenderOutput.obj
 0001:00005620       ??6Cm@physx@@YAAEAVRenderOutput@01@AEAV201@AEBUDebugArc@01@@Z 0000000180006620 f   CmRenderOutput.obj
 0001:00005720       ??6Cm@physx@@YAAEAVRenderOutput@01@AEAV201@AEBUDebugArrow@01@@Z 0000000180006720 f   CmRenderOutput.obj
 0001:00005b10       ??6Cm@physx@@YAAEAVRenderOutput@01@AEAV201@AEBUDebugBasis@01@@Z 0000000180006b10 f   CmRenderOutput.obj
 0001:00005c10       ??6Cm@physx@@YAAEAVRenderOutput@01@AEAV201@AEBUDebugBox@01@@Z 0000000180006c10 f   CmRenderOutput.obj
 0001:00006110       ??6Cm@physx@@YAAEAVRenderOutput@01@AEAV201@AEBUDebugCircle@01@@Z 0000000180007110 f   CmRenderOutput.obj
 0001:000061f0       ??6RenderOutput@Cm@physx@@QEAAAEAV012@AEBUDebugText@12@@Z 00000001800071f0 f   CmRenderOutput.obj
 0001:00006400       ??6RenderOutput@Cm@physx@@QEAAAEAV012@AEBVPxMat44@2@@Z 0000000180007400 f   CmRenderOutput.obj
 0001:00006470       ??6RenderOutput@Cm@physx@@QEAAAEAV012@AEBVPxTransform@2@@Z 0000000180007470 f   CmRenderOutput.obj
 0001:000065f0       ??6RenderOutput@Cm@physx@@QEAAAEAV012@I@Z 00000001800075f0 f   CmRenderOutput.obj
 0001:00006600       ??6RenderOutput@Cm@physx@@QEAAAEAV012@VPxVec3@2@@Z 0000000180007600 f   CmRenderOutput.obj
 0001:00006b50       ??6RenderOutput@Cm@physx@@QEAAAEAV012@W4Primitive@012@@Z 0000000180007b50 f   CmRenderOutput.obj
 0001:00006b60       ?allocate@?$Array@DV?$ReflectionAllocator@D@shdfnd@physx@@@shdfnd@physx@@IEAAPEADI@Z 0000000180007b60 f i CmRenderOutput.obj
 0001:00006bf0       ?allocate@?$Array@UPxDebugLine@physx@@V?$ReflectionAllocator@UPxDebugLine@physx@@@shdfnd@2@@shdfnd@physx@@IEAAPEAUPxDebugLine@3@I@Z 0000000180007bf0 f i CmRenderOutput.obj
 0001:00006c90       ?allocate@?$Array@UPxDebugPoint@physx@@V?$ReflectionAllocator@UPxDebugPoint@physx@@@shdfnd@2@@shdfnd@physx@@IEAAPEAUPxDebugPoint@3@I@Z 0000000180007c90 f i CmRenderOutput.obj
 0001:00006d30       ?allocate@?$Array@UPxDebugText@physx@@V?$ReflectionAllocator@UPxDebugText@physx@@@shdfnd@2@@shdfnd@physx@@IEAAPEAUPxDebugText@3@I@Z 0000000180007d30 f i CmRenderOutput.obj
 0001:00006dd0       ?allocate@?$Array@UPxDebugTriangle@physx@@V?$ReflectionAllocator@UPxDebugTriangle@physx@@@shdfnd@2@@shdfnd@physx@@IEAAPEAUPxDebugTriangle@3@I@Z 0000000180007dd0 f i CmRenderOutput.obj
 0001:00006e70       ?copy@?$Array@UPxDebugLine@physx@@V?$ReflectionAllocator@UPxDebugLine@physx@@@shdfnd@2@@shdfnd@physx@@KAXPEAUPxDebugLine@3@0PEBU43@@Z 0000000180007e70 f i CmRenderOutput.obj
 0001:00007020       ?copy@?$Array@UPxDebugPoint@physx@@V?$ReflectionAllocator@UPxDebugPoint@physx@@@shdfnd@2@@shdfnd@physx@@KAXPEAUPxDebugPoint@3@0PEBU43@@Z 0000000180008020 f i CmRenderOutput.obj
 0001:00007120       ?copy@?$Array@UPxDebugText@physx@@V?$ReflectionAllocator@UPxDebugText@physx@@@shdfnd@2@@shdfnd@physx@@KAXPEAUPxDebugText@3@0PEBU43@@Z 0000000180008120 f i CmRenderOutput.obj
 0001:00007290       ?copy@?$Array@UPxDebugTriangle@physx@@V?$ReflectionAllocator@UPxDebugTriangle@physx@@@shdfnd@2@@shdfnd@physx@@KAXPEAUPxDebugTriangle@3@0PEBU43@@Z 0000000180008290 f i CmRenderOutput.obj
 0001:00007490       ?growAndPushBack@?$Array@DV?$ReflectionAllocator@D@shdfnd@physx@@@shdfnd@physx@@IEAAAEADAEBD@Z 0000000180008490 f i CmRenderOutput.obj
 0001:00007550       ?growAndPushBack@?$Array@UPxDebugLine@physx@@V?$ReflectionAllocator@UPxDebugLine@physx@@@shdfnd@2@@shdfnd@physx@@IEAAAEAUPxDebugLine@3@AEBU43@@Z 0000000180008550 f i CmRenderOutput.obj
 0001:00007630       ?growAndPushBack@?$Array@UPxDebugPoint@physx@@V?$ReflectionAllocator@UPxDebugPoint@physx@@@shdfnd@2@@shdfnd@physx@@IEAAAEAUPxDebugPoint@3@AEBU43@@Z 0000000180008630 f i CmRenderOutput.obj
 0001:000076f0       ?growAndPushBack@?$Array@UPxDebugText@physx@@V?$ReflectionAllocator@UPxDebugText@physx@@@shdfnd@2@@shdfnd@physx@@IEAAAEAUPxDebugText@3@AEBU43@@Z 00000001800086f0 f i CmRenderOutput.obj
 0001:000077c0       ?growAndPushBack@?$Array@UPxDebugTriangle@physx@@V?$ReflectionAllocator@UPxDebugTriangle@physx@@@shdfnd@2@@shdfnd@physx@@IEAAAEAUPxDebugTriangle@3@AEBU43@@Z 00000001800087c0 f i CmRenderOutput.obj
 0001:000078c0       ?outputCapsule@RenderOutput@Cm@physx@@QEAAAEAV123@MMAEBVPxMat44@3@@Z 00000001800088c0 f   CmRenderOutput.obj
 0001:000083a0       ?outputSegment@RenderOutput@Cm@physx@@QEAAXAEBVPxVec3@3@0@Z 00000001800093a0 f i CmRenderOutput.obj
 0001:00008460       ?recreate@?$Array@DV?$ReflectionAllocator@D@shdfnd@physx@@@shdfnd@physx@@IEAAXI@Z 0000000180009460 f i CmRenderOutput.obj
 0001:00008500       ?recreate@?$Array@UPxDebugLine@physx@@V?$ReflectionAllocator@UPxDebugLine@physx@@@shdfnd@2@@shdfnd@physx@@IEAAXI@Z 0000000180009500 f i CmRenderOutput.obj
 0001:00008590       ?reserveSegments@RenderOutput@Cm@physx@@QEAAPEAUPxDebugLine@3@I@Z 0000000180009590 f i CmRenderOutput.obj
 0001:00008600       ??DPxQuat@physx@@QEBA?AV01@AEBV01@@Z 0000000180009600 f i CmVisualization.obj
 0001:00008740       ?visualizeAngularLimit@Cm@physx@@YAXAEAVRenderOutput@12@MAEBVPxTransform@2@MM_N@Z 0000000180009740 f   CmVisualization.obj
 0001:00008900       ?visualizeDoubleCone@Cm@physx@@YAXAEAVRenderOutput@12@MAEBVPxTransform@2@M_N@Z 0000000180009900 f   CmVisualization.obj
 0001:00008b60       ?visualizeJointFrames@Cm@physx@@YAXAEAVRenderOutput@12@MAEBVPxTransform@2@1@Z 0000000180009b60 f   CmVisualization.obj
 0001:00008c20       ?visualizeLimitCone@Cm@physx@@YAXAEAVRenderOutput@12@MAEBVPxTransform@2@MM_N@Z 0000000180009c20 f   CmVisualization.obj
 0001:00008eb0       ?visualizeLinearLimit@Cm@physx@@YAXAEAVRenderOutput@12@MAEBVPxTransform@2@1M_N@Z 0000000180009eb0 f   CmVisualization.obj
 0001:00009130       ??0CmModuleUpdateLoader@Cm@physx@@QEAA@PEBD@Z 000000018000a130 f   CmWindowsModuleUpdateLoader.obj
 0001:00009170       ??1CmModuleUpdateLoader@Cm@physx@@QEAA@XZ 000000018000a170 f   CmWindowsModuleUpdateLoader.obj
 0001:000091a0       ?LoadModule@CmModuleUpdateLoader@Cm@physx@@QEAAPEAUHINSTANCE__@@PEBD0@Z 000000018000a1a0 f   CmWindowsModuleUpdateLoader.obj
 0001:000091c0       ?commonDelayHook@@YAP6A_JXZIPEAUDelayLoadInfo@@@Z 000000018000a1c0 f   CmWindowsDelayLoadHook.obj
 0001:000092a0       PxSetPhysXCommonDelayLoadHook 000000018000a2a0 f   CmWindowsDelayLoadHook.obj
 0001:000092b0       ??4Box@Gu@physx@@QEAAAEBV012@AEBV012@@Z 000000018000a2b0 f i GuBounds.obj
 0001:000092b0       ??0Box@Gu@physx@@QEAA@AEBV012@@Z 000000018000a2b0 f i GuBounds.obj
 0001:00009310       ??0Box@Gu@physx@@QEAA@AEBVPxVec3@2@0AEBVPxMat33@2@@Z 000000018000a310 f i GuBounds.obj
 0001:00009380       ??0Box@Gu@physx@@QEAA@XZ   000000018000a380 f i GuBounds.obj
 0001:00009380       ??0AABBTreeBuildNode@Gu@physx@@QEAA@XZ 000000018000a380 f i GuAABBTreeBuild.obj
 0001:00009380       ?getPaddedBounds@HeightFieldData@Gu@physx@@QEBAAEBVCenterExtentsPadded@23@XZ 000000018000a380 f i GuBounds.obj
 0001:00009380       ??0GeometryUnion@Gu@physx@@QEAA@W4PxEMPTY@2@@Z 000000018000a380 f i GuGeometryUnion.obj
 0001:00009380       ??0BigConvexData@physx@@QEAA@W4PxEMPTY@1@@Z 000000018000a380 f i GuMetaData.obj
 0001:00009380       ??0HeightFieldData@Gu@physx@@QEAA@W4PxEMPTY@2@@Z 000000018000a380 f i GuBounds.obj
 0001:00009380       ??0MaterialIndicesStruct@physx@@QEAA@W4PxEMPTY@1@@Z 000000018000a380 f i GuGeometryUnion.obj
 0001:00009380       ??$forward@_K@std@@YA$$QEA_KAEA_K@Z 000000018000a380 f i libvcruntime:undname.obj
 0001:00009380       ?getGeometry@GeometryUnion@Gu@physx@@QEBAAEBVPxGeometry@3@XZ 000000018000a380 f i GuGeometryUnion.obj
 0001:00009380       ?getAABB@AABBTreeBuildNode@Gu@physx@@QEBAAEBVPxBounds3@3@XZ 000000018000a380 f i GuAABBTreeBuild.obj
 0001:00009390       ??4HeightFieldData@Gu@physx@@QEAAAEAU012@AEBU012@@Z 000000018000a390 f i GuBounds.obj
 0001:00009390       ??4HeightFieldData@Gu@physx@@QEAAAEAU012@$$QEAU012@@Z 000000018000a390 f i GuBounds.obj
 0001:00009390       ??0HeightFieldData@Gu@physx@@QEAA@AEBU012@@Z 000000018000a390 f i GuBounds.obj
 0001:00009390       ??0HeightFieldData@Gu@physx@@QEAA@$$QEAU012@@Z 000000018000a390 f i GuBounds.obj
 0001:000093f0       ??0HeightFieldData@Gu@physx@@QEAA@XZ 000000018000a3f0 f i GuBounds.obj
 0001:00009400       ??0PxQuat@physx@@QEAA@AEBVPxMat33@1@@Z 000000018000a400 f i GuBounds.obj
 0001:000095e0       ??0ShapeData@Gu@physx@@QEAA@AEBVPxGeometry@2@AEBVPxTransform@2@M@Z 000000018000a5e0 f   GuBounds.obj
 0001:00009b40       ??1PxHeightField@physx@@MEAA@XZ 000000018000ab40 f i GuBounds.obj
 0001:00009b40       ??1PxConvexMesh@physx@@MEAA@XZ 000000018000ab40 f i GuBounds.obj
 0001:00009b50       ??_EPxBVHStructure@physx@@MEAAPEAXI@Z 000000018000ab50 f i GuBVHStructure.obj
 0001:00009b50       ??_EPxTriangleMesh@physx@@MEAAPEAXI@Z 000000018000ab50 f i GuTriangleMesh.obj
 0001:00009b50       ??_GPxTriangleMesh@physx@@MEAAPEAXI@Z 000000018000ab50 f i GuTriangleMesh.obj
 0001:00009b50       ??_EPxBase@physx@@MEAAPEAXI@Z 000000018000ab50 f i GuBounds.obj
 0001:00009b50       ??_GPxBase@physx@@MEAAPEAXI@Z 000000018000ab50 f i GuBounds.obj
 0001:00009b50       ??_GPxBVHStructure@physx@@MEAAPEAXI@Z 000000018000ab50 f i GuBVHStructure.obj
 0001:00009b80       ??_H@YAXPEAX_K1P6APEAX0@Z@Z 000000018000ab80 f i GuBounds.obj
 0001:00009bd0       ?computeAABBExtent@Box@Gu@physx@@QEBA?AVPxVec3@3@XZ 000000018000abd0 f i GuBounds.obj
 0001:00009c90       ?computeBounds@Gu@physx@@YAXAEAVPxBounds3@2@AEBVPxGeometry@2@AEBVPxTransform@2@MPEIBVCenterExtentsPadded@12@M@Z 000000018000ac90 f   GuBounds.obj
 0001:0000a570       ?computeBoundsWithCCDThreshold@Gu@physx@@YAMAEAVVec3p@12@0AEBVPxGeometry@2@AEBVPxTransform@2@PEIBVCenterExtentsPadded@12@@Z 000000018000b570 f   GuBounds.obj
 0001:0000a740       ?computeBoxPoints@Box@Gu@physx@@QEBAXPEIAVPxVec3@3@@Z 000000018000b740 f i GuBounds.obj
 0001:0000b6f0       ?getConcreteTypeName@PxConvexMesh@physx@@UEBAPEBDXZ 000000018000c6f0 f i GuBounds.obj
 0001:0000b700       ?getConcreteTypeName@PxHeightField@physx@@UEBAPEBDXZ 000000018000c700 f i GuBounds.obj
 0001:0000b710       ?getConvexEdgeThreshold@HeightField@Gu@physx@@UEBAMXZ 000000018000c710 f i GuBounds.obj
 0001:0000b720       ?getFlags@HeightField@Gu@physx@@UEBA?AV?$PxFlags@W4Enum@PxHeightFieldFlag@physx@@G@3@XZ 000000018000c720 f i GuBounds.obj
 0001:0000b730       ?getFormat@HeightField@Gu@physx@@UEBA?AW4Enum@PxHeightFieldFormat@3@XZ 000000018000c730 f i GuBounds.obj
 0001:0000b740       ?getHeight@HeightField@Gu@physx@@UEBAMMM@Z 000000018000c740 f i GuBounds.obj
 0001:0000b780       ?getHeightInternal2@HeightField@Gu@physx@@QEBAMIMM@Z 000000018000c780 f i GuBounds.obj
 0001:0000b8f0       ?getIndexBuffer@ConvexMesh@Gu@physx@@UEBAPEBEXZ 000000018000c8f0 f i GuBounds.obj
 0001:0000b930       ?getNbPolygons@ConvexMesh@Gu@physx@@UEBAIXZ 000000018000c930 f i GuBounds.obj
 0001:0000b940       ?getNbRows@HeightField@Gu@physx@@UEBAIXZ 000000018000c940 f i GuBounds.obj
 0001:0000b950       ?getNbVertices@ConvexMesh@Gu@physx@@UEBAIXZ 000000018000c950 f i GuBounds.obj
 0001:0000b960       ?getSample@HeightField@Gu@physx@@UEBAAEBUPxHeightFieldSample@3@II@Z 000000018000c960 f i GuBounds.obj
 0001:0000b970       ?getSampleStride@HeightField@Gu@physx@@UEBAIXZ 000000018000c970 f i GuBounds.obj
 0001:0000b980       ?getTimestamp@HeightField@Gu@physx@@UEBAIXZ 000000018000c980 f i GuBounds.obj
 0001:0000b990       ?getTransform@Box@Gu@physx@@QEBA?AVPxTransform@3@XZ 000000018000c990 f i GuBounds.obj
 0001:0000b9f0       ?getTriangleMaterialIndex@HeightField@Gu@physx@@UEBAGI@Z 000000018000c9f0 f i GuBounds.obj
 0001:0000ba20       ?getTriangleNormal@HeightField@Gu@physx@@UEBA?AVPxVec3@3@I@Z 000000018000ca20 f i GuBounds.obj
 0001:0000bb20       ?getVertices@ConvexMesh@Gu@physx@@UEBAPEBVPxVec3@3@XZ 000000018000cb20 f i GuBounds.obj
 0001:0000bb40       ?isKindOf@PxBase@physx@@MEBA_NPEBD@Z 000000018000cb40 f i GuBounds.obj
 0001:0000bb70       ?isKindOf@PxConvexMesh@physx@@MEBA_NPEBD@Z 000000018000cb70 f i GuBounds.obj
 0001:0000bbc0       ?isKindOf@PxHeightField@physx@@MEBA_NPEBD@Z 000000018000cbc0 f i GuBounds.obj
 0001:0000bc10       ?isReleasable@PxBase@physx@@UEBA_NXZ 000000018000cc10 f i GuBounds.obj
 0001:0000bc20       ?isValid@Box@Gu@physx@@QEBA_NXZ 000000018000cc20 f i GuBounds.obj
 0001:0000bc40       ?preExportDataReset@HeightField@Gu@physx@@QEAAXXZ 000000018000cc40 f i GuBounds.obj
 0001:0000bc40       ?preExportDataReset@ConvexMesh@Gu@physx@@QEAAXXZ 000000018000cc40 f i GuBounds.obj
 0001:0000bc50       ?rotate@Box@Gu@physx@@QEBA?AVPxVec3@3@AEBV43@@Z 000000018000cc50 f i GuBounds.obj
 0001:0000bce0       ?rotateInv@Box@Gu@physx@@QEBA?AVPxVec3@3@AEBV43@@Z 000000018000cce0 f i GuBounds.obj
 0001:0000bd70       ?setAxes@Box@Gu@physx@@QEAAXAEBVPxVec3@3@00@Z 000000018000cd70 f i GuBounds.obj
 0001:0000bdb0       ?setEmpty@Box@Gu@physx@@QEAAXXZ 000000018000cdb0 f i GuBounds.obj
 0001:0000bdf0       ?transform@Box@Gu@physx@@QEBA?AVPxVec3@3@AEBV43@@Z 000000018000cdf0 f i GuBounds.obj
 0001:0000be90       ?computeOBBPoints@Gu@physx@@YAXPEIAVPxVec3@2@AEBV32@1111@Z 000000018000ce90 f   GuBox.obj
 0001:0000c110       ?create@Box@Gu@physx@@QEAAXAEBVCapsule@23@@Z 000000018000d110 f   GuBox.obj
 0001:0000c340       ?getBoxEdges@Gu@physx@@YAPEBEXZ 000000018000d340 f   GuBox.obj
 0001:0000c350       ?computeBasis@shdfnd@physx@@YAXAEBVPxVec3@2@0AEAV32@11@Z 000000018000d350 f i GuCapsule.obj
 0001:0000c4f0       ?computeBoxAroundCapsule@Gu@physx@@YAXAEBVCapsule@12@AEAVBox@12@@Z 000000018000d4f0 f   GuCapsule.obj
 0001:0000c640       ??0HeightFieldUtil@Gu@physx@@QEAA@AEBVPxHeightFieldGeometry@2@@Z 000000018000d640 f i GuCCTSweepTests.obj
 0001:0000c640       ??0HeightFieldTraceUtil@Gu@physx@@QEAA@AEBVPxHeightFieldGeometry@2@@Z 000000018000d640 f i GuCCTSweepTests.obj
 0001:0000c680       ??4HeightFieldTraceUtil@Gu@physx@@QEAAAEAV012@AEBV012@@Z 000000018000d680 f i GuCCTSweepTests.obj
 0001:0000c680       ??4HeightFieldUtil@Gu@physx@@QEAAAEAV012@AEBV012@@Z 000000018000d680 f i GuCCTSweepTests.obj
 0001:0000c680       ??4HeightFieldTraceUtil@Gu@physx@@QEAAAEAV012@$$QEAV012@@Z 000000018000d680 f i GuCCTSweepTests.obj
 0001:0000c6a0       ??4HeightFieldUtil@Gu@physx@@QEAAAEAV012@$$QEAV012@@Z 000000018000d6a0 f i GuCCTSweepTests.obj
 0001:0000c6d0       ??_G?$EntityReport@I@Gu@physx@@UEAAPEAXI@Z 000000018000d6d0 f i GuCCTSweepTests.obj
 0001:0000c6d0       ??_E?$EntityReport@I@Gu@physx@@UEAAPEAXI@Z 000000018000d6d0 f i GuCCTSweepTests.obj
 0001:0000c730       ?ceilUp@HeightFieldTraceUtil@Gu@physx@@SAMM@Z 000000018000d730 f i GuCCTSweepTests.obj
 0001:0000c770       ?computePointNormal@HeightFieldUtil@Gu@physx@@QEBA?AVPxVec3@3@IAEBV43@AEBVPxTransform@3@MMMMAEAM@Z 000000018000d770 f i GuCCTSweepTests.obj
 0001:0000cb90       ?floorDown@HeightFieldTraceUtil@Gu@physx@@SAMM@Z 000000018000db90 f i GuCCTSweepTests.obj
 0001:0000cbd0       ?getFeatureIndex@HeightFieldUtil@Gu@physx@@SAII@Z 000000018000dbd0 f i GuCCTSweepTests.obj
 0001:0000cbe0       ?getFeatureType@HeightFieldUtil@Gu@physx@@SA?AW4Feature@123@I@Z 000000018000dbe0 f i GuCCTSweepTests.obj
 0001:0000cbf0       ?getHeightAtShapePoint@HeightFieldUtil@Gu@physx@@QEBAMMM@Z 000000018000dbf0 f i GuCCTSweepTests.obj
 0001:0000cc50       ?getNormalAtShapePoint@HeightFieldUtil@Gu@physx@@QEBA?AVPxVec3@3@MM@Z 000000018000dc50 f i GuCCTSweepTests.obj
 0001:0000cd10       ?getNormal_2@HeightField@Gu@physx@@QEBA?AVPxVec3@3@IMMMMM@Z 000000018000dd10 f i GuCCTSweepTests.obj
 0001:0000ce30       ?getOneOverColumnScale@HeightFieldUtil@Gu@physx@@QEBAMXZ 000000018000de30 f i GuCCTSweepTests.obj
 0001:0000ce40       ?getOneOverHeightScale@HeightFieldUtil@Gu@physx@@QEBAMXZ 000000018000de40 f i GuCCTSweepTests.obj
 0001:0000ce50       ?getOneOverRowScale@HeightFieldUtil@Gu@physx@@QEBAMXZ 000000018000de50 f i GuCCTSweepTests.obj
 0001:0000ce60       ?getVertexNormal@HeightFieldUtil@Gu@physx@@QEBA?AVPxVec3@3@I@Z 000000018000de60 f i GuCCTSweepTests.obj
 0001:0000cea0       ?hf2shapen@HeightFieldUtil@Gu@physx@@QEBA?AVPxVec3@3@AEBV43@@Z 000000018000dea0 f i GuCCTSweepTests.obj
 0001:0000cea0       ?shape2hfp@HeightFieldUtil@Gu@physx@@QEBA?AVPxVec3@3@AEBV43@@Z 000000018000dea0 f i GuCCTSweepTests.obj
 0001:0000cee0       ?hf2shapep@HeightFieldUtil@Gu@physx@@QEBA?AVPxVec3@3@AEBV43@@Z 000000018000dee0 f i GuCCTSweepTests.obj
 0001:0000cf20       ?hf2worldn@HeightFieldUtil@Gu@physx@@QEBA?AVPxVec3@3@AEBVPxTransform@3@AEBV43@@Z 000000018000df20 f i GuCCTSweepTests.obj
 0001:0000d090       ?hf2worldp@HeightFieldUtil@Gu@physx@@QEBA?AVPxVec3@3@AEBVPxTransform@3@AEBV43@@Z 000000018000e090 f i GuCCTSweepTests.obj
 0001:0000d210       ?isCollisionVertex@HeightFieldUtil@Gu@physx@@QEBA_NIII@Z 000000018000e210 f i GuCCTSweepTests.obj
 0001:0000d230       ?isQueryVertex@HeightFieldUtil@Gu@physx@@QEBA_NIII@Z 000000018000e230 f i GuCCTSweepTests.obj
 0001:0000d2f0       ?isShapePointOnHeightField@HeightFieldUtil@Gu@physx@@QEBA_NMM@Z 000000018000e2f0 f i GuCCTSweepTests.obj
 0001:0000d340       ?makeFeatureCode@HeightFieldUtil@Gu@physx@@SAIIW4Feature@123@@Z 000000018000e340 f i GuCCTSweepTests.obj
 0001:0000d500       ?sweepBoxTriangles_Precise@Gu@physx@@YA_NIPEBVPxTriangle@2@_NAEBVPxBoxGeometry@2@AEBVPxTransform@2@AEBVPxVec3@2@MAEAUPxSweepHit@2@PEBIMV?$PxFlags@W4Enum@PxHitFlag@physx@@G@2@@Z 000000018000e500 f   GuCCTSweepTests.obj
 0001:0000e280       ?sweepBox_BoxGeom_Precise@@YA_NAEBVPxGeometry@physx@@AEBVPxTransform@2@AEBVPxBoxGeometry@2@1AEBVBox@Gu@2@AEBVPxVec3@2@MAEAUPxSweepHit@2@V?$PxFlags@W4Enum@PxHitFlag@physx@@G@2@M@Z 000000018000f280 f   GuCCTSweepTests.obj
 0001:0000e440       ?sweepBox_CapsuleGeom_Precise@@YA_NAEBVPxGeometry@physx@@AEBVPxTransform@2@AEBVPxBoxGeometry@2@1AEBVBox@Gu@2@AEBVPxVec3@2@MAEAUPxSweepHit@2@V?$PxFlags@W4Enum@PxHitFlag@physx@@G@2@M@Z 000000018000f440 f   GuCCTSweepTests.obj
 0001:0000e810       ?sweepBox_HeightFieldGeom_Precise@@YA_NAEBVPxGeometry@physx@@AEBVPxTransform@2@AEBVPxBoxGeometry@2@1AEBVBox@Gu@2@AEBVPxVec3@2@MAEAUPxSweepHit@2@V?$PxFlags@W4Enum@PxHitFlag@physx@@G@2@M@Z 000000018000f810 f   GuCCTSweepTests.obj
 0001:0000ebe0       ?sweepBox_SphereGeom_Precise@@YA_NAEBVPxGeometry@physx@@AEBVPxTransform@2@AEBVPxBoxGeometry@2@1AEBVBox@Gu@2@AEBVPxVec3@2@MAEAUPxSweepHit@2@V?$PxFlags@W4Enum@PxHitFlag@physx@@G@2@M@Z 000000018000fbe0 f   GuCCTSweepTests.obj
 0001:0000eeb0       ?sweepCapsule_BoxGeom_Precise@@YA_NAEBVPxGeometry@physx@@AEBVPxTransform@2@AEBVPxCapsuleGeometry@2@1AEBVCapsule@Gu@2@AEBVPxVec3@2@MAEAUPxSweepHit@2@V?$PxFlags@W4Enum@PxHitFlag@physx@@G@2@M@Z 000000018000feb0 f   GuCCTSweepTests.obj
 0001:0000f510       ?computePenetration@PxGeometryQuery@physx@@SA_NAEAVPxVec3@2@AEAMAEBVPxGeometry@2@AEBVPxTransform@2@23@Z 0000000180010510 f   GuGeometryQuery.obj
 0001:0000f5f0       ?getWorldBounds@PxGeometryQuery@physx@@SA?AVPxBounds3@2@AEBVPxGeometry@2@AEBVPxTransform@2@M@Z 00000001800105f0 f   GuGeometryQuery.obj
 0001:0000f650       ?isFinite@PxQuat@physx@@QEBA_NXZ 0000000180010650 f i GuGeometryQuery.obj
 0001:0000f6c0       ?isValid@PxGeometryQuery@physx@@SA_NAEBVPxGeometry@2@@Z 00000001800106c0 f   GuGeometryQuery.obj
 0001:0000f8b0       ?overlap@PxGeometryQuery@physx@@SA_NAEBVPxGeometry@2@AEBVPxTransform@2@01@Z 00000001800108b0 f   GuGeometryQuery.obj
 0001:0000f940       ?pointDistance@PxGeometryQuery@physx@@SAMAEBVPxVec3@2@AEBVPxGeometry@2@AEBVPxTransform@2@PEAV32@@Z 0000000180010940 f   GuGeometryQuery.obj
 0001:0000ffd0       ?raycast@PxGeometryQuery@physx@@SAIAEBVPxVec3@2@0AEBVPxGeometry@2@AEBVPxTransform@2@MV?$PxFlags@W4Enum@PxHitFlag@physx@@G@2@IPEIAUPxRaycastHit@2@@Z 0000000180010fd0 f   GuGeometryQuery.obj
 0001:00010070       ?sweep@PxGeometryQuery@physx@@SA_NAEBVPxVec3@2@MAEBVPxGeometry@2@AEBVPxTransform@2@12AEAUPxSweepHit@2@V?$PxFlags@W4Enum@PxHitFlag@physx@@G@2@M@Z 0000000180011070 f   GuGeometryQuery.obj
 0001:00010470       ??0GeometryUnion@Gu@physx@@QEAA@AEBVPxGeometry@2@@Z 0000000180011470 f i GuGeometryUnion.obj
 0001:00010490       ??0GeometryUnion@Gu@physx@@QEAA@XZ 0000000180011490 f i GuGeometryUnion.obj
 0001:000104a0       ??0MaterialIndicesStruct@physx@@QEAA@XZ 00000001800114a0 f i GuGeometryUnion.obj
 0001:000104c0       ??4GeometryUnion@Gu@physx@@QEAAAEAV012@$$QEAV012@@Z 00000001800114c0 f i GuGeometryUnion.obj
 0001:000104c0       ??4GeometryUnion@Gu@physx@@QEAAAEAV012@AEBV012@@Z 00000001800114c0 f i GuGeometryUnion.obj
 0001:000104f0       ?allocate@MaterialIndicesStruct@physx@@QEAAXG@Z 00000001800114f0 f i GuGeometryUnion.obj
 0001:00010570       ?deallocate@MaterialIndicesStruct@physx@@QEAAXXZ 0000000180011570 f i GuGeometryUnion.obj
 0001:000105c0       ?getNumAxes@SeparatingAxes@Gu@physx@@QEBAIXZ 00000001800115c0 f i GuMTD.obj
 0001:000105c0       ?getType@GeometryUnion@Gu@physx@@QEBA?AW4Enum@PxGeometryType@3@XZ 00000001800115c0 f i GuGeometryUnion.obj
 0001:000105c0       ?getCount@BuildStats@Gu@physx@@QEBAIXZ 00000001800115c0 f i GuAABBTreeBuild.obj
 0001:000105d0       ?set@GeometryUnion@Gu@physx@@QEAAXAEBVPxGeometry@3@@Z 00000001800115d0 f   GuGeometryUnion.obj
 0001:000107b0       ?computeBoundsAroundVertices@Gu@physx@@YAXAEAVPxBounds3@2@IPEIBVPxVec3@2@@Z 00000001800117b0 f   GuInternal.obj
 0001:00010860       ?computeBoxPoints@Gu@physx@@YAXAEBVPxBounds3@2@PEIAVPxVec3@2@@Z 0000000180011860 f   GuInternal.obj
 0001:00010900       ?computeSweptBox@Gu@physx@@YAXAEAVBox@12@AEBVPxVec3@2@1AEBVPxMat33@2@1M@Z 0000000180011900 f   GuInternal.obj
 0001:00010e30       ?getPlane@Gu@physx@@YA?AVPxPlane@2@AEBVPxTransform@2@@Z 0000000180011e30 f   GuInternal.obj
 0001:00010ee0       ??$?_UI@@YAPEAX_KV?$ReflectionAllocator@I@shdfnd@physx@@PEBDH@Z 0000000180011ee0 f i GuMeshFactory.obj
 0001:00010f80       ??0GuMeshFactory@physx@@QEAA@XZ 0000000180011f80 f   GuMeshFactory.obj
 0001:00011110       ??1GuMeshFactory@physx@@MEAA@XZ 0000000180012110 f   GuMeshFactory.obj
 0001:00011200       ??1MeshDataBase@Gu@physx@@UEAA@XZ 0000000180012200 f i GuMeshFactory.obj
 0001:000112f0       ??1TriangleMeshData@Gu@physx@@UEAA@XZ 00000001800122f0 f i GuMeshFactory.obj
 0001:000113c0       ??_EGuMeshFactory@physx@@MEAAPEAXI@Z 00000001800123c0 f i GuMeshFactory.obj
 0001:000114d0       ??_GBV4TriangleData@Gu@physx@@UEAAPEAXI@Z 00000001800124d0 f i GuMeshFactory.obj
 0001:000114d0       ??_EBV4TriangleData@Gu@physx@@UEAAPEAXI@Z 00000001800124d0 f i GuMeshFactory.obj
 0001:00011560       ??_GMeshDataBase@Gu@physx@@UEAAPEAXI@Z 0000000180012560 f i GuMeshFactory.obj
 0001:00011560       ??_EMeshDataBase@Gu@physx@@UEAAPEAXI@Z 0000000180012560 f i GuMeshFactory.obj
 0001:000115d0       ??_ERTreeTriangleData@Gu@physx@@UEAAPEAXI@Z 00000001800125d0 f i GuMeshFactory.obj
 0001:000115d0       ??_GRTreeTriangleData@Gu@physx@@UEAAPEAXI@Z 00000001800125d0 f i GuMeshFactory.obj
 0001:00011680       ??_ETriangleMeshData@Gu@physx@@UEAAPEAXI@Z 0000000180012680 f i GuMeshFactory.obj
 0001:00011680       ??_GTriangleMeshData@Gu@physx@@UEAAPEAXI@Z 0000000180012680 f i GuMeshFactory.obj
 0001:000116f0       ?__global_array_delete@@YAXPEAX_K@Z 00000001800126f0 f i GuMeshFactory.obj
 0001:00011700       ??_V@YAXPEAX_K@Z           0000000180012700 f i LIBCMT:delete_array_size.obj
 0001:00011700       ?__global_delete@@YAXPEAX_K@Z 0000000180012700 f i GuMeshFactory.obj
 0001:00011710       ?addBVHStructure@GuMeshFactory@physx@@QEAAXPEAVBVHStructure@Gu@2@_N@Z 0000000180012710 f   GuMeshFactory.obj
 0001:00011790       ?addConvexMesh@GuMeshFactory@physx@@QEAAXPEAVConvexMesh@Gu@2@_N@Z 0000000180012790 f   GuMeshFactory.obj
 0001:00011810       ?addFactoryListener@GuMeshFactory@physx@@QEAAXAEAVGuMeshFactoryListener@2@@Z 0000000180012810 f   GuMeshFactory.obj
 0001:00011880       ?addHeightField@GuMeshFactory@physx@@QEAAXPEAVHeightField@Gu@2@_N@Z 0000000180012880 f   GuMeshFactory.obj
 0001:00011900       ?addTriangleMesh@GuMeshFactory@physx@@QEAAXPEAVTriangleMesh@Gu@2@_N@Z 0000000180012900 f   GuMeshFactory.obj
 0001:00011980       ?create@?$HashBase@PEAVHeightField@Gu@physx@@PEAV123@U?$Hash@PEAVHeightField@Gu@physx@@@shdfnd@3@UGetKey@?$HashSetBase@PEAVHeightField@Gu@physx@@U?$Hash@PEAVHeightField@Gu@physx@@@shdfnd@3@VNonTrackingAllocator@53@$00@internal@53@VNonTrackingAllocator@53@$00@internal@shdfnd@physx@@QEAAPEAPEAVHeightField@Gu@4@AEBQEAV564@AEA_N@Z 0000000180012980 f i GuMeshFactory.obj
 0001:00011980       ?create@?$HashBase@PEAVTriangleMesh@Gu@physx@@PEAV123@U?$Hash@PEAVTriangleMesh@Gu@physx@@@shdfnd@3@UGetKey@?$HashSetBase@PEAVTriangleMesh@Gu@physx@@U?$Hash@PEAVTriangleMesh@Gu@physx@@@shdfnd@3@VNonTrackingAllocator@53@$00@internal@53@VNonTrackingAllocator@53@$00@internal@shdfnd@physx@@QEAAPEAPEAVTriangleMesh@Gu@4@AEBQEAV564@AEA_N@Z 0000000180012980 f i GuMeshFactory.obj
 0001:00011980       ?create@?$HashBase@PEAVConvexMesh@Gu@physx@@PEAV123@U?$Hash@PEAVConvexMesh@Gu@physx@@@shdfnd@3@UGetKey@?$HashSetBase@PEAVConvexMesh@Gu@physx@@U?$Hash@PEAVConvexMesh@Gu@physx@@@shdfnd@3@VNonTrackingAllocator@53@$00@internal@53@VNonTrackingAllocator@53@$00@internal@shdfnd@physx@@QEAAPEAPEAVConvexMesh@Gu@4@AEBQEAV564@AEA_N@Z 0000000180012980 f i GuMeshFactory.obj
 0001:00011980       ?create@?$HashBase@PEAVBVHStructure@Gu@physx@@PEAV123@U?$Hash@PEAVBVHStructure@Gu@physx@@@shdfnd@3@UGetKey@?$HashSetBase@PEAVBVHStructure@Gu@physx@@U?$Hash@PEAVBVHStructure@Gu@physx@@@shdfnd@3@VNonTrackingAllocator@53@$00@internal@53@VNonTrackingAllocator@53@$00@internal@shdfnd@physx@@QEAAPEAPEAVBVHStructure@Gu@4@AEBQEAV564@AEA_N@Z 0000000180012980 f i GuMeshFactory.obj
 0001:00011b20       ?createBVHStructure@GuMeshFactory@physx@@IEAAPEAVPxBVHStructure@2@AEAUBVHStructureData@Gu@2@@Z 0000000180012b20 f   GuMeshFactory.obj
 0001:00011c20       ?createBVHStructure@GuMeshFactory@physx@@QEAAPEAVPxBVHStructure@2@AEAVPxInputStream@2@@Z 0000000180012c20 f   GuMeshFactory.obj
 0001:00011d40       ?createBVHStructure@GuMeshFactory@physx@@QEAAPEAVPxBVHStructure@2@PEAX@Z 0000000180012d40 f   GuMeshFactory.obj
 0001:00011d50       ?createConvexMesh@GuMeshFactory@physx@@IEAAPEAVPxConvexMesh@2@AEAUConvexHullInitData@Gu@2@@Z 0000000180012d50 f   GuMeshFactory.obj
 0001:00011e40       ?createConvexMesh@GuMeshFactory@physx@@QEAAPEAVPxConvexMesh@2@AEAVPxInputStream@2@@Z 0000000180012e40 f   GuMeshFactory.obj
 0001:00011f60       ?createConvexMesh@GuMeshFactory@physx@@QEAAPEAVPxConvexMesh@2@PEAX@Z 0000000180012f60 f   GuMeshFactory.obj
 0001:00011f70       ?createHeightField@GuMeshFactory@physx@@QEAAPEAVPxHeightField@2@AEAVPxInputStream@2@@Z 0000000180012f70 f   GuMeshFactory.obj
 0001:00012090       ?createHeightField@GuMeshFactory@physx@@QEAAPEAVPxHeightField@2@PEAX@Z 0000000180013090 f   GuMeshFactory.obj
 0001:00012190       ?createTriangleMesh@GuMeshFactory@physx@@IEAAPEAVPxTriangleMesh@2@AEAVTriangleMeshData@Gu@2@@Z 0000000180013190 f   GuMeshFactory.obj
 0001:00012320       ?createTriangleMesh@GuMeshFactory@physx@@QEAAPEAVPxTriangleMesh@2@AEAVPxInputStream@2@@Z 0000000180013320 f   GuMeshFactory.obj
 0001:00012380       ?createTriangleMesh@GuMeshFactory@physx@@QEAAPEAVPxTriangleMesh@2@PEAX@Z 0000000180013380 f   GuMeshFactory.obj
 0001:00012390       ?erase@?$HashBase@PEAVConvexMesh@Gu@physx@@PEAV123@U?$Hash@PEAVConvexMesh@Gu@physx@@@shdfnd@3@UGetKey@?$HashSetBase@PEAVConvexMesh@Gu@physx@@U?$Hash@PEAVConvexMesh@Gu@physx@@@shdfnd@3@VNonTrackingAllocator@53@$00@internal@53@VNonTrackingAllocator@53@$00@internal@shdfnd@physx@@QEAA_NAEBQEAVConvexMesh@Gu@4@@Z 0000000180013390 f i GuMeshFactory.obj
 0001:00012390       ?erase@?$HashBase@PEAVHeightField@Gu@physx@@PEAV123@U?$Hash@PEAVHeightField@Gu@physx@@@shdfnd@3@UGetKey@?$HashSetBase@PEAVHeightField@Gu@physx@@U?$Hash@PEAVHeightField@Gu@physx@@@shdfnd@3@VNonTrackingAllocator@53@$00@internal@53@VNonTrackingAllocator@53@$00@internal@shdfnd@physx@@QEAA_NAEBQEAVHeightField@Gu@4@@Z 0000000180013390 f i GuMeshFactory.obj
 0001:00012390       ?erase@?$HashBase@PEAVTriangleMesh@Gu@physx@@PEAV123@U?$Hash@PEAVTriangleMesh@Gu@physx@@@shdfnd@3@UGetKey@?$HashSetBase@PEAVTriangleMesh@Gu@physx@@U?$Hash@PEAVTriangleMesh@Gu@physx@@@shdfnd@3@VNonTrackingAllocator@53@$00@internal@53@VNonTrackingAllocator@53@$00@internal@shdfnd@physx@@QEAA_NAEBQEAVTriangleMesh@Gu@4@@Z 0000000180013390 f i GuMeshFactory.obj
 0001:00012390       ?erase@?$HashBase@PEAVBVHStructure@Gu@physx@@PEAV123@U?$Hash@PEAVBVHStructure@Gu@physx@@@shdfnd@3@UGetKey@?$HashSetBase@PEAVBVHStructure@Gu@physx@@U?$Hash@PEAVBVHStructure@Gu@physx@@@shdfnd@3@VNonTrackingAllocator@53@$00@internal@53@VNonTrackingAllocator@53@$00@internal@shdfnd@physx@@QEAA_NAEBQEAVBVHStructure@Gu@4@@Z 0000000180013390 f i GuMeshFactory.obj
 0001:00012500       ?getBVHStructures@GuMeshFactory@physx@@QEBAIPEAPEAVPxBVHStructure@2@II@Z 0000000180013500 f   GuMeshFactory.obj
 0001:000125a0       ?getConvexMeshes@GuMeshFactory@physx@@QEBAIPEAPEAVPxConvexMesh@2@II@Z 00000001800135a0 f   GuMeshFactory.obj
 0001:00012630       ?getHeightFields@GuMeshFactory@physx@@QEBAIPEAPEAVPxHeightField@2@II@Z 0000000180013630 f   GuMeshFactory.obj
 0001:000126d0       ?getNbBVHStructures@GuMeshFactory@physx@@QEBAIXZ 00000001800136d0 f   GuMeshFactory.obj
 0001:00012710       ?getNbConvexMeshes@GuMeshFactory@physx@@QEBAIXZ 0000000180013710 f   GuMeshFactory.obj
 0001:00012750       ?getNbHeightFields@GuMeshFactory@physx@@QEBAIXZ 0000000180013750 f   GuMeshFactory.obj
 0001:00012790       ?getNbTriangleMeshes@GuMeshFactory@physx@@QEBAIXZ 0000000180013790 f   GuMeshFactory.obj
 0001:000127d0       ?getTriangleMeshes@GuMeshFactory@physx@@QEBAIPEAPEAVPxTriangleMesh@2@II@Z 00000001800137d0 f   GuMeshFactory.obj
 0001:00012860       ?growAndPushBack@?$Array@PEAVGuMeshFactoryListener@physx@@V?$ReflectionAllocator@PEAVGuMeshFactoryListener@physx@@@shdfnd@2@@shdfnd@physx@@IEAAAEAPEAVGuMeshFactoryListener@3@AEBQEAV43@@Z 0000000180013860 f i GuMeshFactory.obj
 0001:00013810       ?notifyFactoryListener@GuMeshFactory@physx@@QEAAXPEBVPxBase@2@G@Z 0000000180014810 f   GuMeshFactory.obj
 0001:00013880       ?release@GuMeshFactory@physx@@QEAAXXZ 0000000180014880 f   GuMeshFactory.obj
 0001:00013920       ?removeBVHStructure@GuMeshFactory@physx@@QEAA_NAEAVPxBVHStructure@2@@Z 0000000180014920 f   GuMeshFactory.obj
 0001:00013970       ?removeConvexMesh@GuMeshFactory@physx@@QEAA_NAEAVPxConvexMesh@2@@Z 0000000180014970 f   GuMeshFactory.obj
 0001:000139c0       ?removeFactoryListener@GuMeshFactory@physx@@QEAAXAEAVGuMeshFactoryListener@2@@Z 00000001800149c0 f   GuMeshFactory.obj
 0001:00013a50       ?removeHeightField@GuMeshFactory@physx@@QEAA_NAEAVPxHeightField@2@@Z 0000000180014a50 f   GuMeshFactory.obj
 0001:00013aa0       ?removeTriangleMesh@GuMeshFactory@physx@@QEAA_NAEAVPxTriangleMesh@2@@Z 0000000180014aa0 f   GuMeshFactory.obj
 0001:00013af0       ?reserveInternal@?$HashBase@PEAVHeightField@Gu@physx@@PEAV123@U?$Hash@PEAVHeightField@Gu@physx@@@shdfnd@3@UGetKey@?$HashSetBase@PEAVHeightField@Gu@physx@@U?$Hash@PEAVHeightField@Gu@physx@@@shdfnd@3@VNonTrackingAllocator@53@$00@internal@53@VNonTrackingAllocator@53@$00@internal@shdfnd@physx@@AEAAXI@Z 0000000180014af0 f i GuMeshFactory.obj
 0001:00013af0       ?reserveInternal@?$HashBase@PEAVBVHStructure@Gu@physx@@PEAV123@U?$Hash@PEAVBVHStructure@Gu@physx@@@shdfnd@3@UGetKey@?$HashSetBase@PEAVBVHStructure@Gu@physx@@U?$Hash@PEAVBVHStructure@Gu@physx@@@shdfnd@3@VNonTrackingAllocator@53@$00@internal@53@VNonTrackingAllocator@53@$00@internal@shdfnd@physx@@AEAAXI@Z 0000000180014af0 f i GuMeshFactory.obj
 0001:00013af0       ?reserveInternal@?$HashBase@PEAVTriangleMesh@Gu@physx@@PEAV123@U?$Hash@PEAVTriangleMesh@Gu@physx@@@shdfnd@3@UGetKey@?$HashSetBase@PEAVTriangleMesh@Gu@physx@@U?$Hash@PEAVTriangleMesh@Gu@physx@@@shdfnd@3@VNonTrackingAllocator@53@$00@internal@53@VNonTrackingAllocator@53@$00@internal@shdfnd@physx@@AEAAXI@Z 0000000180014af0 f i GuMeshFactory.obj
 0001:00013af0       ?reserveInternal@?$HashBase@PEAVConvexMesh@Gu@physx@@PEAV123@U?$Hash@PEAVConvexMesh@Gu@physx@@@shdfnd@3@UGetKey@?$HashSetBase@PEAVConvexMesh@Gu@physx@@U?$Hash@PEAVConvexMesh@Gu@physx@@@shdfnd@3@VNonTrackingAllocator@53@$00@internal@53@VNonTrackingAllocator@53@$00@internal@shdfnd@physx@@AEAAXI@Z 0000000180014af0 f i GuMeshFactory.obj
 0001:00013cc0       ??4BigConvexData@physx@@QEAAAEAV01@AEBV01@@Z 0000000180014cc0 f i GuMetaData.obj
 0001:00013ce0       ?GetAdjacentVerts@BigConvexData@physx@@QEBAPEBEXZ 0000000180014ce0 f i GuMetaData.obj
 0001:00013cf0       ?GetNbNeighbors@BigConvexData@physx@@QEBAGI@Z 0000000180014cf0 f i GuMetaData.obj
 0001:00013cf0       ?GetValency@BigConvexData@physx@@QEBAGI@Z 0000000180014cf0 f i GuMetaData.obj
 0001:00013d00       ?GetNbSamples@BigConvexData@physx@@QEBAIXZ 0000000180014d00 f i GuMetaData.obj
 0001:00013d10       ?length@pcharNode@@UEBAHXZ 0000000180014d10 f i libvcruntime:undname.obj
 0001:00013d10       ?raw_length@pcharNode@@UEBAHXZ 0000000180014d10 f i libvcruntime:undname.obj
 0001:00013d10       ?GetNbVerts@BigConvexData@physx@@QEBAIXZ 0000000180014d10 f i GuMetaData.obj
 0001:00013d20       ?GetNeighbors@BigConvexData@physx@@QEBAPEBEI@Z 0000000180014d20 f i GuMetaData.obj
 0001:00013d30       ?GetOffset@BigConvexData@physx@@QEBAGI@Z 0000000180014d30 f i GuMetaData.obj
 0001:00013d40       ?GetSubdiv@BigConvexData@physx@@QEBAIXZ 0000000180014d40 f i GuMetaData.obj
 0001:00013d50       ?getBinaryMetaData@BV4Tree@Gu@physx@@SAXAEAVPxOutputStream@3@@Z 0000000180014d50 f   GuMetaData.obj
 0001:000140e0       ?getBinaryMetaData@BV4TriangleMesh@Gu@physx@@SAXAEAVPxOutputStream@3@@Z 00000001800150e0 f   GuMetaData.obj
 0001:000143c0       ?getBinaryMetaData@BigConvexData@physx@@SAXAEAVPxOutputStream@2@@Z 00000001800153c0 f   GuMetaData.obj
 0001:00014680       ?getBinaryMetaData@ConvexMesh@Gu@physx@@SAXAEAVPxOutputStream@3@@Z 0000000180015680 f   GuMetaData.obj
 0001:00014d10       ?getBinaryMetaData@GeometryUnion@Gu@physx@@SAXAEAVPxOutputStream@3@@Z 0000000180015d10 f   GuMetaData.obj
 0001:00015360       ?getBinaryMetaData@HeightField@Gu@physx@@SAXAEAVPxOutputStream@3@@Z 0000000180016360 f   GuMetaData.obj
 0001:00015790       ?getBinaryMetaData@MaterialIndicesStruct@physx@@SAXAEAVPxOutputStream@2@@Z 0000000180016790 f   GuMetaData.obj
 0001:00015930       ?getBinaryMetaData@RTree@Gu@physx@@SAXAEAVPxOutputStream@3@@Z 0000000180016930 f   GuMetaData.obj
 0001:00015c60       ?getBinaryMetaData@RTreeTriangleMesh@Gu@physx@@SAXAEAVPxOutputStream@3@@Z 0000000180016c60 f   GuMetaData.obj
 0001:00016500       ?getBinaryMetaData@TriangleMesh@Gu@physx@@SAXAEAVPxOutputStream@3@@Z 0000000180017500 f   GuMetaData.obj
 0001:00017970       ?doSupport@?$SupportLocalImpl@VConvexHullV@Gu@physx@@@Gu@physx@@UEBA?AT__m128@@AEBT4@@Z 0000000180018970 f i GuMTD.obj
 0001:00017a50       ?doSupport@?$SupportLocalImpl@VConvexHullV@Gu@physx@@@Gu@physx@@UEBAXAEBT__m128@@AEAT4@1@Z 0000000180018a50 f i GuMTD.obj
 0001:00017db0       ?populateVerts@?$SupportLocalImpl@VConvexHullV@Gu@physx@@@Gu@physx@@UEBAXPEBEIPEBVPxVec3@3@PEAT__m128@@@Z 0000000180018db0 f i GuMTD.obj
 0001:00017e10       ??_E?$SupportLocalImpl@VConvexHullNoScaleV@Gu@physx@@@Gu@physx@@UEAAPEAXI@Z 0000000180018e10 f i GuMTD.obj
 0001:00017e10       ??_E?$SupportLocalImpl@VBoxV@Gu@physx@@@Gu@physx@@UEAAPEAXI@Z 0000000180018e10 f i GuMTD.obj
 0001:00017e10       ??_G?$SupportLocalImpl@VConvexHullNoScaleV@Gu@physx@@@Gu@physx@@UEAAPEAXI@Z 0000000180018e10 f i GuMTD.obj
 0001:00017e10       ??_G?$SupportLocalImpl@VBoxV@Gu@physx@@@Gu@physx@@UEAAPEAXI@Z 0000000180018e10 f i GuMTD.obj
 0001:00017e10       ??_G?$SupportLocalImpl@VTriangleV@Gu@physx@@@Gu@physx@@UEAAPEAXI@Z 0000000180018e10 f i GuPCMContactConvexCommon.obj
 0001:00017e10       ??_G?$SupportLocalImpl@VConvexHullV@Gu@physx@@@Gu@physx@@UEAAPEAXI@Z 0000000180018e10 f i GuMTD.obj
 0001:00017e10       ??_E?$SupportLocalImpl@VTriangleV@Gu@physx@@@Gu@physx@@UEAAPEAXI@Z 0000000180018e10 f i GuPCMContactConvexCommon.obj
 0001:00017e10       ??_E?$SupportLocalImpl@VConvexHullV@Gu@physx@@@Gu@physx@@UEAAPEAXI@Z 0000000180018e10 f i GuMTD.obj
 0001:00017e40       ?doSupport@?$SupportLocalImpl@VConvexHullNoScaleV@Gu@physx@@@Gu@physx@@UEBA?AT__m128@@AEBT4@@Z 0000000180018e40 f i GuMTD.obj
 0001:00017e90       ?doSupport@?$SupportLocalImpl@VConvexHullNoScaleV@Gu@physx@@@Gu@physx@@UEBAXAEBT__m128@@AEAT4@1@Z 0000000180018e90 f i GuMTD.obj
 0001:00018010       ?populateVerts@?$SupportLocalImpl@VConvexHullNoScaleV@Gu@physx@@@Gu@physx@@UEBAXPEBEIPEBVPxVec3@3@PEAT__m128@@@Z 0000000180019010 f i GuMTD.obj
 0001:00018010       ?populateVerts@?$SupportLocalImpl@VBoxV@Gu@physx@@@Gu@physx@@UEBAXPEBEIPEBVPxVec3@3@PEAT__m128@@@Z 0000000180019010 f i GuMTD.obj
 0001:00018050       ?doSupport@?$SupportLocalImpl@VBoxV@Gu@physx@@@Gu@physx@@UEBA?AT__m128@@AEBT4@@Z 0000000180019050 f i GuMTD.obj
 0001:00018080       ?doSupport@?$SupportLocalImpl@VBoxV@Gu@physx@@@Gu@physx@@UEBAXAEBT__m128@@AEAT4@1@Z 0000000180019080 f i GuMTD.obj
 0001:000180d0       ??_GSupportLocal@Gu@physx@@UEAAPEAXI@Z 00000001800190d0 f i GuMTD.obj
 0001:000180d0       ??_ESupportLocal@Gu@physx@@UEAAPEAXI@Z 00000001800190d0 f i GuMTD.obj
 0001:00019ea0       ??$gjk@U?$LocalConvex@VCapsuleV@Gu@physx@@@Gu@physx@@U?$LocalConvex@VConvexHullV@Gu@physx@@@23@@Gu@physx@@YA?AW4GjkStatus@01@AEBU?$LocalConvex@VCapsuleV@Gu@physx@@@01@AEBU?$LocalConvex@VConvexHullV@Gu@physx@@@01@AEBT__m128@@2AEAT5@333@Z 000000018001aea0 f i GuMTD.obj
 0001:0001ac10       ??0MultiplePersistentContactManifold@Gu@physx@@QEAA@XZ 000000018001bc10 f i GuMTD.obj
 0001:0001ac60       ??0PolygonalBox@Gu@physx@@QEAA@AEBV012@@Z 000000018001bc60 f i GuMTD.obj
 0001:0001aee0       ??0SeparatingAxes@Gu@physx@@QEAA@$$QEAV012@@Z 000000018001bee0 f i GuMTD.obj
 0001:0001aee0       ??0SeparatingAxes@Gu@physx@@QEAA@AEBV012@@Z 000000018001bee0 f i GuMTD.obj
 0001:0001aff0       ??0SeparatingAxes@Gu@physx@@QEAA@XZ 000000018001bff0 f i GuMTD.obj
 0001:0001b000       ??4MultiplePersistentContactManifold@Gu@physx@@QEAAAEAV012@$$QEAV012@@Z 000000018001c000 f i GuMTD.obj
 0001:0001b310       ??4MultiplePersistentContactManifold@Gu@physx@@QEAAAEAV012@AEBV012@@Z 000000018001c310 f i GuMTD.obj
 0001:0001b330       ??4SeparatingAxes@Gu@physx@@QEAAAEAV012@AEBV012@@Z 000000018001c330 f i GuMTD.obj
 0001:0001b330       ??4SeparatingAxes@Gu@physx@@QEAAAEAV012@$$QEAV012@@Z 000000018001c330 f i GuMTD.obj
 0001:0001b440       ??_EGjkConvexBase@Gu@physx@@UEAAPEAXI@Z 000000018001c440 f i GuMTD.obj
 0001:0001b440       ??_E?$LocalConvex@VConvexHullNoScaleV@Gu@physx@@@Gu@physx@@UEAAPEAXI@Z 000000018001c440 f i GuPCMContactBoxConvex.obj
 0001:0001b440       ??_E?$LocalConvex@VTriangleV@Gu@physx@@@Gu@physx@@UEAAPEAXI@Z 000000018001c440 f i GuSweepTests.obj
 0001:0001b440       ??_GGjkConvexBase@Gu@physx@@UEAAPEAXI@Z 000000018001c440 f i GuMTD.obj
 0001:0001b440       ??_G?$LocalConvex@VCapsuleV@Gu@physx@@@Gu@physx@@UEAAPEAXI@Z 000000018001c440 f i GuMTD.obj
 0001:0001b440       ??_E?$LocalConvex@VBoxV@Gu@physx@@@Gu@physx@@UEAAPEAXI@Z 000000018001c440 f i GuSweepTests.obj
 0001:0001b440       ??_G?$LocalConvex@VConvexHullNoScaleV@Gu@physx@@@Gu@physx@@UEAAPEAXI@Z 000000018001c440 f i GuPCMContactBoxConvex.obj
 0001:0001b440       ??_G?$LocalConvex@VConvexHullV@Gu@physx@@@Gu@physx@@UEAAPEAXI@Z 000000018001c440 f i GuMTD.obj
 0001:0001b440       ??_G?$LocalConvex@VBoxV@Gu@physx@@@Gu@physx@@UEAAPEAXI@Z 000000018001c440 f i GuSweepTests.obj
 0001:0001b440       ??_E?$LocalConvex@VCapsuleV@Gu@physx@@@Gu@physx@@UEAAPEAXI@Z 000000018001c440 f i GuMTD.obj
 0001:0001b440       ??_E?$LocalConvex@VConvexHullV@Gu@physx@@@Gu@physx@@UEAAPEAXI@Z 000000018001c440 f i GuMTD.obj
 0001:0001b440       ??_G?$LocalConvex@VTriangleV@Gu@physx@@@Gu@physx@@UEAAPEAXI@Z 000000018001c440 f i GuSweepTests.obj
 0001:0001bbd0       ?clearManifold@MultiplePersistentContactManifold@Gu@physx@@QEAAXXZ 000000018001cbd0 f i GuMTD.obj
 0001:0001f7d0       ?getAxes@SeparatingAxes@Gu@physx@@QEBAPEBVPxVec3@3@XZ 00000001800207d0 f i GuMTD.obj
 0001:0001f7e0       ?getCenter@?$LocalConvex@VConvexHullNoScaleV@Gu@physx@@@Gu@physx@@UEBA?AT__m128@@XZ 00000001800207e0 f i GuPCMContactBoxConvex.obj
 0001:0001f7e0       ?getCenter@?$LocalConvex@VConvexHullV@Gu@physx@@@Gu@physx@@UEBA?AT__m128@@XZ 00000001800207e0 f i GuMTD.obj
 0001:0001f7e0       ?getCenter@?$LocalConvex@VTriangleV@Gu@physx@@@Gu@physx@@UEBA?AT__m128@@XZ 00000001800207e0 f i GuSweepTests.obj
 0001:0001f7e0       ?getCenter@?$LocalConvex@VBoxV@Gu@physx@@@Gu@physx@@UEBA?AT__m128@@XZ 00000001800207e0 f i GuSweepTests.obj
 0001:0001f7e0       ?getCenter@?$LocalConvex@VCapsuleV@Gu@physx@@@Gu@physx@@UEBA?AT__m128@@XZ 00000001800207e0 f i GuMTD.obj
 0001:0001f7f0       ?getEmptyManifold@MultiplePersistentContactManifold@Gu@physx@@QEAAPEAVSinglePersistentContactManifold@23@XZ 00000001800207f0 f i GuMTD.obj
 0001:0001f810       ?getManifold@MultiplePersistentContactManifold@Gu@physx@@QEAAPEAVSinglePersistentContactManifold@23@I@Z 0000000180020810 f i GuMTD.obj
 0001:0001f830       ?getSweepMargin@?$LocalConvex@VCapsuleV@Gu@physx@@@Gu@physx@@UEBA?AT__m128@@XZ 0000000180020830 f i GuMTD.obj
 0001:0001f830       ?getSweepMargin@?$RelativeConvex@VCapsuleV@Gu@physx@@@Gu@physx@@UEBA?AT__m128@@XZ 0000000180020830 f i GuCCDSweepPrimitives.obj
 0001:0001f840       ?getSweepMargin@?$RelativeConvex@VConvexHullV@Gu@physx@@@Gu@physx@@UEBA?AT__m128@@XZ 0000000180020840 f i GuOverlapTests.obj
 0001:0001f840       ?getSweepMargin@?$LocalConvex@VConvexHullNoScaleV@Gu@physx@@@Gu@physx@@UEBA?AT__m128@@XZ 0000000180020840 f i GuPCMContactBoxConvex.obj
 0001:0001f840       ?getSweepMargin@?$LocalConvex@VConvexHullV@Gu@physx@@@Gu@physx@@UEBA?AT__m128@@XZ 0000000180020840 f i GuMTD.obj
 0001:0001f840       ?getSweepMargin@?$LocalConvex@VBoxV@Gu@physx@@@Gu@physx@@UEBA?AT__m128@@XZ 0000000180020840 f i GuSweepTests.obj
 0001:0001f840       ?getSweepMargin@?$RelativeConvex@VBoxV@Gu@physx@@@Gu@physx@@UEBA?AT__m128@@XZ 0000000180020840 f i GuOverlapTests.obj
 0001:0001f840       ?getSweepMargin@?$RelativeConvex@VConvexHullNoScaleV@Gu@physx@@@Gu@physx@@UEBA?AT__m128@@XZ 0000000180020840 f i GuPCMContactConvexConvex.obj
 0001:0001f860       ?hillClimbing@ConvexHullV@Gu@physx@@QEBAIAEBT__m128@@@Z 0000000180020860 f i GuMTD.obj
 0001:0001fa90       ?initialize@MultiplePersistentContactManifold@Gu@physx@@QEAAXXZ 0000000180020a90 f i GuMTD.obj
 0001:0001faf0       ?invalidate@MultiplePersistentContactManifold@Gu@physx@@QEAAIAEBVPsTransformV@aos@shdfnd@3@AEBT__m128@@1@Z 0000000180020af0 f i GuMTD.obj
 0001:0001fb70       ?invalidate@MultiplePersistentContactManifold@Gu@physx@@QEAAIAEBVPsTransformV@aos@shdfnd@3@AEBT__m128@@@Z 0000000180020b70 f i GuMTD.obj
 0001:0001fbf0       ?maxTransformPositionDelta@MultiplePersistentContactManifold@Gu@physx@@QEAA?AT__m128@@AEBT4@@Z 0000000180020bf0 f i GuMTD.obj
 0001:0001fc30       ?maxTransformQuatDelta@MultiplePersistentContactManifold@Gu@physx@@QEAA?AT__m128@@AEBT4@@Z 0000000180020c30 f i GuMTD.obj
 0001:0001fc70       ?pointConvexDistance@@YA_NAEAVPxVec3@physx@@0AEAMAEBV12@PEBVConvexMesh@Gu@2@AEBVPxMeshScale@2@AEBVPxTransform@2@@Z 0000000180020c70 f   GuMTD.obj
 0001:00020a30       ?reduceManifoldContactsInDifferentPatches@MultiplePersistentContactManifold@Gu@physx@@QEAAIPEAPEAUPCMContactPatch@23@IPEAVMeshPersistentContact@23@IAEBT__m128@@@Z 0000000180021a30 f i GuMTD.obj
 0001:00020b90       ?refineContactPatchConnective@MultiplePersistentContactManifold@Gu@physx@@QEAAXPEAPEAUPCMContactPatch@23@IPEAVMeshPersistentContact@23@AEBT__m128@@@Z 0000000180021b90 f i GuMTD.obj
 0001:00020c80       ?refreshManifold@MultiplePersistentContactManifold@Gu@physx@@QEAAXAEBVPsMatTransformV@aos@shdfnd@3@AEBT__m128@@1@Z 0000000180021c80 f i GuMTD.obj
 0001:00020d80       ?reset@SeparatingAxes@Gu@physx@@QEAAXXZ 0000000180021d80 f i GuMTD.obj
 0001:00020d90       ?setRelativeTransform@MultiplePersistentContactManifold@Gu@physx@@QEAAXAEBVPsTransformV@aos@shdfnd@3@@Z 0000000180021d90 f i GuMTD.obj
 0001:00020da0       ?support@?$LocalConvex@VCapsuleV@Gu@physx@@@Gu@physx@@UEBA?AT__m128@@AEBT4@@Z 0000000180021da0 f i GuMTD.obj
 0001:00020e00       ?support@?$LocalConvex@VCapsuleV@Gu@physx@@@Gu@physx@@UEBA?AT__m128@@AEBT4@AEAH@Z 0000000180021e00 f i GuMTD.obj
 0001:00020e70       ?support@?$LocalConvex@VConvexHullV@Gu@physx@@@Gu@physx@@UEBA?AT__m128@@AEBT4@@Z 0000000180021e70 f i GuMTD.obj
 0001:00020f50       ?support@?$LocalConvex@VConvexHullV@Gu@physx@@@Gu@physx@@UEBA?AT__m128@@AEBT4@AEAH@Z 0000000180021f50 f i GuMTD.obj
 0001:00021020       ?supportPoint@?$LocalConvex@VCapsuleV@Gu@physx@@@Gu@physx@@UEBA?AT__m128@@H@Z 0000000180022020 f i GuMTD.obj
 0001:00021050       ?supportPoint@?$LocalConvex@VConvexHullV@Gu@physx@@@Gu@physx@@UEBA?AT__m128@@H@Z 0000000180022050 f i GuMTD.obj
 0001:000210a0       ?supportVertexIndex@ConvexHullV@Gu@physx@@QEBAIAEBT__m128@@@Z 00000001800220a0 f i GuMTD.obj
 0001:00021320       ?toBuffer@MultiplePersistentContactManifold@Gu@physx@@QEAAXPEIAE@Z 0000000180022320 f i GuMTD.obj
 0001:00021400       ?supportPoint@?$RelativeConvex@VBoxV@Gu@physx@@@Gu@physx@@UEBA?AT__m128@@H@Z 0000000180022400 f i GuOverlapTests.obj
 0001:00021470       ?support@?$RelativeConvex@VBoxV@Gu@physx@@@Gu@physx@@UEBA?AT__m128@@AEBT4@@Z 0000000180022470 f i GuOverlapTests.obj
 0001:000214f0       ?support@?$RelativeConvex@VBoxV@Gu@physx@@@Gu@physx@@UEBA?AT__m128@@AEBT4@AEAH@Z 00000001800224f0 f i GuOverlapTests.obj
 0001:00021580       ?getCenter@?$RelativeConvex@VBoxV@Gu@physx@@@Gu@physx@@UEBA?AT__m128@@XZ 0000000180022580 f i GuOverlapTests.obj
 0001:00021580       ?getCenter@?$RelativeConvex@VTriangleV@Gu@physx@@@Gu@physx@@UEBA?AT__m128@@XZ 0000000180022580 f i GuCCDSweepPrimitives.obj
 0001:00021580       ?getCenter@?$RelativeConvex@VConvexHullV@Gu@physx@@@Gu@physx@@UEBA?AT__m128@@XZ 0000000180022580 f i GuOverlapTests.obj
 0001:00021580       ?getCenter@?$RelativeConvex@VCapsuleV@Gu@physx@@@Gu@physx@@UEBA?AT__m128@@XZ 0000000180022580 f i GuCCDSweepPrimitives.obj
 0001:00021580       ?getCenter@?$RelativeConvex@VConvexHullNoScaleV@Gu@physx@@@Gu@physx@@UEBA?AT__m128@@XZ 0000000180022580 f i GuPCMContactConvexConvex.obj
 0001:000215c0       ??_E?$RelativeConvex@VCapsuleV@Gu@physx@@@Gu@physx@@UEAAPEAXI@Z 00000001800225c0 f i GuCCDSweepPrimitives.obj
 0001:000215c0       ??_G?$RelativeConvex@VConvexHullNoScaleV@Gu@physx@@@Gu@physx@@UEAAPEAXI@Z 00000001800225c0 f i GuPCMContactConvexConvex.obj
 0001:000215c0       ??_G?$RelativeConvex@VConvexHullV@Gu@physx@@@Gu@physx@@UEAAPEAXI@Z 00000001800225c0 f i GuOverlapTests.obj
 0001:000215c0       ??_E?$RelativeConvex@VConvexHullNoScaleV@Gu@physx@@@Gu@physx@@UEAAPEAXI@Z 00000001800225c0 f i GuPCMContactConvexConvex.obj
 0001:000215c0       ??_E?$RelativeConvex@VTriangleV@Gu@physx@@@Gu@physx@@UEAAPEAXI@Z 00000001800225c0 f i GuCCDSweepPrimitives.obj
 0001:000215c0       ??_G?$RelativeConvex@VTriangleV@Gu@physx@@@Gu@physx@@UEAAPEAXI@Z 00000001800225c0 f i GuCCDSweepPrimitives.obj
 0001:000215c0       ??_E?$RelativeConvex@VConvexHullV@Gu@physx@@@Gu@physx@@UEAAPEAXI@Z 00000001800225c0 f i GuOverlapTests.obj
 0001:000215c0       ??_E?$RelativeConvex@VBoxV@Gu@physx@@@Gu@physx@@UEAAPEAXI@Z 00000001800225c0 f i GuOverlapTests.obj
 0001:000215c0       ??_G?$RelativeConvex@VBoxV@Gu@physx@@@Gu@physx@@UEAAPEAXI@Z 00000001800225c0 f i GuOverlapTests.obj
 0001:000215c0       ??_G?$RelativeConvex@VCapsuleV@Gu@physx@@@Gu@physx@@UEAAPEAXI@Z 00000001800225c0 f i GuCCDSweepPrimitives.obj
 0001:00023780       ?supportPoint@?$RelativeConvex@VConvexHullV@Gu@physx@@@Gu@physx@@UEBA?AT__m128@@H@Z 0000000180024780 f i GuOverlapTests.obj
 0001:00023800       ?support@?$RelativeConvex@VConvexHullV@Gu@physx@@@Gu@physx@@UEBA?AT__m128@@AEBT4@@Z 0000000180024800 f i GuOverlapTests.obj
 0001:00023930       ?support@?$RelativeConvex@VConvexHullV@Gu@physx@@@Gu@physx@@UEBA?AT__m128@@AEBT4@AEAH@Z 0000000180024930 f i GuOverlapTests.obj
 0001:00023a90       ??$gjk@U?$RelativeConvex@VBoxV@Gu@physx@@@Gu@physx@@U?$LocalConvex@VConvexHullV@Gu@physx@@@23@@Gu@physx@@YA?AW4GjkStatus@01@AEBU?$RelativeConvex@VBoxV@Gu@physx@@@01@AEBU?$LocalConvex@VConvexHullV@Gu@physx@@@01@AEBT__m128@@2AEAT5@333@Z 0000000180024a90 f i GuOverlapTests.obj
 0001:00024850       ??$gjk@U?$RelativeConvex@VConvexHullV@Gu@physx@@@Gu@physx@@U?$LocalConvex@VConvexHullV@Gu@physx@@@23@@Gu@physx@@YA?AW4GjkStatus@01@AEBU?$RelativeConvex@VConvexHullV@Gu@physx@@@01@AEBU?$LocalConvex@VConvexHullV@Gu@physx@@@01@AEBT__m128@@2AEAT5@333@Z 0000000180025850 f i GuOverlapTests.obj
 0001:000256e0       ?ComputeCubemapNearestOffset@physx@@YAIAEBVPxVec3@1@I@Z 00000001800266e0 f i GuOverlapTests.obj
 0001:000257e0       ?getOverlapFuncTable@Gu@physx@@YAPEAY06Q6A_NAEBVPxGeometry@2@AEBVPxTransform@2@01PEAUTriggerCache@12@@ZXZ 00000001800267e0 f   GuOverlapTests.obj
 0001:00027270       ?registerHeightFields@Gu@physx@@YAXXZ 0000000180028270 f   GuOverlapTests.obj
 0001:000272c0       ?raycast_box@@YAIAEBVPxGeometry@physx@@AEBVPxTransform@2@AEBVPxVec3@2@2MV?$PxFlags@W4Enum@PxHitFlag@physx@@G@2@IPEIAUPxRaycastHit@2@@Z 00000001800282c0 f   GuRaycastTests.obj
 0001:000278f0       ?raycast_sphere@@YAIAEBVPxGeometry@physx@@AEBVPxTransform@2@AEBVPxVec3@2@2MV?$PxFlags@W4Enum@PxHitFlag@physx@@G@2@IPEIAUPxRaycastHit@2@@Z 00000001800288f0 f   GuRaycastTests.obj
 0001:00027a80       ?raycast_capsule@@YAIAEBVPxGeometry@physx@@AEBVPxTransform@2@AEBVPxVec3@2@2MV?$PxFlags@W4Enum@PxHitFlag@physx@@G@2@IPEIAUPxRaycastHit@2@@Z 0000000180028a80 f   GuRaycastTests.obj
 0001:00027fe0       ?raycast_plane@@YAIAEBVPxGeometry@physx@@AEBVPxTransform@2@AEBVPxVec3@2@2MV?$PxFlags@W4Enum@PxHitFlag@physx@@G@2@IPEIAUPxRaycastHit@2@@Z 0000000180028fe0 f   GuRaycastTests.obj
 0001:00028150       ?raycast_convexMesh@@YAIAEBVPxGeometry@physx@@AEBVPxTransform@2@AEBVPxVec3@2@2MV?$PxFlags@W4Enum@PxHitFlag@physx@@G@2@IPEIAUPxRaycastHit@2@@Z 0000000180029150 f   GuRaycastTests.obj
 0001:00028c80       ?raycast_triangleMesh@@YAIAEBVPxGeometry@physx@@AEBVPxTransform@2@AEBVPxVec3@2@2MV?$PxFlags@W4Enum@PxHitFlag@physx@@G@2@IPEIAUPxRaycastHit@2@@Z 0000000180029c80 f   GuRaycastTests.obj
 0001:00029fa0       ??Dphysx@@YA?AVMatrix34@Cm@0@AEBVPxMeshScale@0@AEBVPxTransform@0@@Z 000000018002afa0 f i GuRaycastTests.obj
 0001:0002abe0       ?getRaycastFuncTable@Gu@physx@@YAAEAY06Q6AIAEBVPxGeometry@2@AEBVPxTransform@2@AEBVPxVec3@2@2MV?$PxFlags@W4Enum@PxHitFlag@physx@@G@2@IPEIAUPxRaycastHit@2@@ZXZ 000000018002bbe0 f   GuRaycastTests.obj
 0001:0002abf0       ?raycast_heightField@@YAIAEBVPxGeometry@physx@@AEBVPxTransform@2@AEBVPxVec3@2@2MV?$PxFlags@W4Enum@PxHitFlag@physx@@G@2@IPEIAUPxRaycastHit@2@@Z 000000018002bbf0 f   GuRaycastTests.obj
 0001:0002b330       ?registerHeightFields_Raycasts@@YAXXZ 000000018002c330 f   GuRaycastTests.obj
 0001:0002b340       ?ReadHeader@Gu@physx@@YA_NEEEEAEAIAEA_NAEAVPxInputStream@2@@Z 000000018002c340 f   GuSerialize.obj
 0001:0002b4a0       ?ReadIndices@Gu@physx@@YAXGIPEAGAEAVPxInputStream@2@_N@Z 000000018002c4a0 f   GuSerialize.obj
 0001:0002b5f0       ?StoreIndices@Gu@physx@@YAXGIPEBGAEAVPxOutputStream@2@_N@Z 000000018002c5f0 f   GuSerialize.obj
 0001:0002b6b0       ?StoreIndices@Gu@physx@@YAXIIPEBIAEAVPxOutputStream@2@_N@Z 000000018002c6b0 f   GuSerialize.obj
 0001:0002b7d0       ?WriteHeader@Gu@physx@@YA_NEEEEI_NAEAVPxOutputStream@2@@Z 000000018002c7d0 f   GuSerialize.obj
 0001:0002b900       ?computeMaxIndex@physx@@YAGPEBGI@Z 000000018002c900 f   GuSerialize.obj
 0001:0002b930       ?computeMaxIndex@physx@@YAIPEBII@Z 000000018002c930 f   GuSerialize.obj
 0001:0002b960       ?readChunk@physx@@YAXAEAC000AEAVPxInputStream@1@@Z 000000018002c960 f   GuSerialize.obj
 0001:0002b9e0       ?readDword@physx@@YAI_NAEAVPxInputStream@1@@Z 000000018002c9e0 f   GuSerialize.obj
 0001:0002ba40       ?readFloat@physx@@YAM_NAEAVPxInputStream@1@@Z 000000018002ca40 f   GuSerialize.obj
 0001:0002baa0       ?readFloatBuffer@physx@@YA_NPEAMI_NAEAVPxInputStream@1@@Z 000000018002caa0 f   GuSerialize.obj
 0001:0002bb20       ?readHeader@physx@@YA_NCCCCAEAIAEA_NAEAVPxInputStream@1@@Z 000000018002cb20 f   GuSerialize.obj
 0001:0002bc70       ?readIndices@physx@@YAXIIPEAIAEAVPxInputStream@1@_N@Z 000000018002cc70 f   GuSerialize.obj
 0001:0002bd60       ?readWord@physx@@YAG_NAEAVPxInputStream@1@@Z 000000018002cd60 f   GuSerialize.obj
 0001:0002bda0       ?readWordBuffer@physx@@YAXPEAGI_NAEAVPxInputStream@1@@Z 000000018002cda0 f   GuSerialize.obj
 0001:0002be10       ?storeIndices@physx@@YAXIIPEBIAEAVPxOutputStream@1@_N@Z 000000018002ce10 f   GuSerialize.obj
 0001:0002bf00       ?writeDword@physx@@YAXI_NAEAVPxOutputStream@1@@Z 000000018002cf00 f   GuSerialize.obj
 0001:0002bf50       ?writeFloat@physx@@YAXM_NAEAVPxOutputStream@1@@Z 000000018002cf50 f   GuSerialize.obj
 0001:0002bfa0       ?writeFloatBuffer@physx@@YAXPEBMI_NAEAVPxOutputStream@1@@Z 000000018002cfa0 f   GuSerialize.obj
 0001:0002c040       ?writeHeader@physx@@YA_NCCCCI_NAEAVPxOutputStream@1@@Z 000000018002d040 f   GuSerialize.obj
 0001:0002c170       ?writeWord@physx@@YAXG_NAEAVPxOutputStream@1@@Z 000000018002d170 f   GuSerialize.obj
 0001:0002c1b0       ?writeWordBuffer@physx@@YAXPEBGI_NAEAVPxOutputStream@1@@Z 000000018002d1b0 f   GuSerialize.obj
 0001:0002c230       ??Dphysx@@YA?AVMatrix34@Cm@0@AEBVPxTransform@0@AEBVPxMeshScale@0@@Z 000000018002d230 f i GuSweepMTD.obj
 0001:0002c880       ??_G?$MeshHitCallback@UPxRaycastHit@physx@@@Gu@physx@@UEAAPEAXI@Z 000000018002d880 f i GuSweepMTD.obj
 0001:0002c880       ??_E?$MeshHitCallback@UPxRaycastHit@physx@@@Gu@physx@@UEAAPEAXI@Z 000000018002d880 f i GuSweepMTD.obj
 0001:0002c8b0       ??_GMeshMTDGenerationCallback@@UEAAPEAXI@Z 000000018002d8b0 f i GuSweepMTD.obj
 0001:0002c8b0       ??_EMeshMTDGenerationCallback@@UEAAPEAXI@Z 000000018002d8b0 f i GuSweepMTD.obj
 0001:0002c8e0       ??_GMidPhaseQueryLocalReport@@UEAAPEAXI@Z 000000018002d8e0 f i GuSweepMTD.obj
 0001:0002c8e0       ??_EMidPhaseQueryLocalReport@@UEAAPEAXI@Z 000000018002d8e0 f i GuSweepMTD.obj
 0001:0002c910       ?allocate@?$ReflectionAllocator@I@shdfnd@physx@@QEAAPEAX_KPEBDH@Z 000000018002d910 f i GuSweepMTD.obj
 0001:0002c9b0       ?computeBox_HeightFieldMTD@Gu@physx@@YA_NAEBVPxHeightFieldGeometry@2@AEBVPxTransform@2@AEBVBox@12@1M_NIAEAUPxSweepHit@2@@Z 000000018002d9b0 f   GuSweepMTD.obj
 0001:0002d830       ?computeBox_TriangleMeshMTD@Gu@physx@@YA_NAEBVPxTriangleMeshGeometry@2@AEBVPxTransform@2@AEBVBox@12@1M_NAEAUPxSweepHit@2@@Z 000000018002e830 f   GuSweepMTD.obj
 0001:0002e470       ?computeCapsule_CapsuleMTD@Gu@physx@@YA_NAEBVCapsule@12@0AEAUPxSweepHit@2@@Z 000000018002f470 f   GuSweepMTD.obj
 0001:0002e6b0       ?computeCapsule_HeightFieldMTD@Gu@physx@@YA_NAEBVPxHeightFieldGeometry@2@AEBVPxTransform@2@AEAVCapsuleV@12@M_NIAEAUPxSweepHit@2@@Z 000000018002f6b0 f   GuSweepMTD.obj
 0001:0002eec0       ?computeCapsule_TriangleMeshMTD@Gu@physx@@YA_NAEBVPxTriangleMeshGeometry@2@AEBVPxTransform@2@AEAVCapsuleV@12@M_NAEAUPxSweepHit@2@@Z 000000018002fec0 f   GuSweepMTD.obj
 0001:0002f760       ?computeConvex_HeightFieldMTD@Gu@physx@@YA_NAEBVPxHeightFieldGeometry@2@AEBVPxTransform@2@AEBVPxConvexMeshGeometry@2@1M_NIAEAUPxSweepHit@2@@Z 0000000180030760 f   GuSweepMTD.obj
 0001:00030ad0       ?computeConvex_TriangleMeshMTD@Gu@physx@@YA_NAEBVPxTriangleMeshGeometry@2@AEBVPxTransform@2@AEBVPxConvexMeshGeometry@2@1M_NAEAUPxSweepHit@2@@Z 0000000180031ad0 f   GuSweepMTD.obj
 0001:00031d00       ?computePlane_BoxMTD@Gu@physx@@YA_NAEBVPxPlane@2@AEBVBox@12@AEAUPxSweepHit@2@@Z 0000000180032d00 f   GuSweepMTD.obj
 0001:00032030       ?computePlane_CapsuleMTD@Gu@physx@@YA_NAEBVPxPlane@2@AEBVCapsule@12@AEAUPxSweepHit@2@@Z 0000000180033030 f   GuSweepMTD.obj
 0001:00032150       ?computePlane_ConvexMTD@Gu@physx@@YA_NAEBVPxPlane@2@AEBVPxConvexMeshGeometry@2@AEBVPxTransform@2@AEAUPxSweepHit@2@@Z 0000000180033150 f   GuSweepMTD.obj
 0001:00032cc0       ?computeSphere_CapsuleMTD@Gu@physx@@YA_NAEBVSphere@12@AEBVCapsule@12@AEAUPxSweepHit@2@@Z 0000000180033cc0 f   GuSweepMTD.obj
 0001:00032e70       ?computeSphere_SphereMTD@Gu@physx@@YA_NAEBVSphere@12@0AEAUPxSweepHit@2@@Z 0000000180033e70 f   GuSweepMTD.obj
 0001:00032f60       ?getInverse@PxMat33@physx@@QEBA?BV12@XZ 0000000180033f60 f i GuSweepMTD.obj
 0001:000331b0       ?growAndPushBack@?$Array@IV?$ReflectionAllocator@I@shdfnd@physx@@@shdfnd@physx@@IEAAAEAIAEBI@Z 00000001800341b0 f i GuSweepMTD.obj
 0001:00033280       ?init@FastVertex2ShapeScaling@Cm@physx@@QEAAXAEBVPxVec3@3@AEBVPxQuat@3@@Z 0000000180034280 f i GuSweepMTD.obj
 0001:00033660       ?onEvent@MidPhaseQueryLocalReport@@UEAA_NIPEAI@Z 0000000180034660 f i GuSweepMTD.obj
 0001:000336d0       ?processHit@MeshMTDGenerationCallback@@UEAA_NAEBUPxRaycastHit@physx@@AEBVPxVec3@3@11AEAMPEBI@Z 00000001800346d0 f i GuSweepMTD.obj
 0001:00033720       ?recreate@?$Array@IV?$ReflectionAllocator@I@shdfnd@physx@@@shdfnd@physx@@IEAAXI@Z 0000000180034720 f i GuSweepMTD.obj
 0001:000337e0       ??$gjkPenetration@U?$LocalConvex@VCapsuleV@Gu@physx@@@Gu@physx@@U?$LocalConvex@VConvexHullV@Gu@physx@@@23@@Gu@physx@@YA?AW4GjkStatus@01@AEBU?$LocalConvex@VCapsuleV@Gu@physx@@@01@AEBU?$LocalConvex@VConvexHullV@Gu@physx@@@01@AEBT__m128@@2_NPEIAE4AEAEAEAUGjkOutput@01@@Z 00000001800347e0 f i GuSweepSharedTests.obj
 0001:00034db0       ??$gjkPenetration@U?$RelativeConvex@VBoxV@Gu@physx@@@Gu@physx@@U?$LocalConvex@VConvexHullV@Gu@physx@@@23@@Gu@physx@@YA?AW4GjkStatus@01@AEBU?$RelativeConvex@VBoxV@Gu@physx@@@01@AEBU?$LocalConvex@VConvexHullV@Gu@physx@@@01@AEBT__m128@@2_NPEIAE4AEAEAEAUGjkOutput@01@@Z 0000000180035db0 f i GuSweepSharedTests.obj
 0001:000363a0       ??$gjkPenetration@U?$RelativeConvex@VConvexHullV@Gu@physx@@@Gu@physx@@U?$LocalConvex@VConvexHullV@Gu@physx@@@23@@Gu@physx@@YA?AW4GjkStatus@01@AEBU?$RelativeConvex@VConvexHullV@Gu@physx@@@01@AEBU?$LocalConvex@VConvexHullV@Gu@physx@@@01@AEBT__m128@@2_NPEIAE4AEAEAEAUGjkOutput@01@@Z 00000001800373a0 f i GuSweepSharedTests.obj
 0001:00037a00       ??$gjkRaycast@U?$LocalConvex@VCapsuleV@Gu@physx@@@Gu@physx@@U?$LocalConvex@VConvexHullV@Gu@physx@@@23@@Gu@physx@@YA_NAEBU?$LocalConvex@VCapsuleV@Gu@physx@@@01@AEBU?$LocalConvex@VConvexHullV@Gu@physx@@@01@AEBT__m128@@222AEAT4@33M@Z 0000000180038a00 f i GuSweepSharedTests.obj
 0001:00038750       ??$gjkRaycast@U?$RelativeConvex@VBoxV@Gu@physx@@@Gu@physx@@U?$LocalConvex@VConvexHullV@Gu@physx@@@23@@Gu@physx@@YA_NAEBU?$RelativeConvex@VBoxV@Gu@physx@@@01@AEBU?$LocalConvex@VConvexHullV@Gu@physx@@@01@AEBT__m128@@222AEAT4@33M@Z 0000000180039750 f i GuSweepSharedTests.obj
 0001:00039510       ??$gjkRaycast@U?$RelativeConvex@VConvexHullV@Gu@physx@@@Gu@physx@@U?$LocalConvex@VConvexHullV@Gu@physx@@@23@@Gu@physx@@YA_NAEBU?$RelativeConvex@VConvexHullV@Gu@physx@@@01@AEBU?$LocalConvex@VConvexHullV@Gu@physx@@@01@AEBT__m128@@222AEAT4@33M@Z 000000018003a510 f i GuSweepSharedTests.obj
 0001:0003a3a0       ??$gjkRaycastPenetration@U?$RelativeConvex@VConvexHullV@Gu@physx@@@Gu@physx@@U?$LocalConvex@VConvexHullV@Gu@physx@@@23@@Gu@physx@@YA_NAEBU?$RelativeConvex@VConvexHullV@Gu@physx@@@01@AEBU?$LocalConvex@VConvexHullV@Gu@physx@@@01@AEBT__m128@@222AEAT4@33M_N@Z 000000018003b3a0 f i GuSweepSharedTests.obj
 0001:0003afd0       ?sweepBox_ConvexGeom@@YA_NAEBVPxGeometry@physx@@AEBVPxTransform@2@AEBVPxBoxGeometry@2@1AEBVBox@Gu@2@AEBVPxVec3@2@MAEAUPxSweepHit@2@V?$PxFlags@W4Enum@PxHitFlag@physx@@G@2@M@Z 000000018003bfd0 f   GuSweepSharedTests.obj
 0001:0003bdf0       ?sweepBox_PlaneGeom@@YA_NAEBVPxGeometry@physx@@AEBVPxTransform@2@AEBVPxBoxGeometry@2@1AEBVBox@Gu@2@AEBVPxVec3@2@MAEAUPxSweepHit@2@V?$PxFlags@W4Enum@PxHitFlag@physx@@G@2@M@Z 000000018003cdf0 f   GuSweepSharedTests.obj
 0001:0003c290       ?sweepCapsuleTriangles@Gu@physx@@YA_NIPEBVPxTriangle@2@_NAEBVPxCapsuleGeometry@2@AEBVPxTransform@2@AEBVPxVec3@2@MAEAUPxSweepHit@2@PEBIMV?$PxFlags@W4Enum@PxHitFlag@physx@@G@2@@Z 000000018003d290 f   GuSweepSharedTests.obj
 0001:0003c480       ?sweepCapsule_CapsuleGeom@@YA_NAEBVPxGeometry@physx@@AEBVPxTransform@2@AEBVPxCapsuleGeometry@2@1AEBVCapsule@Gu@2@AEBVPxVec3@2@MAEAUPxSweepHit@2@V?$PxFlags@W4Enum@PxHitFlag@physx@@G@2@M@Z 000000018003d480 f   GuSweepSharedTests.obj
 0001:0003c660       ?sweepCapsule_ConvexGeom@@YA_NAEBVPxGeometry@physx@@AEBVPxTransform@2@AEBVPxCapsuleGeometry@2@1AEBVCapsule@Gu@2@AEBVPxVec3@2@MAEAUPxSweepHit@2@V?$PxFlags@W4Enum@PxHitFlag@physx@@G@2@M@Z 000000018003d660 f   GuSweepSharedTests.obj
 0001:0003d3f0       ?sweepCapsule_PlaneGeom@@YA_NAEBVPxGeometry@physx@@AEBVPxTransform@2@AEBVPxCapsuleGeometry@2@1AEBVCapsule@Gu@2@AEBVPxVec3@2@MAEAUPxSweepHit@2@V?$PxFlags@W4Enum@PxHitFlag@physx@@G@2@M@Z 000000018003e3f0 f   GuSweepSharedTests.obj
 0001:0003d6e0       ?sweepCapsule_SphereGeom@@YA_NAEBVPxGeometry@physx@@AEBVPxTransform@2@AEBVPxCapsuleGeometry@2@1AEBVCapsule@Gu@2@AEBVPxVec3@2@MAEAUPxSweepHit@2@V?$PxFlags@W4Enum@PxHitFlag@physx@@G@2@M@Z 000000018003e6e0 f   GuSweepSharedTests.obj
 0001:0003d870       ?sweepConvex_BoxGeom@@YA_NAEBVPxGeometry@physx@@AEBVPxTransform@2@AEBVPxConvexMeshGeometry@2@1AEBVPxVec3@2@MAEAUPxSweepHit@2@V?$PxFlags@W4Enum@PxHitFlag@physx@@G@2@M@Z 000000018003e870 f   GuSweepSharedTests.obj
 0001:0003da80       ?sweepConvex_CapsuleGeom@@YA_NAEBVPxGeometry@physx@@AEBVPxTransform@2@AEBVPxConvexMeshGeometry@2@1AEBVPxVec3@2@MAEAUPxSweepHit@2@V?$PxFlags@W4Enum@PxHitFlag@physx@@G@2@M@Z 000000018003ea80 f   GuSweepSharedTests.obj
 0001:0003dca0       ?sweepConvex_ConvexGeom@@YA_NAEBVPxGeometry@physx@@AEBVPxTransform@2@AEBVPxConvexMeshGeometry@2@1AEBVPxVec3@2@MAEAUPxSweepHit@2@V?$PxFlags@W4Enum@PxHitFlag@physx@@G@2@M@Z 000000018003eca0 f   GuSweepSharedTests.obj
 0001:0003ec40       ?sweepConvex_PlaneGeom@@YA_NAEBVPxGeometry@physx@@AEBVPxTransform@2@AEBVPxConvexMeshGeometry@2@1AEBVPxVec3@2@MAEAUPxSweepHit@2@V?$PxFlags@W4Enum@PxHitFlag@physx@@G@2@M@Z 000000018003fc40 f   GuSweepSharedTests.obj
 0001:0003f090       ?sweepConvex_SphereGeom@@YA_NAEBVPxGeometry@physx@@AEBVPxTransform@2@AEBVPxConvexMeshGeometry@2@1AEBVPxVec3@2@MAEAUPxSweepHit@2@V?$PxFlags@W4Enum@PxHitFlag@physx@@G@2@M@Z 0000000180040090 f   GuSweepSharedTests.obj
 0001:0003fcb0       ?sweepCapsule_BoxGeom@@YA_NAEBVPxGeometry@physx@@AEBVPxTransform@2@AEBVPxCapsuleGeometry@2@1AEBVCapsule@Gu@2@AEBVPxVec3@2@MAEAUPxSweepHit@2@V?$PxFlags@W4Enum@PxHitFlag@physx@@G@2@M@Z 0000000180040cb0 f   GuSweepTests.obj
 0001:000405a0       ?sweepBox_SphereGeom@@YA_NAEBVPxGeometry@physx@@AEBVPxTransform@2@AEBVPxBoxGeometry@2@1AEBVBox@Gu@2@AEBVPxVec3@2@MAEAUPxSweepHit@2@V?$PxFlags@W4Enum@PxHitFlag@physx@@G@2@M@Z 00000001800415a0 f   GuSweepTests.obj
 0001:00040c70       ?sweepBox_CapsuleGeom@@YA_NAEBVPxGeometry@physx@@AEBVPxTransform@2@AEBVPxBoxGeometry@2@1AEBVBox@Gu@2@AEBVPxVec3@2@MAEAUPxSweepHit@2@V?$PxFlags@W4Enum@PxHitFlag@physx@@G@2@M@Z 0000000180041c70 f   GuSweepTests.obj
 0001:00041570       ?sweepBox_BoxGeom@@YA_NAEBVPxGeometry@physx@@AEBVPxTransform@2@AEBVPxBoxGeometry@2@1AEBVBox@Gu@2@AEBVPxVec3@2@MAEAUPxSweepHit@2@V?$PxFlags@W4Enum@PxHitFlag@physx@@G@2@M@Z 0000000180042570 f   GuSweepTests.obj
 0001:00041f10       ??$gjkPenetration@U?$LocalConvex@VCapsuleV@Gu@physx@@@Gu@physx@@U?$LocalConvex@VBoxV@Gu@physx@@@23@@Gu@physx@@YA?AW4GjkStatus@01@AEBU?$LocalConvex@VCapsuleV@Gu@physx@@@01@AEBU?$LocalConvex@VBoxV@Gu@physx@@@01@AEBT__m128@@2_NPEIAE4AEAEAEAUGjkOutput@01@@Z 0000000180042f10 f i GuSweepTests.obj
 0001:00043430       ??$gjkPenetration@U?$RelativeConvex@VBoxV@Gu@physx@@@Gu@physx@@U?$LocalConvex@VBoxV@Gu@physx@@@23@@Gu@physx@@YA?AW4GjkStatus@01@AEBU?$RelativeConvex@VBoxV@Gu@physx@@@01@AEBU?$LocalConvex@VBoxV@Gu@physx@@@01@AEBT__m128@@2_NPEIAE4AEAEAEAUGjkOutput@01@@Z 0000000180044430 f i GuSweepTests.obj
 0001:00044970       ??$gjkRaycast@U?$LocalConvex@VCapsuleV@Gu@physx@@@Gu@physx@@U?$LocalConvex@VBoxV@Gu@physx@@@23@@Gu@physx@@YA_NAEBU?$LocalConvex@VCapsuleV@Gu@physx@@@01@AEBU?$LocalConvex@VBoxV@Gu@physx@@@01@AEBT__m128@@222AEAT4@33M@Z 0000000180045970 f i GuSweepTests.obj
 0001:00045550       ??$gjkRaycast@U?$LocalConvex@VTriangleV@Gu@physx@@@Gu@physx@@U?$LocalConvex@VBoxV@Gu@physx@@@23@@Gu@physx@@YA_NAEBU?$LocalConvex@VTriangleV@Gu@physx@@@01@AEBU?$LocalConvex@VBoxV@Gu@physx@@@01@AEBT__m128@@222AEAT4@33M@Z 0000000180046550 f i GuSweepTests.obj
 0001:000461a0       ??$gjkRaycast@U?$RelativeConvex@VBoxV@Gu@physx@@@Gu@physx@@U?$LocalConvex@VBoxV@Gu@physx@@@23@@Gu@physx@@YA_NAEBU?$RelativeConvex@VBoxV@Gu@physx@@@01@AEBU?$LocalConvex@VBoxV@Gu@physx@@@01@AEBT__m128@@222AEAT4@33M@Z 00000001800471a0 f i GuSweepTests.obj
 0001:00046de0       ?getSweepFuncTable@Gu@physx@@YAAEBUGeomSweepFuncs@12@XZ 0000000180047de0 f   GuSweepTests.obj
 0001:00046df0       ?getSweepMargin@?$RelativeConvex@VTriangleV@Gu@physx@@@Gu@physx@@UEBA?AT__m128@@XZ 0000000180047df0 f i GuCCDSweepPrimitives.obj
 0001:00046df0       ?getSweepMargin@?$LocalConvex@VTriangleV@Gu@physx@@@Gu@physx@@UEBA?AT__m128@@XZ 0000000180047df0 f i GuSweepTests.obj
 0001:00046e00       ?registerHeightFields_Sweeps@@YAXXZ 0000000180047e00 f   GuSweepTests.obj
 0001:00046e40       ?support@?$LocalConvex@VBoxV@Gu@physx@@@Gu@physx@@UEBA?AT__m128@@AEBT4@@Z 0000000180047e40 f i GuSweepTests.obj
 0001:00046e70       ?support@?$LocalConvex@VBoxV@Gu@physx@@@Gu@physx@@UEBA?AT__m128@@AEBT4@AEAH@Z 0000000180047e70 f i GuSweepTests.obj
 0001:00046eb0       ?support@?$LocalConvex@VTriangleV@Gu@physx@@@Gu@physx@@UEBA?AT__m128@@AEBT4@@Z 0000000180047eb0 f i GuSweepTests.obj
 0001:00046f40       ?support@?$LocalConvex@VTriangleV@Gu@physx@@@Gu@physx@@UEBA?AT__m128@@AEBT4@AEAH@Z 0000000180047f40 f i GuSweepTests.obj
 0001:00047020       ?supportPoint@?$LocalConvex@VBoxV@Gu@physx@@@Gu@physx@@UEBA?AT__m128@@H@Z 0000000180048020 f i GuSweepTests.obj
 0001:00047060       ?supportPoint@?$LocalConvex@VTriangleV@Gu@physx@@@Gu@physx@@UEBA?AT__m128@@H@Z 0000000180048060 f i GuSweepTests.obj
 0001:00047080       ?sweepBoxTriangles@Gu@physx@@YA_NIPEBVPxTriangle@2@_NAEBVPxBoxGeometry@2@AEBVPxTransform@2@AEBVPxVec3@2@MAEAUPxSweepHit@2@PEBIMV?$PxFlags@W4Enum@PxHitFlag@physx@@G@2@@Z 0000000180048080 f   GuSweepTests.obj
 0001:00047b00       ??$?_UV?$ReflectionAllocator@VAABBTreeBuildNode@Gu@physx@@@shdfnd@physx@@@UserAllocated@shdfnd@physx@@SAPEAX_KV?$ReflectionAllocator@VAABBTreeBuildNode@Gu@physx@@@12@PEBDH@Z 0000000180048b00 f i GuAABBTreeBuild.obj
 0001:00047ba0       ??$copy@V?$ReflectionAllocator@USlab@NodeAllocator@Gu@physx@@@shdfnd@physx@@@?$Array@USlab@NodeAllocator@Gu@physx@@V?$ReflectionAllocator@USlab@NodeAllocator@Gu@physx@@@shdfnd@4@@shdfnd@physx@@IEAAXAEBV012@@Z 0000000180048ba0 f i GuAABBTreeBuild.obj
 0001:00047c20       ??4AABBTreeBuildNode@Gu@physx@@QEAAAEAV012@AEBV012@@Z 0000000180048c20 f i GuAABBTreeBuild.obj
 0001:00047c20       ??0AABBTreeBuildNode@Gu@physx@@QEAA@AEBV012@@Z 0000000180048c20 f i GuAABBTreeBuild.obj
 0001:00047c60       ??0AABBTreeBuildParams@Gu@physx@@QEAA@IIPEBVPxBounds3@2@@Z 0000000180048c60 f i GuAABBTreeBuild.obj
 0001:00047c80       ??0BuildStats@Gu@physx@@QEAA@XZ 0000000180048c80 f i GuAABBTreeBuild.obj
 0001:00047c90       ??0NodeAllocator@Gu@physx@@QEAA@AEBV012@@Z 0000000180048c90 f i GuAABBTreeBuild.obj
 0001:00047cd0       ??0NodeAllocator@Gu@physx@@QEAA@XZ 0000000180048cd0 f   GuAABBTreeBuild.obj
 0001:00047cf0       ??1AABBTreeBuildParams@Gu@physx@@QEAA@XZ 0000000180048cf0 f i GuAABBTreeBuild.obj
 0001:00047cf0       ?reset@AABBTreeBuildParams@Gu@physx@@QEAAXXZ 0000000180048cf0 f i GuAABBTreeBuild.obj
 0001:00047d50       ??1NodeAllocator@Gu@physx@@QEAA@XZ 0000000180048d50 f   GuAABBTreeBuild.obj
 0001:00047da0       ??4AABBTreeBuildParams@Gu@physx@@QEAAAEAV012@AEBV012@@Z 0000000180048da0 f i GuAABBTreeBuild.obj
 0001:00047dc0       ??4BuildStats@Gu@physx@@QEAAAEAU012@$$QEAU012@@Z 0000000180048dc0 f i GuAABBTreeBuild.obj
 0001:00047dd0       ??4BuildStats@Gu@physx@@QEAAAEAU012@AEBU012@@Z 0000000180048dd0 f i GuAABBTreeBuild.obj
 0001:00047de0       ??4NodeAllocator@Gu@physx@@QEAAAEAV012@AEBV012@@Z 0000000180048de0 f i GuAABBTreeBuild.obj
 0001:00047e90       ??_FAABBTreeBuildParams@Gu@physx@@QEAAXXZ 0000000180048e90 f i GuAABBTreeBuild.obj
 0001:00047eb0       ?_buildHierarchy@AABBTreeBuildNode@Gu@physx@@QEAAXAEAVAABBTreeBuildParams@23@AEAUBuildStats@23@AEAVNodeAllocator@23@QEAI@Z 0000000180048eb0 f   GuAABBTreeBuild.obj
 0001:00047f40       ?allocate@?$Array@USlab@NodeAllocator@Gu@physx@@V?$ReflectionAllocator@USlab@NodeAllocator@Gu@physx@@@shdfnd@4@@shdfnd@physx@@IEAAPEAUSlab@NodeAllocator@Gu@3@I@Z 0000000180048f40 f i GuAABBTreeBuild.obj
 0001:00047fe0       ?buildAABBTree@Gu@physx@@YA_NAEAVAABBTreeBuildParams@12@AEAVNodeAllocator@12@AEAUBuildStats@12@AEAPEAI@Z 0000000180048fe0 f   GuAABBTreeBuild.obj
 0001:00048040       ?getBiNode@NodeAllocator@Gu@physx@@QEAAPEAVAABBTreeBuildNode@23@XZ 0000000180049040 f   GuAABBTreeBuild.obj
 0001:00048170       ?getNbPrimitives@AABBTreeBuildNode@Gu@physx@@QEBAIXZ 0000000180049170 f i GuAABBTreeBuild.obj
 0001:00048170       ?getNbTriangles@TriangleMesh@Gu@physx@@UEBAIXZ 0000000180049170 f i GuTriangleMesh.obj
 0001:00048170       ?getNbRuntimePrimitives@AABBTreeBuildNode@Gu@physx@@QEBAIXZ 0000000180049170 f i GuAABBTreeBuild.obj
 0001:00048180       ?getNeg@AABBTreeBuildNode@Gu@physx@@QEBAPEBV123@XZ 0000000180049180 f i GuAABBTreeBuild.obj
 0001:000481a0       ?getPrimitives@AABBTreeBuildNode@Gu@physx@@QEAAPEAIPEAI@Z 00000001800491a0 f i GuAABBTreeBuild.obj
 0001:000481a0       ?getPrimitives@AABBTreeBuildNode@Gu@physx@@QEBAPEBIPEBI@Z 00000001800491a0 f i GuAABBTreeBuild.obj
 0001:000481b0       ?growAndPushBack@?$Array@USlab@NodeAllocator@Gu@physx@@V?$ReflectionAllocator@USlab@NodeAllocator@Gu@physx@@@shdfnd@4@@shdfnd@physx@@IEAAAEAUSlab@NodeAllocator@Gu@3@AEBU4563@@Z 00000001800491b0 f i GuAABBTreeBuild.obj
 0001:00048270       ?increaseCount@BuildStats@Gu@physx@@QEAAXI@Z 0000000180049270 f i GuAABBTreeBuild.obj
 0001:00048280       ?init@NodeAllocator@Gu@physx@@QEAAXII@Z 0000000180049280 f   GuAABBTreeBuild.obj
 0001:00048390       ?initAABBTreeBuild@Gu@physx@@YA_NAEAVAABBTreeBuildParams@12@AEAVNodeAllocator@12@AEAUBuildStats@12@AEAPEAI@Z 0000000180049390 f   GuAABBTreeBuild.obj
 0001:000485a0       ?isLeaf@AABBTreeBuildNode@Gu@physx@@QEBA_NXZ 00000001800495a0 f i GuAABBTreeBuild.obj
 0001:000485b0       ?recreate@?$Array@USlab@NodeAllocator@Gu@physx@@V?$ReflectionAllocator@USlab@NodeAllocator@Gu@physx@@@shdfnd@4@@shdfnd@physx@@IEAAXI@Z 00000001800495b0 f i GuAABBTreeBuild.obj
 0001:00048660       ?release@NodeAllocator@Gu@physx@@QEAAXXZ 0000000180049660 f   GuAABBTreeBuild.obj
 0001:00048710       ?reset@BuildStats@Gu@physx@@QEAAXXZ 0000000180049710 f i GuAABBTreeBuild.obj
 0001:00048720       ?resize@?$Array@USlab@NodeAllocator@Gu@physx@@V?$ReflectionAllocator@USlab@NodeAllocator@Gu@physx@@@shdfnd@4@@shdfnd@physx@@QEAAXIAEBUSlab@NodeAllocator@Gu@3@@Z 0000000180049720 f i GuAABBTreeBuild.obj
 0001:000487a0       ?setCount@BuildStats@Gu@physx@@QEAAXI@Z 00000001800497a0 f i GuAABBTreeBuild.obj
 0001:000487b0       ?setNbRunTimePrimitives@AABBTreeBuildNode@Gu@physx@@QEAAXI@Z 00000001800497b0 f i GuAABBTreeBuild.obj
 0001:00048920       ?subdivide@AABBTreeBuildNode@Gu@physx@@QEAAXAEBVAABBTreeBuildParams@23@AEAUBuildStats@23@AEAVNodeAllocator@23@QEAI@Z 0000000180049920 f   GuAABBTreeBuild.obj
 0001:00048b00       ??0BVHStructure@Gu@physx@@QEAA@PEAVGuMeshFactory@2@@Z 0000000180049b00 f   GuBVHStructure.obj
 0001:00048b60       ??0BVHStructure@Gu@physx@@QEAA@PEAVGuMeshFactory@2@AEAUBVHStructureData@12@@Z 0000000180049b60 f   GuBVHStructure.obj
 0001:00048bd0       ??R?$AABBTreeOverlap@UAABBAABBTest@Gu@physx@@UBVHTree@23@UBVHNode@23@IUBVHCallback@23@@Gu@physx@@QEAA_NPEBIPEBVPxBounds3@2@AEBUBVHTree@12@AEBUAABBAABBTest@12@AEAUBVHCallback@12@@Z 0000000180049bd0 f i GuBVHStructure.obj
 0001:00048e50       ??R?$AABBTreeRaycast@$00UBVHTree@Gu@physx@@UBVHNode@23@IUBVHCallback@23@@Gu@physx@@QEAA_NPEBIPEBVPxBounds3@2@AEBUBVHTree@12@AEBVPxVec3@2@3AEAM3AEAUBVHCallback@12@@Z 0000000180049e50 f i GuBVHStructure.obj
 0001:000494e0       ??R?$AABBTreeRaycast@$0A@UBVHTree@Gu@physx@@UBVHNode@23@IUBVHCallback@23@@Gu@physx@@QEAA_NPEBIPEBVPxBounds3@2@AEBUBVHTree@12@AEBVPxVec3@2@3AEAM3AEAUBVHCallback@12@@Z 000000018004a4e0 f i GuBVHStructure.obj
 0001:00049b28       ??_EBVHStructure@Gu@physx@@WBA@EAAPEAXI@Z 000000018004ab28 f i GuBVHStructure.obj
 0001:00049b40       ??_EBVHStructure@Gu@physx@@UEAAPEAXI@Z 000000018004ab40 f i GuBVHStructure.obj
 0001:00049b40       ??_GBVHStructure@Gu@physx@@UEAAPEAXI@Z 000000018004ab40 f i GuBVHStructure.obj
 0001:00049ba0       ??_GRefCountable@Cm@physx@@UEAAPEAXI@Z 000000018004aba0 f i GuBVHStructure.obj
 0001:00049ba0       ??_ERefCountable@Cm@physx@@UEAAPEAXI@Z 000000018004aba0 f i GuBVHStructure.obj
 0001:00049bd0       ?allocate@?$Array@PEBUBVHNode@Gu@physx@@V?$InlineAllocator@$0IAA@V?$ReflectionAllocator@PEBUBVHNode@Gu@physx@@@shdfnd@physx@@@shdfnd@3@@shdfnd@physx@@IEAAPEAPEBUBVHNode@Gu@3@I@Z 000000018004abd0 f i GuBVHStructure.obj
 0001:00049c90       ?createVolumes@BVHStructure@Gu@physx@@AEBAXXZ 000000018004ac90 f   GuBVHStructure.obj
 0001:00049d20       ?getTriangles@TriangleMesh@Gu@physx@@UEBAPEBXXZ 000000018004ad20 f i GuTriangleMesh.obj
 0001:00049d20       ?getBounds@BVHStructure@Gu@physx@@UEBAPEBVPxBounds3@3@XZ 000000018004ad20 f i GuBVHStructure.obj
 0001:00049d30       ?getConcreteTypeName@PxBVHStructure@physx@@UEBAPEBDXZ 000000018004ad30 f i GuBVHStructure.obj
 0001:00049d40       ?getNbBounds@BVHStructure@Gu@physx@@UEBAIXZ 000000018004ad40 f i GuBVHStructure.obj
 0001:00049d50       ?isKindOf@PxBVHStructure@physx@@MEBA_NPEBD@Z 000000018004ad50 f i GuBVHStructure.obj
 0001:00049da0       ?load@BVHStructure@Gu@physx@@QEAA_NAEAVPxInputStream@3@@Z 000000018004ada0 f   GuBVHStructure.obj
 0001:00049f70       ?onRefCountZero@BVHStructure@Gu@physx@@UEAAXXZ 000000018004af70 f   GuBVHStructure.obj
 0001:0004a0a0       ?onRefCountZero@RefCountable@Cm@physx@@UEAAXXZ 000000018004b0a0 f i GuBVHStructure.obj
 0001:0004a0c0       ?overlap@BVHStructure@Gu@physx@@UEBAIAEBVPxBounds3@3@IPEIAI@Z 000000018004b0c0 f   GuBVHStructure.obj
 0001:0004a200       ?raycast@BVHStructure@Gu@physx@@UEBAIAEBVPxVec3@3@0MIPEIAI@Z 000000018004b200 f   GuBVHStructure.obj
 0001:0004a2d0       ?recreate@?$Array@PEBUBVHNode@Gu@physx@@V?$InlineAllocator@$0IAA@V?$ReflectionAllocator@PEBUBVHNode@Gu@physx@@@shdfnd@physx@@@shdfnd@3@@shdfnd@physx@@IEAAXI@Z 000000018004b2d0 f i GuBVHStructure.obj
 0001:0004a380       ?release@HeightField@Gu@physx@@UEAAXXZ 000000018004b380 f   GuHeightField.obj
 0001:0004a380       ?release@ConvexMesh@Gu@physx@@UEAAXXZ 000000018004b380 f   GuConvexMesh.obj
 0001:0004a380       ?release@TriangleMesh@Gu@physx@@UEAAXXZ 000000018004b380 f   GuTriangleMesh.obj
 0001:0004a380       ?release@BVHStructure@Gu@physx@@UEAAXXZ 000000018004b380 f   GuBVHStructure.obj
 0001:0004a3b0       ?resizeUninitialized@?$Array@PEBUBVHNode@Gu@physx@@V?$InlineAllocator@$0IAA@V?$ReflectionAllocator@PEBUBVHNode@Gu@physx@@@shdfnd@physx@@@shdfnd@3@@shdfnd@physx@@QEAAXI@Z 000000018004b3b0 f i GuBVHStructure.obj
 0001:0004a400       ?sweep@BVHStructure@Gu@physx@@UEBAIAEBVPxBounds3@3@AEBVPxVec3@3@MIPEIAI@Z 000000018004b400 f   GuBVHStructure.obj
 0001:0004a5f0       ?SweepAnyShapeHeightfield@Gu@physx@@YAMAEBUCCDShape@12@0AEBVPxTransform@2@111MAEAVPxVec3@2@2MAEAIM@Z 000000018004b5f0 f   GuCCDSweepConvexMesh.obj
 0001:0004b710       ?SweepAnyShapeMesh@Gu@physx@@YAMAEBUCCDShape@12@0AEBVPxTransform@2@111MAEAVPxVec3@2@2MAEAIM@Z 000000018004c710 f   GuCCDSweepConvexMesh.obj
 0001:0004cde0       ?SweepEstimateAnyShapeHeightfield@Gu@physx@@YAMAEBUCCDShape@12@0AEBVPxTransform@2@111MM@Z 000000018004dde0 f   GuCCDSweepConvexMesh.obj
 0001:0004d640       ?SweepEstimateAnyShapeMesh@Gu@physx@@YAMAEBUCCDShape@12@0AEBVPxTransform@2@111MM@Z 000000018004e640 f   GuCCDSweepConvexMesh.obj
 0001:0004e490       ?growAndPushBack@?$Array@IV?$InlineAllocator@$0BAA@V?$ReflectionAllocator@I@shdfnd@physx@@@shdfnd@physx@@@shdfnd@physx@@IEAAAEAIAEBI@Z 000000018004f490 f i GuCCDSweepConvexMesh.obj
 0001:0004ebc0       ?recreate@?$Array@IV?$InlineAllocator@$0BAA@V?$ReflectionAllocator@I@shdfnd@physx@@@shdfnd@physx@@@shdfnd@physx@@IEAAXI@Z 000000018004fbc0 f i GuCCDSweepConvexMesh.obj
 0001:0004eca0       ?resize@?$Array@IV?$InlineAllocator@$0BAA@V?$ReflectionAllocator@I@shdfnd@physx@@@shdfnd@physx@@@shdfnd@physx@@QEAAXIAEBI@Z 000000018004fca0 f i GuCCDSweepConvexMesh.obj
 0001:0004ed70       ?resize@?$Array@IV?$ReflectionAllocator@I@shdfnd@physx@@@shdfnd@physx@@QEAAXIAEBI@Z 000000018004fd70 f i GuCCDSweepConvexMesh.obj
 0001:0004ee30       ?transformBoxOrthonormal@physx@@YA?AVBox@Gu@1@AEBV231@AEBVPxTransform@1@@Z 000000018004fe30 f i GuCCDSweepConvexMesh.obj
 0001:0004f2c0       ?UnimplementedSweep@Gu@physx@@YAMAEBUCCDShape@12@0AEBVPxTransform@2@111MAEAVPxVec3@2@2MAEAIM@Z 00000001800502c0 f   GuCCDSweepPrimitives.obj
 0001:0004f2d0       ??$SweepGeomGeom@VCapsuleV@Gu@physx@@V123@@Gu@physx@@YAMAEBUCCDShape@01@0AEBVPxTransform@1@111MAEAVPxVec3@1@2MAEAIM@Z 00000001800502d0 f i GuCCDSweepPrimitives.obj
 0001:0004f400       ??$SweepGeomGeom@VCapsuleV@Gu@physx@@VBoxV@23@@Gu@physx@@YAMAEBUCCDShape@01@0AEBVPxTransform@1@111MAEAVPxVec3@1@2MAEAIM@Z 0000000180050400 f i GuCCDSweepPrimitives.obj
 0001:0004f560       ??$SweepGeomGeom@VCapsuleV@Gu@physx@@VConvexHullV@23@@Gu@physx@@YAMAEBUCCDShape@01@0AEBVPxTransform@1@111MAEAVPxVec3@1@2MAEAIM@Z 0000000180050560 f i GuCCDSweepPrimitives.obj
 0001:0004fac0       ??$SweepGeomGeom@VBoxV@Gu@physx@@V123@@Gu@physx@@YAMAEBUCCDShape@01@0AEBVPxTransform@1@111MAEAVPxVec3@1@2MAEAIM@Z 0000000180050ac0 f i GuCCDSweepPrimitives.obj
 0001:0004fc50       ??$SweepGeomGeom@VBoxV@Gu@physx@@VConvexHullV@23@@Gu@physx@@YAMAEBUCCDShape@01@0AEBVPxTransform@1@111MAEAVPxVec3@1@2MAEAIM@Z 0000000180050c50 f i GuCCDSweepPrimitives.obj
 0001:000501d0       ??$SweepGeomGeom@VConvexHullV@Gu@physx@@V123@@Gu@physx@@YAMAEBUCCDShape@01@0AEBVPxTransform@1@111MAEAVPxVec3@1@2MAEAIM@Z 00000001800511d0 f i GuCCDSweepPrimitives.obj
 0001:00050af0       ?UnimplementedTriangleSweep@Gu@physx@@YAMAEBVGeometryUnion@12@0AEBVPxTransform@2@111MAEAVPxVec3@2@2AEBVFastVertex2ShapeScaling@Cm@2@AEAVTriangleV@12@M@Z 0000000180051af0 f   GuCCDSweepPrimitives.obj
 0001:00050b00       ??$SweepGeomTriangles@VCapsuleV@Gu@physx@@@Gu@physx@@YAMAEBVGeometryUnion@01@0AEBVPxTransform@1@111MAEAVPxVec3@1@2AEBVFastVertex2ShapeScaling@Cm@1@AEAVTriangleV@01@M@Z 0000000180051b00 f i GuCCDSweepPrimitives.obj
 0001:00050bd0       ??$SweepGeomTriangles@VBoxV@Gu@physx@@@Gu@physx@@YAMAEBVGeometryUnion@01@0AEBVPxTransform@1@111MAEAVPxVec3@1@2AEBVFastVertex2ShapeScaling@Cm@1@AEAVTriangleV@01@M@Z 0000000180051bd0 f i GuCCDSweepPrimitives.obj
 0001:00050cd0       ??$SweepGeomTriangles@VConvexHullV@Gu@physx@@@Gu@physx@@YAMAEBVGeometryUnion@01@0AEBVPxTransform@1@111MAEAVPxVec3@1@2AEBVFastVertex2ShapeScaling@Cm@1@AEAVTriangleV@01@M@Z 0000000180051cd0 f i GuCCDSweepPrimitives.obj
 0001:000511e0       ?supportPoint@?$RelativeConvex@VCapsuleV@Gu@physx@@@Gu@physx@@UEBA?AT__m128@@H@Z 00000001800521e0 f i GuCCDSweepPrimitives.obj
 0001:00051240       ?support@?$RelativeConvex@VCapsuleV@Gu@physx@@@Gu@physx@@UEBA?AT__m128@@AEBT4@@Z 0000000180052240 f i GuCCDSweepPrimitives.obj
 0001:000512f0       ?support@?$RelativeConvex@VCapsuleV@Gu@physx@@@Gu@physx@@UEBA?AT__m128@@AEBT4@AEAH@Z 00000001800522f0 f i GuCCDSweepPrimitives.obj
 0001:000513b0       ?supportPoint@?$RelativeConvex@VTriangleV@Gu@physx@@@Gu@physx@@UEBA?AT__m128@@H@Z 00000001800523b0 f i GuCCDSweepPrimitives.obj
 0001:00051400       ?support@?$RelativeConvex@VTriangleV@Gu@physx@@@Gu@physx@@UEBA?AT__m128@@AEBT4@@Z 0000000180052400 f i GuCCDSweepPrimitives.obj
 0001:00051500       ?support@?$RelativeConvex@VTriangleV@Gu@physx@@@Gu@physx@@UEBA?AT__m128@@AEBT4@AEAH@Z 0000000180052500 f i GuCCDSweepPrimitives.obj
 0001:00055420       ??$gjkPenetration@U?$RelativeConvex@VCapsuleV@Gu@physx@@@Gu@physx@@U?$LocalConvex@VBoxV@Gu@physx@@@23@@Gu@physx@@YA?AW4GjkStatus@01@AEBU?$RelativeConvex@VCapsuleV@Gu@physx@@@01@AEBU?$LocalConvex@VBoxV@Gu@physx@@@01@AEBT__m128@@2_NPEIAE4AEAEAEAUGjkOutput@01@@Z 0000000180056420 f i GuCCDSweepPrimitives.obj
 0001:000569b0       ??$gjkPenetration@U?$RelativeConvex@VCapsuleV@Gu@physx@@@Gu@physx@@U?$LocalConvex@VCapsuleV@Gu@physx@@@23@@Gu@physx@@YA?AW4GjkStatus@01@AEBU?$RelativeConvex@VCapsuleV@Gu@physx@@@01@AEBU?$LocalConvex@VCapsuleV@Gu@physx@@@01@AEBT__m128@@2_NPEIAE4AEAEAEAUGjkOutput@01@@Z 00000001800579b0 f i GuCCDSweepPrimitives.obj
 0001:00057f40       ??$gjkPenetration@U?$RelativeConvex@VCapsuleV@Gu@physx@@@Gu@physx@@U?$LocalConvex@VConvexHullV@Gu@physx@@@23@@Gu@physx@@YA?AW4GjkStatus@01@AEBU?$RelativeConvex@VCapsuleV@Gu@physx@@@01@AEBU?$LocalConvex@VConvexHullV@Gu@physx@@@01@AEBT__m128@@2_NPEIAE4AEAEAEAUGjkOutput@01@@Z 0000000180058f40 f i GuCCDSweepPrimitives.obj
 0001:00059550       ??$gjkPenetration@U?$RelativeConvex@VTriangleV@Gu@physx@@@Gu@physx@@U?$LocalConvex@VBoxV@Gu@physx@@@23@@Gu@physx@@YA?AW4GjkStatus@01@AEBU?$RelativeConvex@VTriangleV@Gu@physx@@@01@AEBU?$LocalConvex@VBoxV@Gu@physx@@@01@AEBT__m128@@2_NPEIAE4AEAEAEAUGjkOutput@01@@Z 000000018005a550 f i GuCCDSweepPrimitives.obj
 0001:0005aae0       ??$gjkPenetration@U?$RelativeConvex@VTriangleV@Gu@physx@@@Gu@physx@@U?$LocalConvex@VCapsuleV@Gu@physx@@@23@@Gu@physx@@YA?AW4GjkStatus@01@AEBU?$RelativeConvex@VTriangleV@Gu@physx@@@01@AEBU?$LocalConvex@VCapsuleV@Gu@physx@@@01@AEBT__m128@@2_NPEIAE4AEAEAEAUGjkOutput@01@@Z 000000018005bae0 f i GuCCDSweepPrimitives.obj
 0001:0005c090       ??$gjkPenetration@U?$RelativeConvex@VTriangleV@Gu@physx@@@Gu@physx@@U?$LocalConvex@VConvexHullV@Gu@physx@@@23@@Gu@physx@@YA?AW4GjkStatus@01@AEBU?$RelativeConvex@VTriangleV@Gu@physx@@@01@AEBU?$LocalConvex@VConvexHullV@Gu@physx@@@01@AEBT__m128@@2_NPEIAE4AEAEAEAUGjkOutput@01@@Z 000000018005d090 f i GuCCDSweepPrimitives.obj
 0001:0005d6c0       ??$gjkRaycast@U?$RelativeConvex@VCapsuleV@Gu@physx@@@Gu@physx@@U?$LocalConvex@VBoxV@Gu@physx@@@23@@Gu@physx@@YA_NAEBU?$RelativeConvex@VCapsuleV@Gu@physx@@@01@AEBU?$LocalConvex@VBoxV@Gu@physx@@@01@AEBT__m128@@222AEAT4@33M@Z 000000018005e6c0 f i GuCCDSweepPrimitives.obj
 0001:0005e350       ??$gjkRaycast@U?$RelativeConvex@VCapsuleV@Gu@physx@@@Gu@physx@@U?$LocalConvex@VCapsuleV@Gu@physx@@@23@@Gu@physx@@YA_NAEBU?$RelativeConvex@VCapsuleV@Gu@physx@@@01@AEBU?$LocalConvex@VCapsuleV@Gu@physx@@@01@AEBT__m128@@222AEAT4@33M@Z 000000018005f350 f i GuCCDSweepPrimitives.obj
 0001:0005f020       ??$gjkRaycast@U?$RelativeConvex@VCapsuleV@Gu@physx@@@Gu@physx@@U?$LocalConvex@VConvexHullV@Gu@physx@@@23@@Gu@physx@@YA_NAEBU?$RelativeConvex@VCapsuleV@Gu@physx@@@01@AEBU?$LocalConvex@VConvexHullV@Gu@physx@@@01@AEBT__m128@@222AEAT4@33M@Z 0000000180060020 f i GuCCDSweepPrimitives.obj
 0001:0005fe10       ??$gjkRaycast@U?$RelativeConvex@VTriangleV@Gu@physx@@@Gu@physx@@U?$LocalConvex@VBoxV@Gu@physx@@@23@@Gu@physx@@YA_NAEBU?$RelativeConvex@VTriangleV@Gu@physx@@@01@AEBU?$LocalConvex@VBoxV@Gu@physx@@@01@AEBT__m128@@222AEAT4@33M@Z 0000000180060e10 f i GuCCDSweepPrimitives.obj
 0001:00060b20       ??$gjkRaycast@U?$RelativeConvex@VTriangleV@Gu@physx@@@Gu@physx@@U?$LocalConvex@VCapsuleV@Gu@physx@@@23@@Gu@physx@@YA_NAEBU?$RelativeConvex@VTriangleV@Gu@physx@@@01@AEBU?$LocalConvex@VCapsuleV@Gu@physx@@@01@AEBT__m128@@222AEAT4@33M@Z 0000000180061b20 f i GuCCDSweepPrimitives.obj
 0001:00061880       ??$gjkRaycast@U?$RelativeConvex@VTriangleV@Gu@physx@@@Gu@physx@@U?$LocalConvex@VConvexHullV@Gu@physx@@@23@@Gu@physx@@YA_NAEBU?$RelativeConvex@VTriangleV@Gu@physx@@@01@AEBU?$LocalConvex@VConvexHullV@Gu@physx@@@01@AEBT__m128@@222AEAT4@33M@Z 0000000180062880 f i GuCCDSweepPrimitives.obj
 0001:00062720       ?SweepShapeShape@Gu@physx@@YAMAEBUCCDShape@12@0AEBVPxTransform@2@111MAEAVPxVec3@2@2MAEAIM@Z 0000000180063720 f   GuCCDSweepPrimitives.obj
 0001:00062740       ?SweepShapeTriangle@Gu@physx@@YAMAEBVGeometryUnion@12@0AEBVPxTransform@2@111MAEAVPxVec3@2@2AEBVFastVertex2ShapeScaling@Cm@2@AEAVTriangleV@12@M@Z 0000000180063740 f   GuCCDSweepPrimitives.obj
 0001:00062760       ?barycentricCoordinates@Gu@physx@@YAXAEBT__m128@@000AEAT3@1@Z 0000000180063760 f   GuBarycentricCoordinates.obj
 0001:000628b0       ?barycentricCoordinates@Gu@physx@@YAXAEBT__m128@@00AEAT3@@Z 00000001800638b0 f   GuBarycentricCoordinates.obj
 0001:00062920       ?addAxis@SeparatingAxes@Gu@physx@@QEAA_NAEBVPxVec3@3@@Z 0000000180063920 f   GuSeparatingAxes.obj
 0001:000629e0       ?contactBoxBox@Gu@physx@@YA_NAEBVGeometryUnion@12@0AEBVPxTransform@2@1AEBUNarrowPhaseParams@12@AEAUCache@12@AEAVContactBuffer@12@PEAVRenderOutput@Cm@2@@Z 00000001800639e0 f   GuContactBoxBox.obj
 0001:00066ec0       ?contactCapsuleBox@Gu@physx@@YA_NAEBVGeometryUnion@12@0AEBVPxTransform@2@1AEBUNarrowPhaseParams@12@AEAUCache@12@AEAVContactBuffer@12@PEAVRenderOutput@Cm@2@@Z 0000000180067ec0 f   GuContactCapsuleBox.obj
 0001:00067460       ?contactCapsuleCapsule@Gu@physx@@YA_NAEBVGeometryUnion@12@0AEBVPxTransform@2@1AEBUNarrowPhaseParams@12@AEAUCache@12@AEAVContactBuffer@12@PEAVRenderOutput@Cm@2@@Z 0000000180068460 f   GuContactCapsuleCapsule.obj
 0001:00069d80       ?contactCapsuleConvex@Gu@physx@@YA_NAEBVGeometryUnion@12@0AEBVPxTransform@2@1AEBUNarrowPhaseParams@12@AEAUCache@12@AEAVContactBuffer@12@PEAVRenderOutput@Cm@2@@Z 000000018006ad80 f   GuContactCapsuleConvex.obj
 0001:0006c270       ?contactCapsuleHeightfield@Gu@physx@@YA_NAEBVGeometryUnion@12@0AEBVPxTransform@2@1AEBUNarrowPhaseParams@12@AEAUCache@12@AEAVContactBuffer@12@PEAVRenderOutput@Cm@2@@Z 000000018006d270 f   GuContactCapsuleMesh.obj
 0001:0006c8a0       ?contactCapsuleMesh@Gu@physx@@YA_NAEBVGeometryUnion@12@0AEBVPxTransform@2@1AEBUNarrowPhaseParams@12@AEAUCache@12@AEAVContactBuffer@12@PEAVRenderOutput@Cm@2@@Z 000000018006d8a0 f   GuContactCapsuleMesh.obj
 0001:0006d9b0       ?transformFast@PxBounds3@physx@@SA?AV12@AEBVPxTransform@2@AEBV12@@Z 000000018006e9b0 f i GuContactCapsuleMesh.obj
 0001:0006dd90       ?transformQueryBounds@FastVertex2ShapeScaling@Cm@physx@@QEBAXAEAVPxVec3@3@0AEAVPxMat33@3@@Z 000000018006ed90 f i GuContactCapsuleMesh.obj
 0001:000720d0       ?contactBoxConvex@Gu@physx@@YA_NAEBVGeometryUnion@12@0AEBVPxTransform@2@1AEBUNarrowPhaseParams@12@AEAUCache@12@AEAVContactBuffer@12@PEAVRenderOutput@Cm@2@@Z 00000001800730d0 f   GuContactConvexConvex.obj
 0001:00072260       ?contactConvexConvex@Gu@physx@@YA_NAEBVGeometryUnion@12@0AEBVPxTransform@2@1AEBUNarrowPhaseParams@12@AEAUCache@12@AEAVContactBuffer@12@PEAVRenderOutput@Cm@2@@Z 0000000180073260 f   GuContactConvexConvex.obj
 0001:000726b0       ?transformPlaneToShapeSpace@FastVertex2ShapeScaling@Cm@physx@@QEBAXAEBVPxVec3@3@MAEAV43@AEAM@Z 00000001800736b0 f i GuContactConvexConvex.obj
 0001:000727a0       ??0?$CacheMap@UCachedEdge@Gu@physx@@$0IA@@Gu@physx@@QEAA@XZ 00000001800737a0 f i GuContactConvexMesh.obj
 0001:00072860       ??0?$CacheMap@UCachedVertex@Gu@physx@@$0IA@@Gu@physx@@QEAA@XZ 0000000180073860 f i GuContactConvexMesh.obj
 0001:00072e30       ??_GConvexMeshContactGenerationCallback@@UEAAPEAXI@Z 0000000180073e30 f i GuContactConvexMesh.obj
 0001:00072e30       ??_EConvexMeshContactGenerationCallback@@UEAAPEAXI@Z 0000000180073e30 f i GuContactConvexMesh.obj
 0001:00072e90       ?addData@?$CacheMap@UCachedEdge@Gu@physx@@$0IA@@Gu@physx@@QEAA_NAEBUCachedEdge@23@@Z 0000000180073e90 f i GuContactConvexMesh.obj
 0001:00072f70       ?addData@?$CacheMap@UCachedVertex@Gu@physx@@$0IA@@Gu@physx@@QEAA_NAEBUCachedVertex@23@@Z 0000000180073f70 f i GuContactConvexMesh.obj
 0001:00073340       ?contactBoxHeightfield@Gu@physx@@YA_NAEBVGeometryUnion@12@0AEBVPxTransform@2@1AEBUNarrowPhaseParams@12@AEAUCache@12@AEAVContactBuffer@12@PEAVRenderOutput@Cm@2@@Z 0000000180074340 f   GuContactConvexMesh.obj
 0001:000734a0       ?contactBoxMesh@Gu@physx@@YA_NAEBVGeometryUnion@12@0AEBVPxTransform@2@1AEBUNarrowPhaseParams@12@AEAUCache@12@AEAVContactBuffer@12@PEAVRenderOutput@Cm@2@@Z 00000001800744a0 f   GuContactConvexMesh.obj
 0001:00073650       ?contactConvexHeightfield@Gu@physx@@YA_NAEBVGeometryUnion@12@0AEBVPxTransform@2@1AEBUNarrowPhaseParams@12@AEAUCache@12@AEAVContactBuffer@12@PEAVRenderOutput@Cm@2@@Z 0000000180074650 f   GuContactConvexMesh.obj
 0001:00073780       ?contactConvexMesh@Gu@physx@@YA_NAEBVGeometryUnion@12@0AEBVPxTransform@2@1AEBUNarrowPhaseParams@12@AEAUCache@12@AEAVContactBuffer@12@PEAVRenderOutput@Cm@2@@Z 0000000180074780 f   GuContactConvexMesh.obj
 0001:00076ea0       ?processHit@ConvexMeshContactGenerationCallback@@UEAA_NAEBUPxRaycastHit@physx@@AEBVPxVec3@3@11AEAMPEBI@Z 0000000180077ea0 f i GuContactConvexMesh.obj
 0001:00077770       ?recreate@?$Array@IV?$InlineAllocator@$0BBAA@V?$ReflectionAllocator@I@shdfnd@physx@@@shdfnd@physx@@@shdfnd@physx@@IEAAXI@Z 0000000180078770 f i GuContactConvexMesh.obj
 0001:000787a0       ?contactPlaneBox@Gu@physx@@YA_NAEBVGeometryUnion@12@0AEBVPxTransform@2@1AEBUNarrowPhaseParams@12@AEAUCache@12@AEAVContactBuffer@12@PEAVRenderOutput@Cm@2@@Z 00000001800797a0 f   GuContactPlaneBox.obj
 0001:000793a0       ?contactPlaneCapsule@Gu@physx@@YA_NAEBVGeometryUnion@12@0AEBVPxTransform@2@1AEBUNarrowPhaseParams@12@AEAUCache@12@AEAVContactBuffer@12@PEAVRenderOutput@Cm@2@@Z 000000018007a3a0 f   GuContactPlaneCapsule.obj
 0001:000799b0       ?contactPlaneConvex@Gu@physx@@YA_NAEBVGeometryUnion@12@0AEBVPxTransform@2@1AEBUNarrowPhaseParams@12@AEAUCache@12@AEAVContactBuffer@12@PEAVRenderOutput@Cm@2@@Z 000000018007a9b0 f   GuContactPlaneConvex.obj
 0001:0007b7c0       ?contactPolygonPolygonExt@Gu@physx@@YA_NIPEBVPxVec3@2@PEBEAEBVMatrix34@Cm@2@AEBVPxPlane@2@AEBVPxMat33@2@I01234AEBV32@22IIAEAVContactBuffer@12@_N5M@Z 000000018007c7c0 f   GuContactPolygonPolygon.obj
 0001:0007cf00       ?findRotationMatrixFromZ@Gu@physx@@YA?AVPxMat33@2@AEBVPxVec3@2@@Z 000000018007df00 f   GuContactPolygonPolygon.obj
 0001:0007d930       ?contactSphereBox@Gu@physx@@YA_NAEBVGeometryUnion@12@0AEBVPxTransform@2@1AEBUNarrowPhaseParams@12@AEAUCache@12@AEAVContactBuffer@12@PEAVRenderOutput@Cm@2@@Z 000000018007e930 f   GuContactSphereBox.obj
 0001:0007df10       ?contactSphereCapsule@Gu@physx@@YA_NAEBVGeometryUnion@12@0AEBVPxTransform@2@1AEBUNarrowPhaseParams@12@AEAUCache@12@AEAVContactBuffer@12@PEAVRenderOutput@Cm@2@@Z 000000018007ef10 f   GuContactSphereCapsule.obj
 0001:0007ece0       ?contactSphereHeightfield@Gu@physx@@YA_NAEBVGeometryUnion@12@0AEBVPxTransform@2@1AEBUNarrowPhaseParams@12@AEAUCache@12@AEAVContactBuffer@12@PEAVRenderOutput@Cm@2@@Z 000000018007fce0 f   GuContactSphereMesh.obj
 0001:0007f6b0       ?contactSphereMesh@Gu@physx@@YA_NAEBVGeometryUnion@12@0AEBVPxTransform@2@1AEBUNarrowPhaseParams@12@AEAUCache@12@AEAVContactBuffer@12@PEAVRenderOutput@Cm@2@@Z 00000001800806b0 f   GuContactSphereMesh.obj
 0001:00081920       ?contactSpherePlane@Gu@physx@@YA_NAEBVGeometryUnion@12@0AEBVPxTransform@2@1AEBUNarrowPhaseParams@12@AEAUCache@12@AEAVContactBuffer@12@PEAVRenderOutput@Cm@2@@Z 0000000180082920 f   GuContactSpherePlane.obj
 0001:00081b20       ?contactSphereSphere@Gu@physx@@YA_NAEBVGeometryUnion@12@0AEBVPxTransform@2@1AEBUNarrowPhaseParams@12@AEAUCache@12@AEAVContactBuffer@12@PEAVRenderOutput@Cm@2@@Z 0000000180082b20 f   GuContactSphereSphere.obj
 0001:00081c90       ?selectNormal@Gu@physx@@YA_NEMM@Z 0000000180082c90 f   GuFeatureCode.obj
 0001:00081d10       ??0BigConvexData@physx@@QEAA@XZ 0000000180082d10 f   GuBigConvexData.obj
 0001:00081d30       ??1BigConvexData@physx@@QEAA@XZ 0000000180082d30 f   GuBigConvexData.obj
 0001:00081db0       ?ComputeNearestOffset@BigConvexData@physx@@QEBAIAEBVPxVec3@2@@Z 0000000180082db0 f   GuBigConvexData.obj
 0001:00081eb0       ?ComputeOffset@BigConvexData@physx@@QEBAIAEBVPxVec3@2@@Z 0000000180082eb0 f   GuBigConvexData.obj
 0001:00081fb0       ?CreateOffsets@BigConvexData@physx@@IEAAXXZ 0000000180082fb0 f   GuBigConvexData.obj
 0001:00082000       ?Load@BigConvexData@physx@@QEAA_NAEAVPxInputStream@2@@Z 0000000180083000 f   GuBigConvexData.obj
 0001:00082110       ?VLoad@BigConvexData@physx@@IEAA_NAEAVPxInputStream@2@@Z 0000000180083110 f   GuBigConvexData.obj
 0001:000822b0       ?exportExtraData@BigConvexData@physx@@QEAAXAEAVPxSerializationContext@2@@Z 00000001800832b0 f   GuBigConvexData.obj
 0001:00082330       ?importExtraData@BigConvexData@physx@@QEAAXAEAVPxDeserializationContext@2@@Z 0000000180083330 f   GuBigConvexData.obj
 0001:000823a0       ?findUniqueConvexEdges@Gu@physx@@YAIIPEIAUConvexEdge@12@IPEIBUHullPolygonData@12@PEIBE@Z 00000001800833a0 f   GuConvexHelper.obj
 0001:000824e0       ?getConvexData@Gu@physx@@YA_NAEBVGeometryUnion@12@AEAVFastVertex2ShapeScaling@Cm@2@AEAVPxBounds3@2@AEAUPolygonalData@12@@Z 00000001800834e0 f   GuConvexHelper.obj
 0001:00082760       ?getScaledConvex@Gu@physx@@YAXAEAPEAVPxVec3@2@AEAPEAEPEAV32@PEAE_NPEBV32@PEBEIAEBVFastVertex2ShapeScaling@Cm@2@@Z 0000000180083760 f   GuConvexHelper.obj
 0001:00082890       ??0ConvexMesh@Gu@physx@@QEAA@AEAVGuMeshFactory@2@AEAUConvexHullInitData@12@@Z 0000000180083890 f   GuConvexMesh.obj
 0001:000829c0       ??0ConvexMesh@Gu@physx@@QEAA@XZ 00000001800839c0 f   GuConvexMesh.obj
 0001:00082a60       ??1ConvexMesh@Gu@physx@@UEAA@XZ 0000000180083a60 f   GuConvexMesh.obj
 0001:00082b00       ??_EConvexMesh@Gu@physx@@UEAAPEAXI@Z 0000000180083b00 f i GuConvexMesh.obj
 0001:00082c10       ??_EConvexMesh@Gu@physx@@WBA@EAAPEAXI@Z 0000000180083c10 f i GuConvexMesh.obj
 0001:00082c20       ??_EPxHeightField@physx@@MEAAPEAXI@Z 0000000180083c20 f i GuHeightField.obj
 0001:00082c20       ??_EPxConvexMesh@physx@@MEAAPEAXI@Z 0000000180083c20 f i GuConvexMesh.obj
 0001:00082cb0       ?acquireReference@ConvexMesh@Gu@physx@@UEAAXXZ 0000000180083cb0 f   GuConvexMesh.obj
 0001:00082cb0       ?acquireReference@TriangleMesh@Gu@physx@@UEAAXXZ 0000000180083cb0 f   GuTriangleMesh.obj
 0001:00082cb0       ?acquireReference@HeightField@Gu@physx@@UEAAXXZ 0000000180083cb0 f   GuHeightField.obj
 0001:00083180       ?createObject@ConvexMesh@Gu@physx@@SAPEAV123@AEAPEAEAEAVPxDeserializationContext@3@@Z 0000000180084180 f   GuConvexMesh.obj
 0001:000831e0       ?exportExtraData@ConvexMesh@Gu@physx@@UEAAXAEAVPxSerializationContext@3@@Z 00000001800841e0 f   GuConvexMesh.obj
 0001:000832b0       ?getLocalBounds@ConvexMesh@Gu@physx@@UEBA?AVPxBounds3@3@XZ 00000001800842b0 f   GuConvexMesh.obj
 0001:00083340       ?getMassInformation@ConvexMesh@Gu@physx@@UEBAXAEAMAEAVPxMat33@3@AEAVPxVec3@3@@Z 0000000180084340 f   GuConvexMesh.obj
 0001:000833b0       ?getPolygonData@ConvexMesh@Gu@physx@@UEBA_NIAEAUPxHullPolygon@3@@Z 00000001800843b0 f   GuConvexMesh.obj
 0001:00083400       ?getReferenceCount@HeightField@Gu@physx@@UEBAIXZ 0000000180084400 f   GuHeightField.obj
 0001:00083400       ?getReferenceCount@ConvexMesh@Gu@physx@@UEBAIXZ 0000000180084400 f   GuConvexMesh.obj
 0001:00083400       ?raw_length@pairNode@@UEBAHXZ 0000000180084400 f   libvcruntime:undname.obj
 0001:00083400       ?getReferenceCount@TriangleMesh@Gu@physx@@UEBAIXZ 0000000180084400 f   GuTriangleMesh.obj
 0001:00083410       ?importExtraData@ConvexMesh@Gu@physx@@QEAAXAEAVPxDeserializationContext@3@@Z 0000000180084410 f   GuConvexMesh.obj
 0001:000834d0       ?isGpuCompatible@ConvexMesh@Gu@physx@@UEBA_NXZ 00000001800844d0 f   GuConvexMesh.obj
 0001:000834f0       ?load@ConvexMesh@Gu@physx@@QEAA_NAEAVPxInputStream@3@@Z 00000001800844f0 f   GuConvexMesh.obj
 0001:000837a0       ?onRefCountZero@ConvexMesh@Gu@physx@@UEAAXXZ 00000001800847a0 f   GuConvexMesh.obj
 0001:00083890       ??Dphysx@@YA?AVMatrix34@Cm@0@AEBVPxMeshScale@0@AEBV120@@Z 0000000180084890 f i GuConvexUtilsInternal.obj
 0001:00083e60       ?computeHullOBB@Gu@physx@@YAXAEAVBox@12@AEBVPxBounds3@2@MAEBVMatrix34@Cm@2@2AEBVFastVertex2ShapeScaling@62@_N@Z 0000000180084e60 f   GuConvexUtilsInternal.obj
 0001:00084310       ?computeOBBAroundConvex@Gu@physx@@YAXAEAVBox@12@AEBVPxConvexMeshGeometry@2@PEBVPxConvexMesh@2@AEBVPxTransform@2@@Z 0000000180085310 f   GuConvexUtilsInternal.obj
 0001:00084c20       ?computeVertexSpaceOBB@Gu@physx@@YAXAEAVBox@12@AEBV312@AEBVPxTransform@2@AEBVPxMeshScale@2@@Z 0000000180085c20 f   GuConvexUtilsInternal.obj
 0001:00084fd0       ?transform@physx@@YA?AVBox@Gu@1@AEBVMatrix34@Cm@1@AEBV231@@Z 0000000180085fd0 f i GuConvexUtilsInternal.obj
 0001:00085220       ?localSearch@physx@@YAXAEAIAEBVPxVec3@1@PEBV21@PEBUBigConvexRawData@Gu@1@@Z 0000000180086220 f   GuHillClimbing.obj
 0001:00085350       ??0PCMPolygonalBox@Gu@physx@@QEAA@AEBVPxVec3@2@@Z 0000000180086350 f   GuPCMShapeConvex.obj
 0001:00085350       ??0PolygonalBox@Gu@physx@@QEAA@AEBVPxVec3@2@@Z 0000000180086350 f   GuShapeConvex.obj
 0001:00086810       ?getPolygonalData@PolygonalBox@Gu@physx@@QEBAXPEIAUPolygonalData@23@@Z 0000000180087810 f   GuShapeConvex.obj
 0001:00086870       ?getPolygonalData_Convex@Gu@physx@@YAXPEIAUPolygonalData@12@PEIBUConvexHullData@12@AEBVFastVertex2ShapeScaling@Cm@2@@Z 0000000180087870 f   GuShapeConvex.obj
 0001:000869d0       ?distancePointBoxSquared@Gu@physx@@YAMAEBVPxVec3@2@00AEBVPxMat33@2@PEAV32@@Z 00000001800879d0 f   GuDistancePointBox.obj
 0001:00086b20       ?closestPtPointTriangle@Gu@physx@@YA?AVPxVec3@2@AEBV32@000AEAM1@Z 0000000180087b20 f   GuDistancePointTriangle.obj
 0001:00087040       ?distancePointTriangleSquared@Gu@physx@@YA?AT__m128@@AEBT3@000AEAT3@11@Z 0000000180088040 f   GuDistancePointTriangle.obj
 0001:00087d90       ?distanceSegmentBoxSquared@Gu@physx@@YAMAEBVPxVec3@2@000AEBVPxMat33@2@PEAMPEAV32@@Z 0000000180088d90 f   GuDistanceSegmentBox.obj
 0001:00088600       ?distanceSegmentSegmentSquared4@Gu@physx@@YA?AT__m128@@AEBT3@000000000AEAT3@1@Z 0000000180089600 f   GuDistanceSegmentSegment.obj
 0001:00088920       ?distanceSegmentSegmentSquared@Gu@physx@@YA?AT__m128@@AEBT3@000AEAT3@1@Z 0000000180089920 f   GuDistanceSegmentSegment.obj
 0001:00088ae0       ?distanceSegmentSegmentSquared@Gu@physx@@YAMAEBVPxVec3@2@000PEAM1@Z 0000000180089ae0 f   GuDistanceSegmentSegment.obj
 0001:00088d70       ?distanceSegmentSegmentSquared@Gu@physx@@YAMAEBVPxVec3@2@0M00MPEAM1@Z 0000000180089d70 f   GuDistanceSegmentSegment.obj
 0001:000894c0       ?distanceSegmentTriangleSquared@Gu@physx@@YA?AT__m128@@AEBT3@0000AEAT3@1@Z 000000018008a4c0 f   GuDistanceSegmentTriangle.obj
 0001:00089c00       ?distanceSegmentTriangleSquared@Gu@physx@@YAMAEBVPxVec3@2@0000PEAM11@Z 000000018008ac00 f   GuDistanceSegmentTriangle.obj
 0001:0008b290       ?PenetrationDepth@EPA@Gu@physx@@QEAA?AW4GjkStatus@23@AEBUGjkConvex@23@0PEIBT__m128@@1E_NT6@AEAUGjkOutput@23@@Z 000000018008c290 f   GuEPA.obj
 0001:0008bda0       ?addFacet@EPA@Gu@physx@@QEAAPEAVFacet@23@IIIAEBT__m128@@@Z 000000018008cda0 f   GuEPA.obj
 0001:0008c1f0       ?epaPenetration@Gu@physx@@YA?AW4GjkStatus@12@AEBUGjkConvex@12@0PEIBE1E_NT__m128@@AEAUGjkOutput@12@@Z 000000018008d1f0 f   GuEPA.obj
 0001:0008c360       ?silhouette@Facet@Gu@physx@@QEAAXAEBT__m128@@PEIBT4@1AEAVEdgeBuffer@23@AEAV?$InlineDeferredIDPool@$0EA@@Cm@3@@Z 000000018008d360 f   GuEPA.obj
 0001:0008c530       ?closestPtPointTetrahedron@Gu@physx@@YA?AT__m128@@PEIAT3@00AEAI@Z 000000018008d530 f   GuGJKSimplex.obj
 0001:0008ccb0       ?closestPtPointTetrahedron@Gu@physx@@YA?AT__m128@@PEIAT3@00PEIAH1AEAI@Z 000000018008dcb0 f   GuGJKSimplex.obj
 0001:0008e760       ??$gjk@UGjkConvex@Gu@physx@@U123@@Gu@physx@@YA?AW4GjkStatus@01@AEBUGjkConvex@01@0AEBT__m128@@1AEAT4@222@Z 000000018008f760 f i GuGJKTest.obj
 0001:0008f390       ??$gjkPenetration@UGjkConvex@Gu@physx@@U123@@Gu@physx@@YA?AW4GjkStatus@01@AEBUGjkConvex@01@0AEBT__m128@@1_NPEIAE3AEAEAEAUGjkOutput@01@@Z 0000000180090390 f i GuGJKTest.obj
 0001:000907d0       ?testEpaPenetration@Gu@physx@@YA?AW4GjkStatus@12@AEAUGjkConvex@12@0PEBE1EAEAUGjkOutput@12@@Z 00000001800917d0 f   GuGJKTest.obj
 0001:00090820       ?testGjk@Gu@physx@@YA?AW4GjkStatus@12@AEAUGjkConvex@12@0AEBT__m128@@1AEAT5@222@Z 0000000180091820 f   GuGJKTest.obj
 0001:00090830       ?testGjkPenetration@Gu@physx@@YA?AW4GjkStatus@12@AEAUGjkConvex@12@0AEBT__m128@@1PEAE2AEAEAEAUGjkOutput@12@@Z 0000000180091830 f   GuGJKTest.obj
 0001:00090880       ??0HeightField@Gu@physx@@QEAA@AEAVGuMeshFactory@2@AEAUHeightFieldData@12@@Z 0000000180091880 f   GuHeightField.obj
 0001:00090950       ??0HeightField@Gu@physx@@QEAA@PEAVGuMeshFactory@2@@Z 0000000180091950 f   GuHeightField.obj
 0001:000909c0       ??1HeightField@Gu@physx@@UEAA@XZ 00000001800919c0 f   GuHeightField.obj
 0001:00090a30       ??_EHeightField@Gu@physx@@UEAAPEAXI@Z 0000000180091a30 f i GuHeightField.obj
 0001:00090bac       ??_EHeightField@Gu@physx@@WBA@EAAPEAXI@Z 0000000180091bac f i GuHeightField.obj
 0001:00090bc0       ?computeCellCoordinates@HeightField@Gu@physx@@QEBAIMMAEAM0@Z 0000000180091bc0 f   GuHeightField.obj
 0001:00090cc0       ?createObject@HeightField@Gu@physx@@SAPEAV123@AEAPEAEAEAVPxDeserializationContext@3@@Z 0000000180091cc0 f   GuHeightField.obj
 0001:00090d30       ?exportExtraData@HeightField@Gu@physx@@UEAAXAEAVPxSerializationContext@3@@Z 0000000180091d30 f   GuHeightField.obj
 0001:00090d80       ?getEdgeTriangleIndices@physx@@YAIAEBVHeightField@Gu@1@AEBUEdgeData@1@PEIAI@Z 0000000180091d80 f   GuHeightField.obj
 0001:00090eb0       ?getVertexEdgeIndices@physx@@YAIAEBVHeightField@Gu@1@IIIQEAUEdgeData@1@@Z 0000000180091eb0 f   GuHeightField.obj
 0001:00091090       ?importExtraData@HeightField@Gu@physx@@QEAAXAEAVPxDeserializationContext@3@@Z 0000000180092090 f   GuHeightField.obj
 0001:000910b0       ?isCollisionVertexPreca@HeightField@Gu@physx@@QEBA_NIIIG@Z 00000001800920b0 f   GuHeightField.obj
 0001:00091150       ?isConvexVertex@HeightField@Gu@physx@@QEBA_NIII@Z 0000000180092150 f i GuHeightField.obj
 0001:00091220       ?isSolidVertex@HeightField@Gu@physx@@QEBA_NIIIGAEA_N@Z 0000000180092220 f   GuHeightField.obj
 0001:000913a0       ?load@HeightField@Gu@physx@@QEAA_NAEAVPxInputStream@3@@Z 00000001800923a0 f   GuHeightField.obj
 0001:00091720       ?loadFromDesc@HeightField@Gu@physx@@QEAA_NAEBVPxHeightFieldDesc@3@@Z 0000000180092720 f   GuHeightField.obj
 0001:00091940       ?modifySamples@HeightField@Gu@physx@@UEAA_NHHAEBVPxHeightFieldDesc@3@_N@Z 0000000180092940 f   GuHeightField.obj
 0001:00091ca0       ?onRefCountZero@HeightField@Gu@physx@@UEAAXXZ 0000000180092ca0 f   GuHeightField.obj
 0001:00091d30       ?parseTrianglesForCollisionVertices@HeightField@Gu@physx@@QEAAXG@Z 0000000180092d30 f   GuHeightField.obj
 0001:00092210       ?releaseMemory@HeightField@Gu@physx@@QEAAXXZ 0000000180093210 f   GuHeightField.obj
 0001:00092260       ?resizeAndClear@?$BitMapBase@VNonTrackingAllocator@shdfnd@physx@@@Cm@physx@@QEAAXI@Z 0000000180093260 f i GuHeightField.obj
 0001:00092320       ?saveCells@HeightField@Gu@physx@@UEBAIPEAXI@Z 0000000180093320 f   GuHeightField.obj
 0001:00092360       ?computeLocalBounds@HeightFieldUtil@Gu@physx@@QEBAXAEAVPxBounds3@3@@Z 0000000180093360 f   GuHeightFieldUtil.obj
 0001:00092430       ?findClosestPointOnEdge@HeightFieldUtil@Gu@physx@@QEBAMIIIIAEBVPxVec3@3@AEAV43@@Z 0000000180093430 f   GuHeightFieldUtil.obj
 0001:00092720       ?findClosestPointsOnCell@HeightFieldUtil@Gu@physx@@QEBAIIIVPxVec3@3@PEIAV43@PEIAI_N33@Z 0000000180093720 f   GuHeightFieldUtil.obj
 0001:00092ea0       ?findProjectionOnTriangle@HeightFieldUtil@Gu@physx@@QEBA_NIIIAEBVPxVec3@3@AEAV43@@Z 0000000180093ea0 f   GuHeightFieldUtil.obj
 0001:00093140       ?getEdge@HeightFieldUtil@Gu@physx@@QEBAXIIIIAEAVPxVec3@3@0@Z 0000000180094140 f   GuHeightFieldUtil.obj
 0001:00093370       ?getEdgeFaceIndex@HeightFieldUtil@Gu@physx@@QEBAII@Z 0000000180094370 f   GuHeightFieldUtil.obj
 0001:00093560       ?getEdgeFaceIndex@HeightFieldUtil@Gu@physx@@QEBAIIIII@Z 0000000180094560 f   GuHeightFieldUtil.obj
 0001:00093710       ?getEdgeFaceIndex@HeightFieldUtil@Gu@physx@@QEBAIIIPEIBI@Z 0000000180094710 f   GuHeightFieldUtil.obj
 0001:00093790       ?getFaceIndexAtShapePoint@HeightFieldUtil@Gu@physx@@QEBAIMM@Z 0000000180094790 f   GuHeightFieldUtil.obj
 0001:000938a0       ?getTriangle@HeightFieldUtil@Gu@physx@@QEBAIAEBVPxTransform@3@AEAVPxTriangle@3@PEAI2I_N3@Z 00000001800948a0 f   GuHeightFieldUtil.obj
 0001:00094380       ?getTriangleAdjacencyIndices@HeightField@Gu@physx@@QEBAXIIIIAEAI00@Z 0000000180095380 f i GuHeightFieldUtil.obj
 0001:00094560       ?getTriangleVertexIndices@HeightField@Gu@physx@@QEBAXIAEAI00@Z 0000000180095560 f i GuHeightFieldUtil.obj
 0001:00094620       ?getVertexFaceIndex@HeightFieldUtil@Gu@physx@@QEBAIIII@Z 0000000180095620 f   GuHeightFieldUtil.obj
 0001:00094860       ?getVertexNormal@HeightFieldUtil@Gu@physx@@QEBA?AVPxVec3@3@III@Z 0000000180095860 f   GuHeightFieldUtil.obj
 0001:00094bb0       ?overlapAABBTriangles@HeightFieldUtil@Gu@physx@@QEBA_NAEBVPxTransform@3@AEBVPxBounds3@3@IPEAV?$EntityReport@I@23@@Z 0000000180095bb0 f   GuHeightFieldUtil.obj
 0001:000951e0       ??$traceSegment@UTriggerTraceSegmentCallback@Gu@physx@@$0A@$0A@@HeightFieldTraceUtil@Gu@physx@@QEBAXAEBVPxVec3@2@0MPEAUTriggerTraceSegmentCallback@12@AEBVPxBounds3@2@_NPEBV32@@Z 00000001800961e0 f i GuOverlapTestsHF.obj
 0001:000961c0       ?GeomOverlapCallback_BoxHeightfield@@YA_NAEBVPxGeometry@physx@@AEBVPxTransform@2@01PEAUTriggerCache@Gu@2@@Z 00000001800971c0 f   GuOverlapTestsHF.obj
 0001:000964e0       ?GeomOverlapCallback_CapsuleHeightfield@@YA_NAEBVPxGeometry@physx@@AEBVPxTransform@2@01PEAUTriggerCache@Gu@2@@Z 00000001800974e0 f   GuOverlapTestsHF.obj
 0001:00096720       ?GeomOverlapCallback_ConvexHeightfield@@YA_NAEBVPxGeometry@physx@@AEBVPxTransform@2@01PEAUTriggerCache@Gu@2@@Z 0000000180097720 f   GuOverlapTestsHF.obj
 0001:00096790       ?GeomOverlapCallback_SphereHeightfield@@YA_NAEBVPxGeometry@physx@@AEBVPxTransform@2@01PEAUTriggerCache@Gu@2@@Z 0000000180097790 f   GuOverlapTestsHF.obj
 0001:00096960       ?checkOverlapAABB_heightFieldGeom@Gu@physx@@YA_NAEBVPxGeometry@2@AEBVPxTransform@2@AEBVPxBounds3@2@@Z 0000000180097960 f   GuOverlapTestsHF.obj
 0001:00099c00       ??$gjkRaycast@U?$LocalConvex@VTriangleV@Gu@physx@@@Gu@physx@@U?$LocalConvex@VConvexHullV@Gu@physx@@@23@@Gu@physx@@YA_NAEBU?$LocalConvex@VTriangleV@Gu@physx@@@01@AEBU?$LocalConvex@VConvexHullV@Gu@physx@@@01@AEBT__m128@@222AEAT4@33M@Z 000000018009ac00 f i GuSweepsHF.obj
 0001:0009a9d0       ??$traceSegment@VBoxTraceSegmentReport@@$0A@$00@HeightFieldTraceUtil@Gu@physx@@QEBAXAEBVPxVec3@2@0MPEAVBoxTraceSegmentReport@@AEBVPxBounds3@2@_NPEBV32@@Z 000000018009b9d0 f i GuSweepsHF.obj
 0001:0009a9d0       ??$traceSegment@VCapsuleTraceSegmentReport@@$0A@$00@HeightFieldTraceUtil@Gu@physx@@QEBAXAEBVPxVec3@2@0MPEAVCapsuleTraceSegmentReport@@AEBVPxBounds3@2@_NPEBV32@@Z 000000018009b9d0 f i GuSweepsHF.obj
 0001:0009a9d0       ??$traceSegment@VConvexTraceSegmentReport@@$0A@$00@HeightFieldTraceUtil@Gu@physx@@QEBAXAEBVPxVec3@2@0MPEAVConvexTraceSegmentReport@@AEBVPxBounds3@2@_NPEBV32@@Z 000000018009b9d0 f i GuSweepsHF.obj
 0001:0009b3f0       ??0ConvexTraceSegmentReport@@QEAA@AEBVHeightFieldUtil@Gu@physx@@AEBUConvexHullData@23@AEBVPxMeshScale@3@AEBVPxTransform@3@3AEBVPxVec3@3@MV?$PxFlags@W4Enum@PxHitFlag@physx@@G@3@M@Z 000000018009c3f0 f i GuSweepsHF.obj
 0001:0009bd90       ??_GBoxTraceSegmentReport@@UEAAPEAXI@Z 000000018009cd90 f i GuSweepsHF.obj
 0001:0009bd90       ??_EBoxTraceSegmentReport@@UEAAPEAXI@Z 000000018009cd90 f i GuSweepsHF.obj
 0001:0009bdc0       ??_ECapsuleTraceSegmentReport@@UEAAPEAXI@Z 000000018009cdc0 f i GuSweepsHF.obj
 0001:0009bdc0       ??_GCapsuleTraceSegmentReport@@UEAAPEAXI@Z 000000018009cdc0 f i GuSweepsHF.obj
 0001:0009bdf0       ??_EConvexTraceSegmentReport@@UEAAPEAXI@Z 000000018009cdf0 f i GuSweepsHF.obj
 0001:0009bdf0       ??_GConvexTraceSegmentReport@@UEAAPEAXI@Z 000000018009cdf0 f i GuSweepsHF.obj
 0001:0009be20       ??_EHeightFieldTraceSegmentReport@@UEAAPEAXI@Z 000000018009ce20 f i GuSweepsHF.obj
 0001:0009be20       ??_GHeightFieldTraceSegmentReport@@UEAAPEAXI@Z 000000018009ce20 f i GuSweepsHF.obj
 0001:0009be50       ?finalizeHit@ConvexTraceSegmentReport@@QEAA_NAEAUPxSweepHit@physx@@AEBVPxHeightFieldGeometry@3@AEBVPxTransform@3@AEBVPxConvexMeshGeometry@3@2AEBVPxVec3@3@M@Z 000000018009ce50 f i GuSweepsHF.obj
 0001:0009c0a0       ?onEvent@BoxTraceSegmentReport@@UEAA_NIPEAI@Z 000000018009d0a0 f i GuSweepsHF.obj
 0001:0009c510       ?onEvent@CapsuleTraceSegmentReport@@UEAA_NIPEAI@Z 000000018009d510 f i GuSweepsHF.obj
 0001:0009c740       ?onEvent@ConvexTraceSegmentReport@@UEAA_NIPEAI@Z 000000018009d740 f i GuSweepsHF.obj
 0001:0009cd00       ?prepare@?$OverlapTraceSegment@VCapsuleTraceSegmentReport@@@HeightFieldTraceUtil@Gu@physx@@QEAAXAEBVPxVec3@4@00AEAM1@Z 000000018009dd00 f i GuSweepsHF.obj
 0001:0009cd00       ?prepare@?$OverlapTraceSegment@VConvexTraceSegmentReport@@@HeightFieldTraceUtil@Gu@physx@@QEAAXAEBVPxVec3@4@00AEAM1@Z 000000018009dd00 f i GuSweepsHF.obj
 0001:0009cd00       ?prepare@?$OverlapTraceSegment@VBoxTraceSegmentReport@@@HeightFieldTraceUtil@Gu@physx@@QEAAXAEBVPxVec3@4@00AEAM1@Z 000000018009dd00 f i GuSweepsHF.obj
 0001:0009cfa0       ?sweepBox_HeightFieldGeom@@YA_NAEBVPxGeometry@physx@@AEBVPxTransform@2@AEBVPxBoxGeometry@2@1AEBVBox@Gu@2@AEBVPxVec3@2@MAEAUPxSweepHit@2@V?$PxFlags@W4Enum@PxHitFlag@physx@@G@2@M@Z 000000018009dfa0 f   GuSweepsHF.obj
 0001:0009ddf0       ?sweepCapsule_HeightFieldGeom@@YA_NAEBVPxGeometry@physx@@AEBVPxTransform@2@AEBVPxCapsuleGeometry@2@1AEBVCapsule@Gu@2@AEBVPxVec3@2@MAEAUPxSweepHit@2@V?$PxFlags@W4Enum@PxHitFlag@physx@@G@2@M@Z 000000018009edf0 f   GuSweepsHF.obj
 0001:0009e750       ?sweepConvex_HeightFieldGeom@@YA_NAEBVPxGeometry@physx@@AEBVPxTransform@2@AEBVPxConvexMeshGeometry@2@1AEBVPxVec3@2@MAEAUPxSweepHit@2@V?$PxFlags@W4Enum@PxHitFlag@physx@@G@2@M@Z 000000018009f750 f   GuSweepsHF.obj
 0001:0009f120       ?testVertexIndex@?$OverlapTraceSegment@VConvexTraceSegmentReport@@@HeightFieldTraceUtil@Gu@physx@@QEAA_NI@Z 00000001800a0120 f i GuSweepsHF.obj
 0001:0009f120       ?testVertexIndex@?$OverlapTraceSegment@VCapsuleTraceSegmentReport@@@HeightFieldTraceUtil@Gu@physx@@QEAA_NI@Z 00000001800a0120 f i GuSweepsHF.obj
 0001:0009f120       ?testVertexIndex@?$OverlapTraceSegment@VBoxTraceSegmentReport@@@HeightFieldTraceUtil@Gu@physx@@QEAA_NI@Z 00000001800a0120 f i GuSweepsHF.obj
 0001:0009f270       ?intersectOBBOBB@Gu@physx@@YA_NAEBVPxVec3@2@0AEBVPxMat33@2@001_N@Z 00000001800a0270 f   GuIntersectionBoxBox.obj
 0001:0009f8d0       ?intersectCapsuleTriangle@Gu@physx@@YA_NAEBVPxVec3@2@000AEBVCapsule@12@AEBUCapsuleTriangleOverlapData@12@@Z 00000001800a08d0 f   GuIntersectionCapsuleTriangle.obj
 0001:000a0460       ?intersectEdgeEdge@Gu@physx@@YA_NAEBVPxVec3@2@0000AEAMAEAV32@@Z 00000001800a1460 f   GuIntersectionEdgeEdge.obj
 0001:000a0790       ?intersectRayAABB2@Gu@physx@@YA_NAEBT__m128@@0000AEAT3@1@Z 00000001800a1790 f   GuIntersectionRayBox.obj
 0001:000a0850       ?intersectRayAABB2@Gu@physx@@YA_NAEBVPxVec3@2@000MAEAM1@Z 00000001800a1850 f   GuIntersectionRayBox.obj
 0001:000a0a00       ?intersectRayAABB@Gu@physx@@YAHAEBVPxVec3@2@000AEAM1@Z 00000001800a1a00 f   GuIntersectionRayBox.obj
 0001:000a0b20       ?rayAABBIntersect2@Gu@physx@@YAIAEBVPxVec3@2@000AEAV32@AEAM@Z 00000001800a1b20 f   GuIntersectionRayBox.obj
 0001:000a0d30       ?intersectRayCapsuleInternal@Gu@physx@@YAIAEBVPxVec3@2@000MQEAM@Z 00000001800a1d30 f   GuIntersectionRayCapsule.obj
 0001:000a15c0       ?intersectRaySphere@Gu@physx@@YA_NAEBVPxVec3@2@0M0MAEAMPEAV32@@Z 00000001800a25c0 f   GuIntersectionRaySphere.obj
 0001:000a16b0       ?intersectRaySphereBasic@Gu@physx@@YA_NAEBVPxVec3@2@0M0MAEAMPEAV32@@Z 00000001800a26b0 f   GuIntersectionRaySphere.obj
 0001:000a1810       ?intersectSphereBox@Gu@physx@@YA_NAEBVSphere@12@AEBVBox@12@@Z 00000001800a2810 f   GuIntersectionSphereBox.obj
 0001:000a1a40       ?intersectTriangleBox@Gu@physx@@YAHAEBVBoxPadded@12@AEBVPxVec3@2@11@Z 00000001800a2a40 f   GuIntersectionTriangleBox.obj
 0001:000a2010       ?intersectTriangleBoxBV4@@YAHAEBVPxVec3@physx@@00AEBVPxMat33@2@00@Z 00000001800a3010 f   GuIntersectionTriangleBox.obj
 0001:000a2450       ?intersectTriangleBox_ReferenceCode@Gu@physx@@YAHAEBVPxVec3@2@0000@Z 00000001800a3450 f   GuIntersectionTriangleBox.obj
 0001:000a2cc0       ?intersectTriangleBox_Unsafe@Gu@physx@@YAHAEBVPxVec3@2@0000@Z 00000001800a3cc0 f   GuIntersectionTriangleBox.obj
 0001:000a3090       ??0BV4Tree@Gu@physx@@QEAA@PEAVSourceMesh@12@AEBVPxBounds3@2@@Z 00000001800a4090 f   GuBV4.obj
 0001:000a3150       ??0BV4Tree@Gu@physx@@QEAA@W4PxEMPTY@2@@Z 00000001800a4150 f   GuBV4.obj
 0001:000a3160       ??0BV4Tree@Gu@physx@@QEAA@XZ 00000001800a4160 f   GuBV4.obj
 0001:000a3190       ??0SourceMesh@Gu@physx@@QEAA@XZ 00000001800a4190 f   GuBV4.obj
 0001:000a31b0       ??0SourceMeshBase@Gu@physx@@QEAA@XZ 00000001800a41b0 f   GuBV4.obj
 0001:000a31c0       ??1BV4Tree@Gu@physx@@QEAA@XZ 00000001800a41c0 f   GuBV4.obj
 0001:000a3220       ??1SourceMeshBase@Gu@physx@@QEAA@XZ 00000001800a4220 f   GuBV4.obj
 0001:000a3220       ??1SourceMesh@Gu@physx@@QEAA@XZ 00000001800a4220 f   GuBV4.obj
 0001:000a3270       ??4BV4Tree@Gu@physx@@QEAAXAEAV012@@Z 00000001800a4270 f   GuBV4.obj
 0001:000a3300       ??4SourceMesh@Gu@physx@@QEAAXAEAV012@@Z 00000001800a4300 f   GuBV4.obj
 0001:000a3350       ?exportExtraData@BV4Tree@Gu@physx@@QEAAXAEAVPxSerializationContext@3@@Z 00000001800a4350 f   GuBV4.obj
 0001:000a33a0       ?importExtraData@BV4Tree@Gu@physx@@QEAAXAEAVPxDeserializationContext@3@@Z 00000001800a43a0 f   GuBV4.obj
 0001:000a33d0       ?init@BV4Tree@Gu@physx@@QEAA_NPEAVSourceMesh@23@AEBVPxBounds3@3@@Z 00000001800a43d0 f   GuBV4.obj
 0001:000a33d0       ?init@BV32Tree@Gu@physx@@QEAA_NPEAVSourceMesh@23@AEBVPxBounds3@3@@Z 00000001800a43d0 f   GuBV32.obj
 0001:000a3470       ?load@BV4Tree@Gu@physx@@QEAA_NAEAVPxInputStream@3@_N@Z 00000001800a4470 f   GuBV4.obj
 0001:000a3690       ?remapTopology@SourceMesh@Gu@physx@@QEAAXPEBI@Z 00000001800a4690 f   GuBV4.obj
 0001:000a3960       ??0AABBTree@Gu@physx@@QEAA@XZ 00000001800a4960 f   GuBV4Build.obj
 0001:000a3970       ??0BVData@@QEAA@XZ         00000001800a4970 f   GuBV4Build.obj
 0001:000a39a0       ??1AABBTree@Gu@physx@@QEAA@XZ 00000001800a49a0 f   GuBV4Build.obj
 0001:000a39b0       ?BuildBV4Ex@Gu@physx@@YA_NAEAVBV4Tree@12@AEAVSourceMesh@12@MI@Z 00000001800a49b0 f   GuBV4Build.obj
 0001:000a4e80       ?allocateNode@BV4BuildParams@@QEAAPEAUBV4Node@@XZ 00000001800a5e80 f   GuBV4Build.obj
 0001:000a4fa0       ?buildFromMesh@AABBTree@Gu@physx@@QEAA_NAEAVSourceMesh@23@I@Z 00000001800a5fa0 f   GuBV4Build.obj
 0001:000a5b60       ?release@AABBTree@Gu@physx@@QEAAXXZ 00000001800a6b60 f   GuBV4Build.obj
 0001:000a5c00       ?releaseNodes@BV4BuildParams@@QEAAXXZ 00000001800a6c00 f   GuBV4Build.obj
 0001:000a5ed0       ?walk@AABBTree@Gu@physx@@QEBAIP6A_NPEBVAABBTreeNode@23@IPEAX@Z1@Z 00000001800a6ed0 f   GuBV4Build.obj
 0001:000a80f0       ?GenericSweep_AABB_CB@@YAXAEBVBox@Gu@physx@@AEBVPxVec3@3@MAEBVBV4Tree@23@P6A_NPEAX111IAEAM@Z3I@Z 00000001800a90f0 f   GuBV4_AABBSweep.obj
 0001:000a8220       ?Sweep_AABB_BV4@@YAHAEBVBox@Gu@physx@@AEBVPxVec3@3@MAEBVBV4Tree@23@PEIAVSweepHit@23@I@Z 00000001800a9220 f   GuBV4_AABBSweep.obj
 0001:000ac460       ?BV4_OverlapBoxAll@@YAIAEBVBox@Gu@physx@@AEBVBV4Tree@23@PEIBVPxMat44@3@PEAIIAEA_N@Z 00000001800ad460 f   GuBV4_BoxOverlap.obj
 0001:000acc70       ?BV4_OverlapBoxAny@@YAHAEBVBox@Gu@physx@@AEBVBV4Tree@23@PEIBVPxMat44@3@@Z 00000001800adc70 f   GuBV4_BoxOverlap.obj
 0001:000ad430       ?BV4_OverlapBoxCB@@YAXAEBVBox@Gu@physx@@AEBVBV4Tree@23@P6A_NPEAXAEBVPxVec3@3@33IPEBI@Z2@Z 00000001800ae430 f   GuBV4_BoxOverlap.obj
 0001:000ad8f0       ?BV4_OverlapCapsuleAll@@YAIAEBVCapsule@Gu@physx@@AEBVBV4Tree@23@PEIBVPxMat44@3@PEAIIAEA_N@Z 00000001800ae8f0 f   GuBV4_BoxOverlap.obj
 0001:000ae000       ?BV4_OverlapCapsuleAny@@YAHAEBVCapsule@Gu@physx@@AEBVBV4Tree@23@PEIBVPxMat44@3@@Z 00000001800af000 f   GuBV4_BoxOverlap.obj
 0001:000b0130       ?BV4_CapsuleSweepSingle@@YAHAEBVCapsule@Gu@physx@@AEBVPxVec3@3@MAEBVBV4Tree@23@PEIAVSweepHit@23@I@Z 00000001800b1130 f   GuBV4_CapsuleSweep.obj
 0001:000b3620       ?BV4_CapsuleSweepSingleAA@@YAHAEBVCapsule@Gu@physx@@AEBVPxVec3@3@MAEBVBV4Tree@23@PEIAVSweepHit@23@I@Z 00000001800b4620 f   GuBV4_CapsuleSweepAA.obj
 0001:000b7e30       ?BV4_BoxSweepSingle@@YAHAEBVBox@Gu@physx@@AEBVPxVec3@3@MAEBVBV4Tree@23@PEIBVPxMat44@3@PEIAVSweepHit@23@I@Z 00000001800b8e30 f   GuBV4_OBBSweep.obj
 0001:000b8560       ?BV4_GenericSweepCB@@YAXAEBVBox@Gu@physx@@AEBVPxVec3@3@MAEBVBV4Tree@23@P6A_NPEAX111IAEAM@Z3_N@Z 00000001800b9560 f   GuBV4_OBBSweep.obj
 0001:000b8730       ?Sweep_OBB_BV4@@YAHAEBVBox@Gu@physx@@AEBVPxVec3@3@MAEBVBV4Tree@23@PEIAVSweepHit@23@I@Z 00000001800b9730 f   GuBV4_OBBSweep.obj
 0001:000ba700       ?BV4_RaycastCB@@YAXAEBVPxVec3@physx@@0AEBVBV4Tree@Gu@2@PEIBVPxMat44@2@MMIP6A?AW4HitCode@42@PEAX000IMMM@Z3@Z 00000001800bb700 f   GuBV4_Raycast.obj
 0001:000bab20       ?BV4_RaycastSingle@@YAHAEBVPxVec3@physx@@0AEBVBV4Tree@Gu@2@PEIBVPxMat44@2@PEIAUPxRaycastHit@2@MMIV?$PxFlags@W4Enum@PxHitFlag@physx@@G@2@@Z 00000001800bbb20 f   GuBV4_Raycast.obj
 0001:000bc880       ?BV4_OverlapSphereAll@@YAIAEBVSphere@Gu@physx@@AEBVBV4Tree@23@PEIBVPxMat44@3@PEAIIAEA_N@Z 00000001800bd880 f   GuBV4_SphereOverlap.obj
 0001:000bcba0       ?BV4_OverlapSphereAny@@YAHAEBVSphere@Gu@physx@@AEBVBV4Tree@23@PEIBVPxMat44@3@@Z 00000001800bdba0 f   GuBV4_SphereOverlap.obj
 0001:000be9b0       ?BV4_GenericSweepCB_Old@@YAXAEBVPxVec3@physx@@00MAEBVBV4Tree@Gu@2@PEIBVPxMat44@2@P6A_NPEAX000IAEAM@Z3@Z 00000001800bf9b0 f   GuBV4_SphereSweep.obj
 0001:000bedb0       ?BV4_SphereSweepSingle@@YAHAEBVSphere@Gu@physx@@AEBVPxVec3@3@MAEBVBV4Tree@23@PEIBVPxMat44@3@PEIAVSweepHit@23@I@Z 00000001800bfdb0 f   GuBV4_SphereSweep.obj
 0001:000c0070       ?computeSweepData@physx@@YAMAEBVPxTriangleMeshGeometry@1@AEAVPxVec3@1@11M@Z 00000001800c1070 f i GuMidphaseBV4.obj
 0001:000c1510       ?intersectBoxVsMesh_BV4@Gu@physx@@YA_NAEBVBox@12@AEBVTriangleMesh@12@AEBVPxTransform@2@AEBVPxMeshScale@2@PEAULimitedResults@12@@Z 00000001800c2510 f   GuMidphaseBV4.obj
 0001:000c2030       ?intersectCapsuleVsMesh_BV4@Gu@physx@@YA_NAEBVCapsule@12@AEBVTriangleMesh@12@AEBVPxTransform@2@AEBVPxMeshScale@2@PEAULimitedResults@12@@Z 00000001800c3030 f   GuMidphaseBV4.obj
 0001:000c2870       ?intersectOBB_BV4@Gu@physx@@YAXPEBVTriangleMesh@12@AEBVBox@12@AEAU?$MeshHitCallback@UPxRaycastHit@physx@@@12@_N3@Z 00000001800c3870 f   GuMidphaseBV4.obj
 0001:000c2890       ?intersectSphereVsMesh_BV4@Gu@physx@@YA_NAEBVSphere@12@AEBVTriangleMesh@12@AEBVPxTransform@2@AEBVPxMeshScale@2@PEAULimitedResults@12@@Z 00000001800c3890 f   GuMidphaseBV4.obj
 0001:000c2fd0       ?raycast_triangleMesh_BV4@Gu@physx@@YAIPEBVTriangleMesh@12@AEBVPxTriangleMeshGeometry@2@AEBVPxTransform@2@AEBVPxVec3@2@3MV?$PxFlags@W4Enum@PxHitFlag@physx@@G@2@IPEIAUPxRaycastHit@2@@Z 00000001800c3fd0 f   GuMidphaseBV4.obj
 0001:000c3de0       ?sweepBox_MeshGeom_BV4@Gu@physx@@YA_NPEBVTriangleMesh@12@AEBVPxTriangleMeshGeometry@2@AEBVPxTransform@2@AEBVBox@12@AEBVPxVec3@2@MAEAUPxSweepHit@2@V?$PxFlags@W4Enum@PxHitFlag@physx@@G@2@M@Z 00000001800c4de0 f   GuMidphaseBV4.obj
 0001:000c5500       ?sweepCapsule_MeshGeom_BV4@Gu@physx@@YA_NPEBVTriangleMesh@12@AEBVPxTriangleMeshGeometry@2@AEBVPxTransform@2@AEBVCapsule@12@AEBVPxVec3@2@MAEAUPxSweepHit@2@V?$PxFlags@W4Enum@PxHitFlag@physx@@G@2@M@Z 00000001800c6500 f   GuMidphaseBV4.obj
 0001:000c5ff0       ?sweepConvex_MeshGeom_BV4@Gu@physx@@YAXPEBVTriangleMesh@12@AEBVBox@12@AEBVPxVec3@2@MAEAUSweepConvexMeshHitCallback@12@_N@Z 00000001800c6ff0 f   GuMidphaseBV4.obj
 0001:000c6030       ?transform@PxMeshScale@physx@@QEBA?AVPxVec3@2@AEBV32@@Z 00000001800c7030 f i GuMidphaseBV4.obj
 0001:000c6270       ?findOverlapHeightField@PxMeshQuery@physx@@SAIAEBVPxGeometry@2@AEBVPxTransform@2@AEBVPxHeightFieldGeometry@2@1PEAIIIAEA_N@Z 00000001800c7270 f   GuMeshQuery.obj
 0001:000c6960       ?findOverlapTriangleMesh@PxMeshQuery@physx@@SAIAEBVPxGeometry@2@AEBVPxTransform@2@AEBVPxTriangleMeshGeometry@2@1PEAIIIAEA_N@Z 00000001800c7960 f   GuMeshQuery.obj
 0001:000c6c70       ?getTriangle@PxMeshQuery@physx@@SAXAEBVPxHeightFieldGeometry@2@AEBVPxTransform@2@IAEAVPxTriangle@2@PEAI3@Z 00000001800c7c70 f   GuMeshQuery.obj
 0001:000c6cf0       ?getTriangle@PxMeshQuery@physx@@SAXAEBVPxTriangleMeshGeometry@2@AEBVPxTransform@2@IAEAVPxTriangle@2@PEAI3@Z 00000001800c7cf0 f   GuMeshQuery.obj
 0001:000c71f0       ?sweep@PxMeshQuery@physx@@SA_NAEBVPxVec3@2@MAEBVPxGeometry@2@AEBVPxTransform@2@IPEBVPxTriangle@2@AEAUPxSweepHit@2@V?$PxFlags@W4Enum@PxHitFlag@physx@@G@2@PEBIM_N@Z 00000001800c81f0 f   GuMeshQuery.obj
 0001:000c7480       ??$collide@$00$00@MeshRayCollider@@SAXAEBVPxVec3@physx@@0M_NPEBVRTreeTriangleMesh@Gu@2@AEAU?$MeshHitCallback@UPxRaycastHit@physx@@@42@PEBV12@@Z 00000001800c8480 f i GuMidphaseRTree.obj
 0001:000c7800       ??$collide@$00$0A@@MeshRayCollider@@SAXAEBVPxVec3@physx@@0M_NPEBVRTreeTriangleMesh@Gu@2@AEAU?$MeshHitCallback@UPxRaycastHit@physx@@@42@PEBV12@@Z 00000001800c8800 f i GuMidphaseRTree.obj
 0001:000c7a40       ??$collide@$0A@$00@MeshRayCollider@@SAXAEBVPxVec3@physx@@0M_NPEBVRTreeTriangleMesh@Gu@2@AEAU?$MeshHitCallback@UPxRaycastHit@physx@@@42@PEBV12@@Z 00000001800c8a40 f i GuMidphaseRTree.obj
 0001:000c9e00       ??0?$RayRTreeCallback@$00$0A@@@QEAA@MAEAU?$MeshHitCallback@UPxRaycastHit@physx@@@Gu@physx@@HPEBXPEBVPxVec3@3@AEBV43@3M_N2@Z 00000001800cae00 f i GuMidphaseRTree.obj
 0001:000c9f30       ??1?$RayRTreeCallback@$00$00@@UEAA@XZ 00000001800caf30 f i GuMidphaseRTree.obj
 0001:000c9fc0       ??1?$RayRTreeCallback@$00$0A@@@UEAA@XZ 00000001800cafc0 f i GuMidphaseRTree.obj
 0001:000c9fc0       ??1?$RayRTreeCallback@$0A@$0A@@@UEAA@XZ 00000001800cafc0 f i GuMidphaseRTree.obj
 0001:000ca050       ??1?$RayRTreeCallback@$0A@$00@@UEAA@XZ 00000001800cb050 f i GuMidphaseRTree.obj
 0001:000ca0d8       ??_E?$RayRTreeCallback@$00$00@@W7EAAPEAXI@Z 00000001800cb0d8 f i GuMidphaseRTree.obj
 0001:000ca0e4       ??_E?$RayRTreeCallback@$00$0A@@@W7EAAPEAXI@Z 00000001800cb0e4 f i GuMidphaseRTree.obj
 0001:000ca0e4       ??_E?$RayRTreeCallback@$0A@$0A@@@W7EAAPEAXI@Z 00000001800cb0e4 f i GuMidphaseRTree.obj
 0001:000ca0f0       ??_E?$RayRTreeCallback@$0A@$00@@W7EAAPEAXI@Z 00000001800cb0f0 f i GuMidphaseRTree.obj
 0001:000ca160       ??_G?$RayRTreeCallback@$00$00@@UEAAPEAXI@Z 00000001800cb160 f i GuMidphaseRTree.obj
 0001:000ca160       ??_E?$RayRTreeCallback@$00$00@@UEAAPEAXI@Z 00000001800cb160 f i GuMidphaseRTree.obj
 0001:000ca1a0       ??_E?$RayRTreeCallback@$0A@$0A@@@UEAAPEAXI@Z 00000001800cb1a0 f i GuMidphaseRTree.obj
 0001:000ca1a0       ??_E?$RayRTreeCallback@$00$0A@@@UEAAPEAXI@Z 00000001800cb1a0 f i GuMidphaseRTree.obj
 0001:000ca1a0       ??_G?$RayRTreeCallback@$0A@$0A@@@UEAAPEAXI@Z 00000001800cb1a0 f i GuMidphaseRTree.obj
 0001:000ca1a0       ??_G?$RayRTreeCallback@$00$0A@@@UEAAPEAXI@Z 00000001800cb1a0 f i GuMidphaseRTree.obj
 0001:000ca1e0       ??_E?$RayRTreeCallback@$0A@$00@@UEAAPEAXI@Z 00000001800cb1e0 f i GuMidphaseRTree.obj
 0001:000ca1e0       ??_G?$RayRTreeCallback@$0A@$00@@UEAAPEAXI@Z 00000001800cb1e0 f i GuMidphaseRTree.obj
 0001:000ca220       ??_GCallback@RTree@Gu@physx@@UEAAPEAXI@Z 00000001800cb220 f i GuMidphaseRTree.obj
 0001:000ca220       ??_ECallback@RTree@Gu@physx@@UEAAPEAXI@Z 00000001800cb220 f i GuMidphaseRTree.obj
 0001:000ca250       ??_ECallbackRaycast@RTree@Gu@physx@@UEAAPEAXI@Z 00000001800cb250 f i GuMidphaseRTree.obj
 0001:000ca250       ??_ECallbackRefit@RTree@Gu@physx@@UEAAPEAXI@Z 00000001800cb250 f i GuTriangleMeshRTree.obj
 0001:000ca250       ??_GCallbackRaycast@RTree@Gu@physx@@UEAAPEAXI@Z 00000001800cb250 f i GuMidphaseRTree.obj
 0001:000ca250       ??_GCallbackRefit@RTree@Gu@physx@@UEAAPEAXI@Z 00000001800cb250 f i GuTriangleMeshRTree.obj
 0001:000ca280       ??_ERayMeshColliderCallback@@UEAAPEAXI@Z 00000001800cb280 f i GuMidphaseRTree.obj
 0001:000ca280       ??_GRayMeshColliderCallback@@UEAAPEAXI@Z 00000001800cb280 f i GuMidphaseRTree.obj
 0001:000ca2b0       ?collideOBB@MeshRayCollider@@SAXAEBVBox@Gu@physx@@_NPEBVRTreeTriangleMesh@34@AEAU?$MeshHitCallback@UPxRaycastHit@physx@@@34@1@Z 00000001800cb2b0 f   GuMidphaseRTree.obj
 0001:000ca780       ?intersectBoxVsMesh_RTREE@Gu@physx@@YA_NAEBVBox@12@AEBVTriangleMesh@12@AEBVPxTransform@2@AEBVPxMeshScale@2@PEAULimitedResults@12@@Z 00000001800cb780 f   GuMidphaseRTree.obj
 0001:000ca7f0       ?intersectCapsuleVsMesh_RTREE@Gu@physx@@YA_NAEBVCapsule@12@AEBVTriangleMesh@12@AEBVPxTransform@2@AEBVPxMeshScale@2@PEAULimitedResults@12@@Z 00000001800cb7f0 f   GuMidphaseRTree.obj
 0001:000ca870       ?intersectOBB_RTREE@Gu@physx@@YAXPEBVTriangleMesh@12@AEBVBox@12@AEAU?$MeshHitCallback@UPxRaycastHit@physx@@@12@_N3@Z 00000001800cb870 f   GuMidphaseRTree.obj
 0001:000ca8a0       ?intersectSphereVsMesh_RTREE@Gu@physx@@YA_NAEBVSphere@12@AEBVTriangleMesh@12@AEBVPxTransform@2@AEBVPxMeshScale@2@PEAULimitedResults@12@@Z 00000001800cb8a0 f   GuMidphaseRTree.obj
 0001:000cb6d0       ?processHit@RayMeshColliderCallback@@UEAA_NAEBUPxRaycastHit@physx@@AEBVPxVec3@3@11AEAMPEBI@Z 00000001800cc6d0 f i GuMidphaseRTree.obj
 0001:000cbe60       ?processResults@?$RayRTreeCallback@$00$00@@UEAA_NIPEAI@Z 00000001800cce60 f i GuMidphaseRTree.obj
 0001:000cc210       ?processResults@?$RayRTreeCallback@$00$00@@UEAA_NIPEAIAEAM@Z 00000001800cd210 f i GuMidphaseRTree.obj
 0001:000cc5a0       ?processResults@?$RayRTreeCallback@$0A@$0A@@@UEAA_NIPEAI@Z 00000001800cd5a0 f i GuMidphaseRTree.obj
 0001:000cc5a0       ?processResults@?$RayRTreeCallback@$00$0A@@@UEAA_NIPEAI@Z 00000001800cd5a0 f i GuMidphaseRTree.obj
 0001:000cc830       ?processResults@?$RayRTreeCallback@$0A@$0A@@@UEAA_NIPEAIAEAM@Z 00000001800cd830 f i GuMidphaseRTree.obj
 0001:000cc830       ?processResults@?$RayRTreeCallback@$00$0A@@@UEAA_NIPEAIAEAM@Z 00000001800cd830 f i GuMidphaseRTree.obj
 0001:000ccad0       ?processResults@?$RayRTreeCallback@$0A@$00@@UEAA_NIPEAI@Z 00000001800cdad0 f i GuMidphaseRTree.obj
 0001:000cd130       ?processResults@?$RayRTreeCallback@$0A@$00@@UEAA_NIPEAIAEAM@Z 00000001800ce130 f i GuMidphaseRTree.obj
 0001:000cd7a0       ?raycast_triangleMesh_RTREE@Gu@physx@@YAIPEBVTriangleMesh@12@AEBVPxTriangleMeshGeometry@2@AEBVPxTransform@2@AEBVPxVec3@2@3MV?$PxFlags@W4Enum@PxHitFlag@physx@@G@2@IPEIAUPxRaycastHit@2@@Z 00000001800ce7a0 f   GuMidphaseRTree.obj
 0001:000cdf40       ?sweepBox_MeshGeom_RTREE@Gu@physx@@YA_NPEBVTriangleMesh@12@AEBVPxTriangleMeshGeometry@2@AEBVPxTransform@2@AEBVBox@12@AEBVPxVec3@2@MAEAUPxSweepHit@2@V?$PxFlags@W4Enum@PxHitFlag@physx@@G@2@M@Z 00000001800cef40 f   GuMidphaseRTree.obj
 0001:000cf4a0       ?sweepCapsule_MeshGeom_RTREE@Gu@physx@@YA_NPEBVTriangleMesh@12@AEBVPxTriangleMeshGeometry@2@AEBVPxTransform@2@AEBVCapsule@12@AEBVPxVec3@2@MAEAUPxSweepHit@2@V?$PxFlags@W4Enum@PxHitFlag@physx@@G@2@M@Z 00000001800d04a0 f   GuMidphaseRTree.obj
 0001:000cfca0       ?sweepConvex_MeshGeom_RTREE@Gu@physx@@YAXPEBVTriangleMesh@12@AEBVBox@12@AEBVPxVec3@2@MAEAUSweepConvexMeshHitCallback@12@_N@Z 00000001800d0ca0 f   GuMidphaseRTree.obj
 0001:000cfcf0       ??$gjk@U?$RelativeConvex@VTriangleV@Gu@physx@@@Gu@physx@@U?$LocalConvex@VConvexHullV@Gu@physx@@@23@@Gu@physx@@YA?AW4GjkStatus@01@AEBU?$RelativeConvex@VTriangleV@Gu@physx@@@01@AEBU?$LocalConvex@VConvexHullV@Gu@physx@@@01@AEBT__m128@@2AEAT5@333@Z 00000001800d0cf0 f i GuOverlapTestsMesh.obj
 0001:000d0b80       ??0ConvexVsMeshOverlapCallback@@QEAA@AEBVConvexMesh@Gu@physx@@AEBVPxMeshScale@3@AEBVFastVertex2ShapeScaling@Cm@3@AEBVPxTransform@3@3_NAEBVBox@23@@Z 00000001800d1b80 f i GuOverlapTestsMesh.obj
 0001:000d1410       ??_EConvexVsMeshOverlapCallback@@UEAAPEAXI@Z 00000001800d2410 f i GuOverlapTestsMesh.obj
 0001:000d1410       ??_GConvexVsMeshOverlapCallback@@UEAAPEAXI@Z 00000001800d2410 f i GuOverlapTestsMesh.obj
 0001:000d1440       ?GeomOverlapCallback_BoxMesh@@YA_NAEBVPxGeometry@physx@@AEBVPxTransform@2@01PEAUTriggerCache@Gu@2@@Z 00000001800d2440 f   GuOverlapTestsMesh.obj
 0001:000d1550       ?GeomOverlapCallback_CapsuleMesh@@YA_NAEBVPxGeometry@physx@@AEBVPxTransform@2@01PEAUTriggerCache@Gu@2@@Z 00000001800d2550 f   GuOverlapTestsMesh.obj
 0001:000d1660       ?GeomOverlapCallback_ConvexMesh@@YA_NAEBVPxGeometry@physx@@AEBVPxTransform@2@01PEAUTriggerCache@Gu@2@@Z 00000001800d2660 f   GuOverlapTestsMesh.obj
 0001:000d1c50       ?GeomOverlapCallback_SphereMesh@@YA_NAEBVPxGeometry@physx@@AEBVPxTransform@2@01PEAUTriggerCache@Gu@2@@Z 00000001800d2c50 f   GuOverlapTestsMesh.obj
 0001:000d1cc0       ?checkOverlapAABB_triangleGeom@Gu@physx@@YA_NAEBVPxGeometry@2@AEBVPxTransform@2@AEBVPxBounds3@2@@Z 00000001800d2cc0 f   GuOverlapTestsMesh.obj
 0001:000d1dc0       ?processHit@ConvexVsMeshOverlapCallback@@UEAA_NAEBUPxRaycastHit@physx@@AEBVPxVec3@3@11AEAMPEBI@Z 00000001800d2dc0 f i GuOverlapTestsMesh.obj
 0001:000d2140       ??0RTree@Gu@physx@@QEAA@W4PxEMPTY@2@@Z 00000001800d3140 f   GuRTree.obj
 0001:000d2150       ?exportExtraData@RTree@Gu@physx@@QEAAXAEAVPxSerializationContext@3@@Z 00000001800d3150 f   GuRTree.obj
 0001:000d2190       ?importExtraData@RTree@Gu@physx@@QEAAXAEAVPxDeserializationContext@3@@Z 00000001800d3190 f   GuRTree.obj
 0001:000d21c0       ?load@RTree@Gu@physx@@QEAA_NAEAVPxInputStream@3@I_N@Z 00000001800d31c0 f   GuRTree.obj
 0001:000d24c0       ?refitAllStaticTree@RTree@Gu@physx@@QEAAXAEAUCallbackRefit@123@PEAVPxBounds3@3@@Z 00000001800d34c0 f   GuRTree.obj
 0001:000d2a20       ?validate@RTree@Gu@physx@@QEAAXPEAUCallbackRefit@123@@Z 00000001800d3a20 f   GuRTree.obj
 0001:000d2b80       ?validateRecursive@RTree@Gu@physx@@IEAAXIURTreeNodeQ@23@PEAURTreePage@23@PEAUCallbackRefit@123@@Z 00000001800d3b80 f   GuRTree.obj
 0001:000d2cb0       ??$traverseRay@$00@RTree@Gu@physx@@QEBAXAEBVPxVec3@2@0IPEAIPEAUCallbackRaycast@012@PEBV32@M@Z 00000001800d3cb0 f i GuRTreeQueries.obj
 0001:000d3050       ??$traverseRay@$0A@@RTree@Gu@physx@@QEBAXAEBVPxVec3@2@0IPEAIPEAUCallbackRaycast@012@PEBV32@M@Z 00000001800d4050 f i GuRTreeQueries.obj
 0001:000d33a0       ?traverseAABB@RTree@Gu@physx@@QEBAXAEBVPxVec3@3@0IPEAIPEAUCallback@123@@Z 00000001800d43a0 f   GuRTreeQueries.obj
 0001:000d3560       ?traverseOBB@RTree@Gu@physx@@QEBAXAEBVBox@23@IPEAIPEAUCallback@123@@Z 00000001800d4560 f   GuRTreeQueries.obj
 0001:000d3e40       ??0SweepBoxMeshHitCallback@Gu@physx@@QEAA@W4Enum@CallbackMode@12@AEBVMatrix34Padded@12@M_NAEBVBox@12@AEBVPxVec3@2@44AEBV?$PxFlags@W4Enum@PxHitFlag@physx@@G@2@M2M@Z 00000001800d4e40 f   GuSweepsMesh.obj
 0001:000d3f50       ??0SweepCapsuleMeshHitCallback@Gu@physx@@QEAA@AEAUPxSweepHit@2@AEBVMatrix34@Cm@2@M_NAEBVCapsule@12@AEBVPxVec3@2@AEBV?$PxFlags@W4Enum@PxHitFlag@physx@@G@2@2M@Z 00000001800d4f50 f   GuSweepsMesh.obj
 0001:000d4020       ??0SweepConvexMeshHitCallback@Gu@physx@@QEAA@AEBUConvexHullData@12@AEBVPxMeshScale@2@AEBVFastVertex2ShapeScaling@Cm@2@AEBVPxTransform@2@3AEBVPxVec3@2@MV?$PxFlags@W4Enum@PxHitFlag@physx@@G@2@_NM6M@Z 00000001800d5020 f   GuSweepsMesh.obj
 0001:000d49a0       ??_GSweepBoxMeshHitCallback@Gu@physx@@UEAAPEAXI@Z 00000001800d59a0 f i GuSweepsMesh.obj
 0001:000d49a0       ??_ESweepBoxMeshHitCallback@Gu@physx@@UEAAPEAXI@Z 00000001800d59a0 f i GuSweepsMesh.obj
 0001:000d49d0       ??_GSweepCapsuleMeshHitCallback@Gu@physx@@UEAAPEAXI@Z 00000001800d59d0 f i GuSweepsMesh.obj
 0001:000d49d0       ??_ESweepCapsuleMeshHitCallback@Gu@physx@@UEAAPEAXI@Z 00000001800d59d0 f i GuSweepsMesh.obj
 0001:000d4a00       ??_GSweepConvexMeshHitCallback@Gu@physx@@UEAAPEAXI@Z 00000001800d5a00 f i GuSweepsMesh.obj
 0001:000d4a00       ??_ESweepConvexMeshHitCallback@Gu@physx@@UEAAPEAXI@Z 00000001800d5a00 f i GuSweepsMesh.obj
 0001:000d4a30       ??_GSweepShapeMeshHitCallback@Gu@physx@@UEAAPEAXI@Z 00000001800d5a30 f i GuSweepsMesh.obj
 0001:000d4a30       ??_ESweepShapeMeshHitCallback@Gu@physx@@UEAAPEAXI@Z 00000001800d5a30 f i GuSweepsMesh.obj
 0001:000d4a60       ?finalizeHit@SweepBoxMeshHitCallback@Gu@physx@@QEBA_NAEAUPxSweepHit@3@AEBVPxTriangleMeshGeometry@3@AEBVPxTransform@3@2AEBVPxVec3@3@_N4@Z 00000001800d5a60 f   GuSweepsMesh.obj
 0001:000d5130       ?finalizeHit@SweepCapsuleMeshHitCallback@Gu@physx@@QEBA_NAEAUPxSweepHit@3@AEBVCapsule@23@AEBVPxTriangleMeshGeometry@3@AEBVPxTransform@3@_N@Z 00000001800d6130 f   GuSweepsMesh.obj
 0001:000d52c0       ?finalizeHit@SweepConvexMeshHitCallback@Gu@physx@@QEAA_NAEAUPxSweepHit@3@AEBVPxTriangleMeshGeometry@3@AEBVPxTransform@3@AEBVPxConvexMeshGeometry@3@2AEBVPxVec3@3@M_N555@Z 00000001800d62c0 f   GuSweepsMesh.obj
 0001:000d57b0       ?processHit@SweepBoxMeshHitCallback@Gu@physx@@UEAA_NAEBUPxRaycastHit@3@AEBVPxVec3@3@11AEAMPEBI@Z 00000001800d67b0 f   GuSweepsMesh.obj
 0001:000d5fc0       ?processHit@SweepCapsuleMeshHitCallback@Gu@physx@@UEAA_NAEBUPxRaycastHit@3@AEBVPxVec3@3@11AEAMPEBI@Z 00000001800d6fc0 f   GuSweepsMesh.obj
 0001:000d64f0       ?processHit@SweepConvexMeshHitCallback@Gu@physx@@UEAA_NAEBUPxRaycastHit@3@AEBVPxVec3@3@11AEAMPEBI@Z 00000001800d74f0 f   GuSweepsMesh.obj
 0001:000d6c40       ?sweepBox_MeshGeom@@YA_NAEBVPxGeometry@physx@@AEBVPxTransform@2@AEBVPxBoxGeometry@2@1AEBVBox@Gu@2@AEBVPxVec3@2@MAEAUPxSweepHit@2@V?$PxFlags@W4Enum@PxHitFlag@physx@@G@2@M@Z 00000001800d7c40 f   GuSweepsMesh.obj
 0001:000d6cd0       ?sweepCapsule_MeshGeom@@YA_NAEBVPxGeometry@physx@@AEBVPxTransform@2@AEBVPxCapsuleGeometry@2@1AEBVCapsule@Gu@2@AEBVPxVec3@2@MAEAUPxSweepHit@2@V?$PxFlags@W4Enum@PxHitFlag@physx@@G@2@M@Z 00000001800d7cd0 f   GuSweepsMesh.obj
 0001:000d6d60       ?sweepConvex_MeshGeom@@YA_NAEBVPxGeometry@physx@@AEBVPxTransform@2@AEBVPxConvexMeshGeometry@2@1AEBVPxVec3@2@MAEAUPxSweepHit@2@V?$PxFlags@W4Enum@PxHitFlag@physx@@G@2@M@Z 00000001800d7d60 f   GuSweepsMesh.obj
 0001:000d79a0       ??0TriangleMesh@Gu@physx@@QEAA@AEAVGuMeshFactory@2@AEAVTriangleMeshData@12@@Z 00000001800d89a0 f   GuTriangleMesh.obj
 0001:000d7b30       ??1TriangleMesh@Gu@physx@@UEAA@XZ 00000001800d8b30 f   GuTriangleMesh.obj
 0001:000d7ce4       ??_ETriangleMesh@Gu@physx@@WBA@EAAPEAXI@Z 00000001800d8ce4 f i GuTriangleMesh.obj
 0001:000d7cf0       ??_GTriangleMesh@Gu@physx@@UEAAPEAXI@Z 00000001800d8cf0 f i GuTriangleMesh.obj
 0001:000d7cf0       ??_ETriangleMesh@Gu@physx@@UEAAPEAXI@Z 00000001800d8cf0 f i GuTriangleMesh.obj
 0001:000d7d60       ?exportExtraData@TriangleMesh@Gu@physx@@UEAAXAEAVPxSerializationContext@3@@Z 00000001800d8d60 f   GuTriangleMesh.obj
 0001:000d7ea0       ?getLocalBounds@TriangleMesh@Gu@physx@@UEBA?AVPxBounds3@3@XZ 00000001800d8ea0 f i GuTriangleMesh.obj
 0001:000d7f30       ?getNbVertices@TriangleMesh@Gu@physx@@UEBAIXZ 00000001800d8f30 f i GuTriangleMesh.obj
 0001:000d7f40       ?getTriangleMaterialIndex@TriangleMesh@Gu@physx@@UEBAGI@Z 00000001800d8f40 f i GuTriangleMesh.obj
 0001:000d7f60       ?getTriangleMeshFlags@TriangleMesh@Gu@physx@@UEBA?AV?$PxFlags@W4Enum@PxTriangleMeshFlag@physx@@E@3@XZ 00000001800d8f60 f i GuTriangleMesh.obj
 0001:000d7f70       ?getTrianglesRemap@TriangleMesh@Gu@physx@@UEBAPEBIXZ 00000001800d8f70 f i GuTriangleMesh.obj
 0001:000d7f80       ?getVertices@TriangleMesh@Gu@physx@@UEBAPEBVPxVec3@3@XZ 00000001800d8f80 f i GuTriangleMesh.obj
 0001:000d7f90       ?getVerticesForModification@TriangleMesh@Gu@physx@@UEAAPEAVPxVec3@3@XZ 00000001800d8f90 f   GuTriangleMesh.obj
 0001:000d7fd0       ?importExtraData@TriangleMesh@Gu@physx@@QEAAXAEAVPxDeserializationContext@3@@Z 00000001800d8fd0 f   GuTriangleMesh.obj
 0001:000d80e0       ?isKindOf@PxTriangleMesh@physx@@MEBA_NPEBD@Z 00000001800d90e0 f i GuTriangleMesh.obj
 0001:000d8130       ?onRefCountZero@TriangleMesh@Gu@physx@@UEAAXXZ 00000001800d9130 f   GuTriangleMesh.obj
 0001:000d81d0       ?refitBVH@TriangleMesh@Gu@physx@@UEAA?AVPxBounds3@3@XZ 00000001800d91d0 f   GuTriangleMesh.obj
 0001:000d82a0       ??0BV4TriangleMesh@Gu@physx@@QEAA@AEAVGuMeshFactory@2@AEAVTriangleMeshData@12@@Z 00000001800d92a0 f   GuTriangleMeshBV4.obj
 0001:000d8334       ??_EBV4TriangleMesh@Gu@physx@@WBA@EAAPEAXI@Z 00000001800d9334 f i GuTriangleMeshBV4.obj
 0001:000d8340       ??_EBV4TriangleMesh@Gu@physx@@UEAAPEAXI@Z 00000001800d9340 f i GuTriangleMeshBV4.obj
 0001:000d8340       ??_GBV4TriangleMesh@Gu@physx@@UEAAPEAXI@Z 00000001800d9340 f i GuTriangleMeshBV4.obj
 0001:000d83d0       ?createObject@BV4TriangleMesh@Gu@physx@@SAPEAVTriangleMesh@23@AEAPEAEAEAVPxDeserializationContext@3@@Z 00000001800d93d0 f   GuTriangleMeshBV4.obj
 0001:000d84c0       ?exportExtraData@BV4TriangleMesh@Gu@physx@@UEAAXAEAVPxSerializationContext@3@@Z 00000001800d94c0 f   GuTriangleMeshBV4.obj
 0001:000d8500       ?getConcreteTypeName@BV4TriangleMesh@Gu@physx@@UEBAPEBDXZ 00000001800d9500 f i GuTriangleMeshBV4.obj
 0001:000d8510       DllMain                    00000001800d9510 f i LIBCMT:dll_dllmain_stub.obj
 0001:000d8510       ?length@charNode@@UEBAHXZ  00000001800d9510 f i libvcruntime:undname.obj
 0001:000d8510       ?raw_length@charNode@@UEBAHXZ 00000001800d9510 f i libvcruntime:undname.obj
 0001:000d8510       _get_startup_argv_mode     00000001800d9510 f i LIBCMT:argv_mode.obj
 0001:000d8510       ?getMidphaseID@BV4TriangleMesh@Gu@physx@@UEBA?AW4Enum@PxMeshMidPhase@3@XZ 00000001800d9510 f i GuTriangleMeshBV4.obj
 0001:000d8520       ??0RTreeTriangleMesh@Gu@physx@@QEAA@AEAVGuMeshFactory@2@AEAVTriangleMeshData@12@@Z 00000001800d9520 f   GuTriangleMeshRTree.obj
 0001:000d8698       ??_ERTreeTriangleMesh@Gu@physx@@WBA@EAAPEAXI@Z 00000001800d9698 f i GuTriangleMeshRTree.obj
 0001:000d86b0       ??_E?$RefitCallback@I@physx@@UEAAPEAXI@Z 00000001800d96b0 f i GuTriangleMeshRTree.obj
 0001:000d86b0       ??_E?$RefitCallback@G@physx@@UEAAPEAXI@Z 00000001800d96b0 f i GuTriangleMeshRTree.obj
 0001:000d86b0       ??_G?$RefitCallback@I@physx@@UEAAPEAXI@Z 00000001800d96b0 f i GuTriangleMeshRTree.obj
 0001:000d86b0       ??_G?$RefitCallback@G@physx@@UEAAPEAXI@Z 00000001800d96b0 f i GuTriangleMeshRTree.obj
 0001:000d86e0       ??_ERTreeTriangleMesh@Gu@physx@@UEAAPEAXI@Z 00000001800d96e0 f i GuTriangleMeshRTree.obj
 0001:000d86e0       ??_GRTreeTriangleMesh@Gu@physx@@UEAAPEAXI@Z 00000001800d96e0 f i GuTriangleMeshRTree.obj
 0001:000d87a0       ?createObject@RTreeTriangleMesh@Gu@physx@@SAPEAVTriangleMesh@23@AEAPEAEAEAVPxDeserializationContext@3@@Z 00000001800d97a0 f   GuTriangleMeshRTree.obj
 0001:000d8840       ?exportExtraData@RTreeTriangleMesh@Gu@physx@@UEAAXAEAVPxSerializationContext@3@@Z 00000001800d9840 f   GuTriangleMeshRTree.obj
 0001:000d8880       ?getConcreteTypeName@RTreeTriangleMesh@Gu@physx@@UEBAPEBDXZ 00000001800d9880 f i GuTriangleMeshRTree.obj
 0001:000d8890       ?getMidphaseID@RTreeTriangleMesh@Gu@physx@@UEBA?AW4Enum@PxMeshMidPhase@3@XZ 00000001800d9890 f i GuTriangleMeshRTree.obj
 0001:000d88a0       ?getVerticesForModification@RTreeTriangleMesh@Gu@physx@@UEAAPEAVPxVec3@3@XZ 00000001800d98a0 f   GuTriangleMeshRTree.obj
 0001:000d88b0       ?recomputeBounds@?$RefitCallback@G@physx@@UEAAXIAEAT__m128@@0@Z 00000001800d98b0 f i GuTriangleMeshRTree.obj
 0001:000d8be0       ?recomputeBounds@?$RefitCallback@I@physx@@UEAAXIAEAT__m128@@0@Z 00000001800d9be0 f i GuTriangleMeshRTree.obj
 0001:000d8f00       ?refitBVH@RTreeTriangleMesh@Gu@physx@@UEAA?AVPxBounds3@3@XZ 00000001800d9f00 f   GuTriangleMeshRTree.obj
 0001:000d9120       ??0BV32Tree@Gu@physx@@QEAA@PEAVSourceMesh@12@AEBVPxBounds3@2@@Z 00000001800da120 f   GuBV32.obj
 0001:000d91e0       ??0BV32Tree@Gu@physx@@QEAA@XZ 00000001800da1e0 f   GuBV32.obj
 0001:000d9210       ??1BV32Tree@Gu@physx@@QEAA@XZ 00000001800da210 f   GuBV32.obj
 0001:000d9220       ?calculateLeafNode@BV32Tree@Gu@physx@@QEAAXAEAUBV32Data@23@@Z 00000001800da220 f   GuBV32.obj
 0001:000d9460       ?createSOAformatNode@BV32Tree@Gu@physx@@QEAAXAEAUBV32DataPacked@23@AEBUBV32Data@23@IAEAI2@Z 00000001800da460 f   GuBV32.obj
 0001:000d98b0       ?load@BV32Tree@Gu@physx@@QEAA_NAEAVPxInputStream@3@_N@Z 00000001800da8b0 f   GuBV32.obj
 0001:000d9ad0       ?release@BV32Tree@Gu@physx@@QEAAXXZ 00000001800daad0 f   GuBV32.obj
 0001:000d9b60       ??0BV32Node@@QEAA@XZ       00000001800dab60 f i GuBV32Build.obj
 0001:000d9e80       ?BuildBV32Ex@Gu@physx@@YA_NAEAVBV32Tree@12@AEAVSourceMesh@12@MI@Z 00000001800dae80 f   GuBV32Build.obj
 0001:000dd640       ?pcmContactBoxBox@Gu@physx@@YA_NAEBVGeometryUnion@12@0AEBVPxTransform@2@1AEBUNarrowPhaseParams@12@AEAUCache@12@AEAVContactBuffer@12@PEAVRenderOutput@Cm@2@@Z 00000001800de640 f   GuPCMContactBoxBox.obj
 0001:000de450       ??$gjkPenetration@U?$RelativeConvex@VBoxV@Gu@physx@@@Gu@physx@@U?$LocalConvex@VConvexHullNoScaleV@Gu@physx@@@23@@Gu@physx@@YA?AW4GjkStatus@01@AEBU?$RelativeConvex@VBoxV@Gu@physx@@@01@AEBU?$LocalConvex@VConvexHullNoScaleV@Gu@physx@@@01@AEBT__m128@@2_NPEIAE4AEAEAEAUGjkOutput@01@@Z 00000001800df450 f i GuPCMContactBoxConvex.obj
 0001:000e0040       ?pcmContactBoxConvex@Gu@physx@@YA_NAEBVGeometryUnion@12@0AEBVPxTransform@2@1AEBUNarrowPhaseParams@12@AEAUCache@12@AEAVContactBuffer@12@PEAVRenderOutput@Cm@2@@Z 00000001800e1040 f   GuPCMContactBoxConvex.obj
 0001:000e0ed0       ?support@?$LocalConvex@VConvexHullNoScaleV@Gu@physx@@@Gu@physx@@UEBA?AT__m128@@AEBT4@@Z 00000001800e1ed0 f i GuPCMContactBoxConvex.obj
 0001:000e0f20       ?support@?$LocalConvex@VConvexHullNoScaleV@Gu@physx@@@Gu@physx@@UEBA?AT__m128@@AEBT4@AEAH@Z 00000001800e1f20 f i GuPCMContactBoxConvex.obj
 0001:000e0f80       ?supportPoint@?$LocalConvex@VConvexHullNoScaleV@Gu@physx@@@Gu@physx@@UEBA?AT__m128@@H@Z 00000001800e1f80 f i GuPCMContactBoxConvex.obj
 0001:000e0fb0       ?pcmContactCapsuleBox@Gu@physx@@YA_NAEBVGeometryUnion@12@0AEBVPxTransform@2@1AEBUNarrowPhaseParams@12@AEAUCache@12@AEAVContactBuffer@12@PEAVRenderOutput@Cm@2@@Z 00000001800e1fb0 f   GuPCMContactCapsuleBox.obj
 0001:000e1f10       ?pcmContactCapsuleCapsule@Gu@physx@@YA_NAEBVGeometryUnion@12@0AEBVPxTransform@2@1AEBUNarrowPhaseParams@12@AEAUCache@12@AEAVContactBuffer@12@PEAVRenderOutput@Cm@2@@Z 00000001800e2f10 f   GuPCMContactCapsuleCapsule.obj
 0001:000e2790       ??$gjkPenetration@U?$LocalConvex@VCapsuleV@Gu@physx@@@Gu@physx@@U?$LocalConvex@VConvexHullNoScaleV@Gu@physx@@@23@@Gu@physx@@YA?AW4GjkStatus@01@AEBU?$LocalConvex@VCapsuleV@Gu@physx@@@01@AEBU?$LocalConvex@VConvexHullNoScaleV@Gu@physx@@@01@AEBT__m128@@2_NPEIAE4AEAEAEAUGjkOutput@01@@Z 00000001800e3790 f i GuPCMContactCapsuleConvex.obj
 0001:000e3ef0       ?pcmContactCapsuleConvex@Gu@physx@@YA_NAEBVGeometryUnion@12@0AEBVPxTransform@2@1AEBUNarrowPhaseParams@12@AEAUCache@12@AEAVContactBuffer@12@PEAVRenderOutput@Cm@2@@Z 00000001800e4ef0 f   GuPCMContactCapsuleConvex.obj
 0001:000e5100       ??0PCMMeshContactGeneration@Gu@physx@@QEAA@AEBT__m128@@0AEBVPsTransformV@aos@shdfnd@2@1AEAVMultiplePersistentContactManifold@12@AEAVContactBuffer@12@PEAV?$InlineArray@I$0EEA@V?$ReflectionAllocator@I@shdfnd@physx@@@62@PEAVRenderOutput@Cm@2@@Z 00000001800e6100 f i GuPCMContactCapsuleHeightField.obj
 0001:000e5a10       ??_GPCMCapsuleVsHeightfieldContactGenerationCallback@physx@@UEAAPEAXI@Z 00000001800e6a10 f i GuPCMContactCapsuleHeightField.obj
 0001:000e5a10       ??_EPCMCapsuleVsHeightfieldContactGenerationCallback@physx@@UEAAPEAXI@Z 00000001800e6a10 f i GuPCMContactCapsuleHeightField.obj
 0001:000e5a40       ?onEvent@?$PCMHeightfieldContactGenerationCallback@UPCMCapsuleVsHeightfieldContactGenerationCallback@physx@@@Gu@physx@@UEAA_NIPEAI@Z 00000001800e6a40 f i GuPCMContactCapsuleHeightField.obj
 0001:000e6000       ?pcmContactCapsuleHeightField@Gu@physx@@YA_NAEBVGeometryUnion@12@0AEBVPxTransform@2@1AEBUNarrowPhaseParams@12@AEAUCache@12@AEAVContactBuffer@12@PEAVRenderOutput@Cm@2@@Z 00000001800e7000 f   GuPCMContactCapsuleHeightField.obj
 0001:000e6d20       ??$processTriangleCache@$0BA@@PCMCapsuleVsMeshContactGenerationCallback@physx@@QEAAXAEAU?$TriangleCache@$0BA@@Gu@1@@Z 00000001800e7d20 f i GuPCMContactCapsuleMesh.obj
 0001:000e6db0       ??_EPCMCapsuleVsMeshContactGenerationCallback@physx@@UEAAPEAXI@Z 00000001800e7db0 f i GuPCMContactCapsuleMesh.obj
 0001:000e6db0       ??_GPCMCapsuleVsMeshContactGenerationCallback@physx@@UEAAPEAXI@Z 00000001800e7db0 f i GuPCMContactCapsuleMesh.obj
 0001:000e6de0       ?pcmContactCapsuleMesh@Gu@physx@@YA_NAEBVGeometryUnion@12@0AEBVPxTransform@2@1AEBUNarrowPhaseParams@12@AEAUCache@12@AEAVContactBuffer@12@PEAVRenderOutput@Cm@2@@Z 00000001800e7de0 f   GuPCMContactCapsuleMesh.obj
 0001:000e7cf0       ?processHit@?$PCMMeshContactGenerationCallback@UPCMCapsuleVsMeshContactGenerationCallback@physx@@@Gu@physx@@UEAA_NAEBUPxRaycastHit@3@AEBVPxVec3@3@11AEAMPEBI@Z 00000001800e8cf0 f i GuPCMContactCapsuleMesh.obj
 0001:000e80b0       ??$sort@USortedTriangle@Gu@physx@@U?$Less@USortedTriangle@Gu@physx@@@shdfnd@3@V?$ReflectionAllocator@USortedTriangle@Gu@physx@@@53@@shdfnd@physx@@YAXPEAUSortedTriangle@Gu@1@IAEBU?$Less@USortedTriangle@Gu@physx@@@01@AEBV?$ReflectionAllocator@USortedTriangle@Gu@physx@@@01@I@Z 00000001800e90b0 f i GuPCMContactConvexCommon.obj
 0001:000e8540       ?addContactsToPatch@PCMConvexVsMeshContactGeneration@Gu@physx@@QEAAXAEBT__m128@@I@Z 00000001800e9540 f   GuPCMContactConvexCommon.obj
 0001:000e8e60       ?addToPatch@PCMSphereVsMeshContactGeneration@Gu@physx@@QEAAXAEBT__m128@@0T4@I@Z 00000001800e9e60 f   GuPCMContactConvexCommon.obj
 0001:000e9500       ?allocate@?$ReflectionAllocator@USortedTriangle@Gu@physx@@@shdfnd@physx@@QEAAPEAX_KPEBDH@Z 00000001800ea500 f i GuPCMContactConvexCommon.obj
 0001:000e95a0       ?doSupport@?$SupportLocalImpl@VTriangleV@Gu@physx@@@Gu@physx@@UEBA?AT__m128@@AEBT4@@Z 00000001800ea5a0 f i GuPCMContactConvexCommon.obj
 0001:000e9630       ?doSupport@?$SupportLocalImpl@VTriangleV@Gu@physx@@@Gu@physx@@UEBAXAEBT__m128@@AEAT4@1@Z 00000001800ea630 f i GuPCMContactConvexCommon.obj
 0001:000e96a0       ?generateContacts@PCMCapsuleVsMeshContactGeneration@Gu@physx@@SA_NAEBT__m128@@0000I000PEAVMeshPersistentContact@23@AEAI@Z 00000001800ea6a0 f   GuPCMContactConvexCommon.obj
 0001:000e9b20       ?generateEE@PCMCapsuleVsMeshContactGeneration@Gu@physx@@QEAAXAEBT__m128@@000I00PEAVMeshPersistentContact@23@AEAI@Z 00000001800eab20 f   GuPCMContactConvexCommon.obj
 0001:000e9da0       ?generateEEMTD@PCMCapsuleVsMeshContactGeneration@Gu@physx@@SAXAEBT__m128@@000I00PEAVMeshPersistentContact@23@AEAI@Z 00000001800eada0 f   GuPCMContactConvexCommon.obj
 0001:000e9ff0       ?generateLastContacts@PCMConvexVsMeshContactGeneration@Gu@physx@@QEAAXXZ 00000001800eaff0 f   GuPCMContactConvexCommon.obj
 0001:000ea530       ?generateLastContacts@PCMSphereVsMeshContactGeneration@Gu@physx@@QEAAXXZ 00000001800eb530 f   GuPCMContactConvexCommon.obj
 0001:000ea9a0       ?growAndPushBack@?$Array@USortedTriangle@Gu@physx@@V?$InlineAllocator@$0IAA@V?$ReflectionAllocator@USortedTriangle@Gu@physx@@@shdfnd@physx@@@shdfnd@3@@shdfnd@physx@@IEAAAEAUSortedTriangle@Gu@3@AEBU453@@Z 00000001800eb9a0 f i GuPCMContactConvexCommon.obj
 0001:000eb020       ?pcmDistanceSegmentTriangleSquared@Gu@physx@@YA?AT__m128@@AEBT3@0000AEAT3@11@Z 00000001800ec020 f   GuPCMContactConvexCommon.obj
 0001:000eb960       ?populateVerts@?$SupportLocalImpl@VTriangleV@Gu@physx@@@Gu@physx@@UEBAXPEBEIPEBVPxVec3@3@PEAT__m128@@@Z 00000001800ec960 f i GuPCMContactConvexCommon.obj
 0001:000ebaa0       ?processTriangle@PCMCapsuleVsMeshContactGeneration@Gu@physx@@QEAA_NPEBVPxVec3@3@IEPEBI@Z 00000001800ecaa0 f   GuPCMContactConvexCommon.obj
 0001:000ec640       ?processTriangle@PCMCapsuleVsMeshContactGeneration@Gu@physx@@SA_NAEBVTriangleV@23@IAEBVCapsuleV@23@AEBT__m128@@EPEAVMeshPersistentContact@23@AEAI@Z 00000001800ed640 f   GuPCMContactConvexCommon.obj
 0001:000ec980       ?processTriangle@PCMConvexVsMeshContactGeneration@Gu@physx@@QEAA_NPEBVPxVec3@3@IEPEBI@Z 00000001800ed980 f   GuPCMContactConvexCommon.obj
 0001:000ecef0       ?processTriangle@PCMConvexVsMeshContactGeneration@Gu@physx@@SA_NAEBUPolygonalData@23@PEAVSupportLocal@23@PEBVPxVec3@3@IEAEBT__m128@@_NAEBVPsTransformV@aos@shdfnd@3@AEBVPsMatTransformV@9shdfnd@3@PEAVMeshPersistentContact@23@AEAI@Z 00000001800edef0 f   GuPCMContactConvexCommon.obj
 0001:000ed170       ?processTriangle@PCMSphereVsMeshContactGeneration@Gu@physx@@QEAA_NPEBVPxVec3@3@IEPEBI@Z 00000001800ee170 f   GuPCMContactConvexCommon.obj
 0001:000ed580       ??$gjkPenetration@U?$RelativeConvex@VConvexHullNoScaleV@Gu@physx@@@Gu@physx@@U?$LocalConvex@VConvexHullNoScaleV@Gu@physx@@@23@@Gu@physx@@YA?AW4GjkStatus@01@AEBU?$RelativeConvex@VConvexHullNoScaleV@Gu@physx@@@01@AEBU?$LocalConvex@VConvexHullNoScaleV@Gu@physx@@@01@AEBT__m128@@2_NPEIAE4AEAEAEAUGjkOutput@01@@Z 00000001800ee580 f i GuPCMContactConvexConvex.obj
 0001:000eeaf0       ??$gjkPenetration@U?$RelativeConvex@VConvexHullNoScaleV@Gu@physx@@@Gu@physx@@U?$LocalConvex@VConvexHullV@Gu@physx@@@23@@Gu@physx@@YA?AW4GjkStatus@01@AEBU?$RelativeConvex@VConvexHullNoScaleV@Gu@physx@@@01@AEBU?$LocalConvex@VConvexHullV@Gu@physx@@@01@AEBT__m128@@2_NPEIAE4AEAEAEAUGjkOutput@01@@Z 00000001800efaf0 f i GuPCMContactConvexConvex.obj
 0001:000f00d0       ??$gjkPenetration@U?$RelativeConvex@VConvexHullV@Gu@physx@@@Gu@physx@@U?$LocalConvex@VConvexHullNoScaleV@Gu@physx@@@23@@Gu@physx@@YA?AW4GjkStatus@01@AEBU?$RelativeConvex@VConvexHullV@Gu@physx@@@01@AEBU?$LocalConvex@VConvexHullNoScaleV@Gu@physx@@@01@AEBT__m128@@2_NPEIAE4AEAEAEAUGjkOutput@01@@Z 00000001800f10d0 f i GuPCMContactConvexConvex.obj
 0001:000f20a0       ?pcmContactConvexConvex@Gu@physx@@YA_NAEBVGeometryUnion@12@0AEBVPxTransform@2@1AEBUNarrowPhaseParams@12@AEAUCache@12@AEAVContactBuffer@12@PEAVRenderOutput@Cm@2@@Z 00000001800f30a0 f   GuPCMContactConvexConvex.obj
 0001:000f3210       ?support@?$RelativeConvex@VConvexHullNoScaleV@Gu@physx@@@Gu@physx@@UEBA?AT__m128@@AEBT4@@Z 00000001800f4210 f i GuPCMContactConvexConvex.obj
 0001:000f32c0       ?support@?$RelativeConvex@VConvexHullNoScaleV@Gu@physx@@@Gu@physx@@UEBA?AT__m128@@AEBT4@AEAH@Z 00000001800f42c0 f i GuPCMContactConvexConvex.obj
 0001:000f3380       ?supportPoint@?$RelativeConvex@VConvexHullNoScaleV@Gu@physx@@@Gu@physx@@UEBA?AT__m128@@H@Z 00000001800f4380 f i GuPCMContactConvexConvex.obj
 0001:000f33e0       ??_GPCMConvexVsHeightfieldContactGenerationCallback@physx@@UEAAPEAXI@Z 00000001800f43e0 f i GuPCMContactConvexHeightField.obj
 0001:000f33e0       ??_EPCMConvexVsHeightfieldContactGenerationCallback@physx@@UEAAPEAXI@Z 00000001800f43e0 f i GuPCMContactConvexHeightField.obj
 0001:000f3410       ?PCMContactConvexHeightfield@Gu@physx@@YA_NAEBUPolygonalData@12@PEAVSupportLocal@12@AEBT__m128@@AEBVPxBounds3@2@AEBVPxHeightFieldGeometry@2@AEBVPxTransform@2@5MAEAVContactBuffer@12@AEBVFastVertex2ShapeScaling@Cm@2@_NAEAVMultiplePersistentContactManifold@12@PEAVRenderOutput@Cm@2@@Z 00000001800f4410 f   GuPCMContactConvexHeightField.obj
 0001:000f3ec0       ?onEvent@?$PCMHeightfieldContactGenerationCallback@UPCMConvexVsHeightfieldContactGenerationCallback@physx@@@Gu@physx@@UEAA_NIPEAI@Z 00000001800f4ec0 f i GuPCMContactConvexHeightField.obj
 0001:000f4480       ?pcmContactBoxHeightField@Gu@physx@@YA_NAEBVGeometryUnion@12@0AEBVPxTransform@2@1AEBUNarrowPhaseParams@12@AEAUCache@12@AEAVContactBuffer@12@PEAVRenderOutput@Cm@2@@Z 00000001800f5480 f   GuPCMContactConvexHeightField.obj
 0001:000f4700       ?pcmContactConvexHeightField@Gu@physx@@YA_NAEBVGeometryUnion@12@0AEBVPxTransform@2@1AEBUNarrowPhaseParams@12@AEAUCache@12@AEAVContactBuffer@12@PEAVRenderOutput@Cm@2@@Z 00000001800f5700 f   GuPCMContactConvexHeightField.obj
 0001:000f4da0       ??$processTriangleCache@$0BA@@PCMConvexVsMeshContactGenerationCallback@physx@@QEAAXAEAU?$TriangleCache@$0BA@@Gu@1@@Z 00000001800f5da0 f i GuPCMContactConvexMesh.obj
 0001:000f4e30       ??_GPCMConvexVsMeshContactGenerationCallback@physx@@UEAAPEAXI@Z 00000001800f5e30 f i GuPCMContactConvexMesh.obj
 0001:000f4e30       ??_EPCMConvexVsMeshContactGenerationCallback@physx@@UEAAPEAXI@Z 00000001800f5e30 f i GuPCMContactConvexMesh.obj
 0001:000f4e60       ?PCMContactConvexMesh@Gu@physx@@YA_NAEBUPolygonalData@12@PEAVSupportLocal@12@AEBT__m128@@AEBVPxBounds3@2@AEBUPxTriangleMeshGeometryLL@2@AEBVPxTransform@2@5MAEAVContactBuffer@12@AEBVFastVertex2ShapeScaling@Cm@2@7_N8AEAVMultiplePersistentContactManifold@12@PEAVRenderOutput@Cm@2@@Z 00000001800f5e60 f   GuPCMContactConvexMesh.obj
 0001:000f5a10       ?pcmContactBoxMesh@Gu@physx@@YA_NAEBVGeometryUnion@12@0AEBVPxTransform@2@1AEBUNarrowPhaseParams@12@AEAUCache@12@AEAVContactBuffer@12@PEAVRenderOutput@Cm@2@@Z 00000001800f6a10 f   GuPCMContactConvexMesh.obj
 0001:000f5d30       ?pcmContactConvexMesh@Gu@physx@@YA_NAEBVGeometryUnion@12@0AEBVPxTransform@2@1AEBUNarrowPhaseParams@12@AEAUCache@12@AEAVContactBuffer@12@PEAVRenderOutput@Cm@2@@Z 00000001800f6d30 f   GuPCMContactConvexMesh.obj
 0001:000f64f0       ?processHit@?$PCMMeshContactGenerationCallback@UPCMConvexVsMeshContactGenerationCallback@physx@@@Gu@physx@@UEAA_NAEBUPxRaycastHit@3@AEBVPxVec3@3@11AEAMPEBI@Z 00000001800f74f0 f i GuPCMContactConvexMesh.obj
 0001:000f6920       ?addGJKEPAContacts@Gu@physx@@YA_NPEBUGjkConvex@12@0AEBVPsMatTransformV@aos@shdfnd@2@W4GjkStatus@12@PEAVPersistentContact@12@T__m128@@4AEAUGjkOutput@12@AEAVPersistentContactManifold@12@@Z 00000001800f7920 f   GuPCMContactGenBoxConvex.obj
 0001:000f6b20       ?buildPartialHull@Gu@physx@@YAXAEBUPolygonalData@12@PEAVSupportLocal@12@AEAVSeparatingAxes@12@AEBT__m128@@3@Z 00000001800f7b20 f   GuPCMContactGenBoxConvex.obj
 0001:000f6de0       ?computeMTD@Gu@physx@@YA_NAEAUPolygonalData@12@0PEAVSupportLocal@12@1AEAT__m128@@2@Z 00000001800f7de0 f   GuPCMContactGenBoxConvex.obj
 0001:000f7440       ?generateFullContactManifold@Gu@physx@@YA_NAEAUPolygonalData@12@0PEAVSupportLocal@12@1PEAVPersistentContact@12@AEAIAEBT__m128@@444MM_NPEAVRenderOutput@Cm@2@M@Z 00000001800f8440 f   GuPCMContactGenBoxConvex.obj
 0001:000f8c70       ?generatedContacts@Gu@physx@@YAXAEAUPolygonalData@12@0AEBUHullPolygonData@12@1PEAVSupportLocal@12@2AEBVPsMatTransformV@aos@shdfnd@2@PEAVPersistentContact@12@AEAIAEBT__m128@@PEAVRenderOutput@Cm@2@@Z 00000001800f9c70 f   GuPCMContactGenBoxConvex.obj
 0001:000fa390       ?computeMTD@Gu@physx@@YA_NAEBVCapsuleV@12@AEAUPolygonalData@12@PEAVSupportLocal@12@AEAT__m128@@3@Z 00000001800fb390 f   GuPCMContactGenSphereCapsule.obj
 0001:000fa480       ?generateCapsuleBoxFullContactManifold@Gu@physx@@YA_NAEBVCapsuleV@12@AEAUPolygonalData@12@PEAVSupportLocal@12@AEBVPsMatTransformV@aos@shdfnd@2@PEAVPersistentContact@12@AEAIAEBT__m128@@AEAT__m128@@6M_NMPEAVRenderOutput@Cm@2@@Z 00000001800fb480 f   GuPCMContactGenSphereCapsule.obj
 0001:000fad00       ?generateFullContactManifold@Gu@physx@@YA_NAEBVCapsuleV@12@AEAUPolygonalData@12@PEAVSupportLocal@12@AEBVPsMatTransformV@aos@shdfnd@2@PEAVPersistentContact@12@AEAIAEBT__m128@@AEAT__m128@@6M_NM@Z 00000001800fbd00 f   GuPCMContactGenSphereCapsule.obj
 0001:000fb600       ?generateSphereFullContactManifold@Gu@physx@@YA_NAEBVCapsuleV@12@AEAUPolygonalData@12@PEAVSupportLocal@12@PEAVPersistentContact@12@AEAIAEBT__m128@@AEAT7@_N@Z 00000001800fc600 f   GuPCMContactGenSphereCapsule.obj
 0001:000fba50       ?generatedCapsuleBoxFaceContacts@Gu@physx@@YAXAEBVCapsuleV@12@AEAUPolygonalData@12@AEBUHullPolygonData@12@PEAVSupportLocal@12@AEBVPsMatTransformV@aos@shdfnd@2@PEAVPersistentContact@12@AEAIAEBT__m128@@7@Z 00000001800fca50 f   GuPCMContactGenSphereCapsule.obj
 0001:000fc1f0       ?generatedContactsEEContacts@Gu@physx@@YAXAEBVCapsuleV@12@AEAUPolygonalData@12@AEBUHullPolygonData@12@PEAVSupportLocal@12@AEBVPsMatTransformV@aos@shdfnd@2@PEAVPersistentContact@12@AEAIAEBT__m128@@7@Z 00000001800fd1f0 f   GuPCMContactGenSphereCapsule.obj
 0001:000fce60       ?pcmContactPlaneBox@Gu@physx@@YA_NAEBVGeometryUnion@12@0AEBVPxTransform@2@1AEBUNarrowPhaseParams@12@AEAUCache@12@AEAVContactBuffer@12@PEAVRenderOutput@Cm@2@@Z 00000001800fde60 f   GuPCMContactPlaneBox.obj
 0001:000fda10       ?pcmContactPlaneCapsule@Gu@physx@@YA_NAEBVGeometryUnion@12@0AEBVPxTransform@2@1AEBUNarrowPhaseParams@12@AEAUCache@12@AEAVContactBuffer@12@PEAVRenderOutput@Cm@2@@Z 00000001800fea10 f   GuPCMContactPlaneCapsule.obj
 0001:000fe1b0       ?pcmContactPlaneConvex@Gu@physx@@YA_NAEBVGeometryUnion@12@0AEBVPxTransform@2@1AEBUNarrowPhaseParams@12@AEAUCache@12@AEAVContactBuffer@12@PEAVRenderOutput@Cm@2@@Z 00000001800ff1b0 f   GuPCMContactPlaneConvex.obj
 0001:000feb10       ?pcmContactSphereBox@Gu@physx@@YA_NAEBVGeometryUnion@12@0AEBVPxTransform@2@1AEBUNarrowPhaseParams@12@AEAUCache@12@AEAVContactBuffer@12@PEAVRenderOutput@Cm@2@@Z 00000001800ffb10 f   GuPCMContactSphereBox.obj
 0001:000fef80       ?pcmContactSphereCapsule@Gu@physx@@YA_NAEBVGeometryUnion@12@0AEBVPxTransform@2@1AEBUNarrowPhaseParams@12@AEAUCache@12@AEAVContactBuffer@12@PEAVRenderOutput@Cm@2@@Z 00000001800fff80 f   GuPCMContactSphereCapsule.obj
 0001:000ff3e0       ?pcmContactSphereConvex@Gu@physx@@YA_NAEBVGeometryUnion@12@0AEBVPxTransform@2@1AEBUNarrowPhaseParams@12@AEAUCache@12@AEAVContactBuffer@12@PEAVRenderOutput@Cm@2@@Z 00000001801003e0 f   GuPCMContactSphereConvex.obj
 0001:001000c0       ??1?$Array@USortedTriangle@Gu@physx@@V?$InlineAllocator@$0IAA@V?$ReflectionAllocator@USortedTriangle@Gu@physx@@@shdfnd@physx@@@shdfnd@3@@shdfnd@physx@@QEAA@XZ 00000001801010c0 f i GuPCMContactSphereHeightField.obj
 0001:00100130       ??_GPCMSphereVsHeightfieldContactGenerationCallback@physx@@UEAAPEAXI@Z 0000000180101130 f i GuPCMContactSphereHeightField.obj
 0001:00100130       ??_EPCMSphereVsHeightfieldContactGenerationCallback@physx@@UEAAPEAXI@Z 0000000180101130 f i GuPCMContactSphereHeightField.obj
 0001:00100180       ?onEvent@?$PCMHeightfieldContactGenerationCallback@UPCMSphereVsHeightfieldContactGenerationCallback@physx@@@Gu@physx@@UEAA_NIPEAI@Z 0000000180101180 f i GuPCMContactSphereHeightField.obj
 0001:00100740       ?pcmContactSphereHeightField@Gu@physx@@YA_NAEBVGeometryUnion@12@0AEBVPxTransform@2@1AEBUNarrowPhaseParams@12@AEAUCache@12@AEAVContactBuffer@12@PEAVRenderOutput@Cm@2@@Z 0000000180101740 f   GuPCMContactSphereHeightField.obj
 0001:001011e0       ??$processTriangleCache@$0BA@@PCMSphereVsMeshContactGenerationCallback@physx@@QEAAXAEAU?$TriangleCache@$0BA@@Gu@1@@Z 00000001801021e0 f i GuPCMContactSphereMesh.obj
 0001:00101270       ??_GPCMSphereVsMeshContactGenerationCallback@physx@@UEAAPEAXI@Z 0000000180102270 f i GuPCMContactSphereMesh.obj
 0001:00101270       ??_EPCMSphereVsMeshContactGenerationCallback@physx@@UEAAPEAXI@Z 0000000180102270 f i GuPCMContactSphereMesh.obj
 0001:001012c0       ?pcmContactSphereMesh@Gu@physx@@YA_NAEBVGeometryUnion@12@0AEBVPxTransform@2@1AEBUNarrowPhaseParams@12@AEAUCache@12@AEAVContactBuffer@12@PEAVRenderOutput@Cm@2@@Z 00000001801022c0 f   GuPCMContactSphereMesh.obj
 0001:00101eb0       ?processHit@?$PCMMeshContactGenerationCallback@UPCMSphereVsMeshContactGenerationCallback@physx@@@Gu@physx@@UEAA_NAEBUPxRaycastHit@3@AEBVPxVec3@3@11AEAMPEBI@Z 0000000180102eb0 f i GuPCMContactSphereMesh.obj
 0001:00102270       ?pcmContactSpherePlane@Gu@physx@@YA_NAEBVGeometryUnion@12@0AEBVPxTransform@2@1AEBUNarrowPhaseParams@12@AEAUCache@12@AEAVContactBuffer@12@PEAVRenderOutput@Cm@2@@Z 0000000180103270 f   GuPCMContactSpherePlane.obj
 0001:00102400       ?pcmContactSphereSphere@Gu@physx@@YA_NAEBVGeometryUnion@12@0AEBVPxTransform@2@1AEBUNarrowPhaseParams@12@AEAUCache@12@AEAVContactBuffer@12@PEAVRenderOutput@Cm@2@@Z 0000000180103400 f   GuPCMContactSphereSphere.obj
 0001:001024e0       ?getPCMConvexData@Gu@physx@@YAXAEBVConvexHullV@12@_NAEAUPolygonalData@12@@Z 00000001801034e0 f   GuPCMShapeConvex.obj
 0001:00102640       ?getPCMConvexData@Gu@physx@@YA_NAEBVGeometryUnion@12@AEAVFastVertex2ShapeScaling@Cm@2@AEAVPxBounds3@2@AEAUPolygonalData@12@@Z 0000000180103640 f   GuPCMShapeConvex.obj
 0001:00102a00       ?getPolygonalData@PCMPolygonalBox@Gu@physx@@QEBAXPEIAUPolygonalData@23@@Z 0000000180103a00 f   GuPCMShapeConvex.obj
 0001:00102a50       ?generatePolyDataContactManifold@PCMConvexVsMeshContactGeneration@Gu@physx@@QEAA_NAEAVTriangleV@23@IIEPEAVMeshPersistentContact@23@AEAIAEBT__m128@@AEAT6@@Z 0000000180103a50 f   GuPCMTriangleContactGen.obj
 0001:00102b70       ?generateTriangleFullContactManifold@PCMConvexVsMeshContactGeneration@Gu@physx@@QEAA_NAEAVTriangleV@23@IPEBIEAEBUPolygonalData@23@PEAV?$SupportLocalImpl@VTriangleV@Gu@physx@@@23@PEAVSupportLocal@23@PEAVMeshPersistentContact@23@AEAIAEBT__m128@@AEAT9@@Z 0000000180103b70 f   GuPCMTriangleContactGen.obj
 0001:00103470       ?generateTriangleFullContactManifold@PCMConvexVsMeshContactGeneration@Gu@physx@@SA_NAEAVTriangleV@23@IEAEBUPolygonalData@23@PEAV?$SupportLocalImpl@VTriangleV@Gu@physx@@@23@PEAVSupportLocal@23@PEAVMeshPersistentContact@23@AEAIAEBT__m128@@AEAT9@PEAVRenderOutput@Cm@3@@Z 0000000180104470 f   GuPCMTriangleContactGen.obj
 0001:00105b90       ?addBatchManifoldContacts2@PersistentContactManifold@Gu@physx@@QEAAXPEBVPersistentContact@23@I@Z 0000000180106b90 f   GuPersistentContactManifold.obj
 0001:00105c00       ?addBatchManifoldContacts@PersistentContactManifold@Gu@physx@@QEAAXPEBVPersistentContact@23@IM@Z 0000000180106c00 f   GuPersistentContactManifold.obj
 0001:00105c80       ?addBatchManifoldContactsCluster@PersistentContactManifold@Gu@physx@@QEAAXPEBVPersistentContact@23@I@Z 0000000180106c80 f   GuPersistentContactManifold.obj
 0001:00105f00       ?addManifoldContactPoints@MultiplePersistentContactManifold@Gu@physx@@QEAAXPEAVMeshPersistentContact@23@IPEAPEAUPCMContactPatch@23@IAEBT__m128@@2E@Z 0000000180106f00 f   GuPersistentContactManifold.obj
 0001:00106310       ?addManifoldContactsToContactBuffer@MultiplePersistentContactManifold@Gu@physx@@QEAA_NAEAVContactBuffer@23@AEBVPsTransformV@aos@shdfnd@3@1AEBT__m128@@@Z 0000000180107310 f   GuPersistentContactManifold.obj
 0001:001065c0       ?addManifoldContactsToContactBuffer@MultiplePersistentContactManifold@Gu@physx@@QEAA_NAEAVContactBuffer@23@AEBVPsTransformV@aos@shdfnd@3@@Z 00000001801075c0 f   GuPersistentContactManifold.obj
 0001:00106830       ?addManifoldContactsToContactBuffer@PersistentContactManifold@Gu@physx@@QEAAXAEAVContactBuffer@23@AEBT__m128@@1AEBVPsTransformV@aos@shdfnd@3@11@Z 0000000180107830 f   GuPersistentContactManifold.obj
 0001:001069c0       ?addManifoldContactsToContactBuffer@PersistentContactManifold@Gu@physx@@QEAAXAEAVContactBuffer@23@AEBT__m128@@AEBVPsMatTransformV@aos@shdfnd@3@@Z 00000001801079c0 f   GuPersistentContactManifold.obj
 0001:00106a60       ?addManifoldContactsToContactBuffer@PersistentContactManifold@Gu@physx@@QEAAXAEAVContactBuffer@23@AEBT__m128@@AEBVPsTransformV@aos@shdfnd@3@1@Z 0000000180107a60 f   GuPersistentContactManifold.obj
 0001:00106bc0       ?addManifoldPoint2@PersistentContactManifold@Gu@physx@@QEAAIAEBT__m128@@000@Z 0000000180107bc0 f   GuPersistentContactManifold.obj
 0001:00106cf0       ?addManifoldPoint@Gu@physx@@YAXPEAVPersistentContact@12@AEAVPersistentContactManifold@12@AEAUGjkOutput@12@AEBVPsMatTransformV@aos@shdfnd@2@T__m128@@@Z 0000000180107cf0 f   GuPersistentContactManifold.obj
 0001:00106ea0       ?addManifoldPoint@PersistentContactManifold@Gu@physx@@QEAAIAEBT__m128@@000@Z 0000000180107ea0 f   GuPersistentContactManifold.obj
 0001:001072f0       ?drawLine@MultiplePersistentContactManifold@Gu@physx@@SAXAEAVRenderOutput@Cm@3@AEBT__m128@@1I@Z 00000001801082f0 f   GuPersistentContactManifold.obj
 0001:001073b0       ?drawLine@MultiplePersistentContactManifold@Gu@physx@@SAXAEAVRenderOutput@Cm@3@VPxVec3@3@1I@Z 00000001801083b0 f   GuPersistentContactManifold.obj
 0001:00107470       ?drawManifold@MultiplePersistentContactManifold@Gu@physx@@QEAAXAEAVRenderOutput@Cm@3@AEBVPsTransformV@aos@shdfnd@3@1@Z 0000000180108470 f   GuPersistentContactManifold.obj
 0001:00107c20       ?drawPoint@MultiplePersistentContactManifold@Gu@physx@@SAXAEAVRenderOutput@Cm@3@AEBT__m128@@MI@Z 0000000180108c20 f   GuPersistentContactManifold.obj
 0001:00107e00       ?drawPolygon@MultiplePersistentContactManifold@Gu@physx@@SAXAEAVRenderOutput@Cm@3@AEBVPsTransformV@aos@shdfnd@3@PEAT__m128@@II@Z 0000000180108e00 f   GuPersistentContactManifold.obj
 0001:00108070       ?findRotationMatrixFromZAxis@Gu@physx@@YA?AUMat33V@aos@shdfnd@2@AEBT__m128@@@Z 0000000180109070 f   GuPersistentContactManifold.obj
 0001:001082f0       ?fromBuffer@MultiplePersistentContactManifold@Gu@physx@@QEAAXPEIAE@Z 00000001801092f0 f   GuPersistentContactManifold.obj
 0001:00108440       ?reduceBatchContacts2@PersistentContactManifold@Gu@physx@@QEAAXPEBVPersistentContact@23@I@Z 0000000180109440 f   GuPersistentContactManifold.obj
 0001:00108640       ?reduceBatchContacts@PersistentContactManifold@Gu@physx@@QEAAXPEBVPersistentContact@23@IM@Z 0000000180109640 f   GuPersistentContactManifold.obj
 0001:00108b00       ?reduceBatchContactsCapsule@SinglePersistentContactManifold@Gu@physx@@QEAA?AT__m128@@PEBVMeshPersistentContact@23@IAEAUPCMContactPatch@23@@Z 0000000180109b00 f   GuPersistentContactManifold.obj
 0001:00108d90       ?reduceBatchContactsCluster@PersistentContactManifold@Gu@physx@@QEAAXPEBVPersistentContact@23@I@Z 0000000180109d90 f   GuPersistentContactManifold.obj
 0001:00109230       ?reduceBatchContactsConvex@SinglePersistentContactManifold@Gu@physx@@QEAA?AT__m128@@PEBVMeshPersistentContact@23@IAEAUPCMContactPatch@23@@Z 000000018010a230 f   GuPersistentContactManifold.obj
 0001:00109830       ?reduceContacts@SinglePersistentContactManifold@Gu@physx@@SAIPEAVMeshPersistentContact@23@I@Z 000000018010a830 f   GuPersistentContactManifold.obj
 0001:00109d40       ?reduceContactsForPCM@PersistentContactManifold@Gu@physx@@QEAAIAEBT__m128@@00@Z 000000018010ad40 f   GuPersistentContactManifold.obj
 0001:0010a2e0       ?refreshContactPoints@SinglePersistentContactManifold@Gu@physx@@QEAA?AT__m128@@AEBVPsMatTransformV@aos@shdfnd@3@AEBT4@1@Z 000000018010b2e0 f   GuPersistentContactManifold.obj
 0001:0010a430       ?replaceManifoldPoint@PersistentContactManifold@Gu@physx@@QEAA_NAEBT__m128@@000@Z 000000018010b430 f   GuPersistentContactManifold.obj
 0001:0010a500       ?sweepBoxBox@Gu@physx@@YA_NAEBVBox@12@0AEBVPxVec3@2@MV?$PxFlags@W4Enum@PxHitFlag@physx@@G@2@AEAUPxSweepHit@2@@Z 000000018010b500 f   GuSweepBoxBox.obj
 0001:0010bb00       ?sweepBoxSphere@Gu@physx@@YA_NAEBVBox@12@MAEBVPxVec3@2@1MAEAMAEAV42@V?$PxFlags@W4Enum@PxHitFlag@physx@@G@2@@Z 000000018010cb00 f   GuSweepBoxSphere.obj
 0001:0010c740       ?sweepBoxTriangle@Gu@physx@@YA_NAEBVPxTriangle@2@AEBVPxBounds3@2@AEBVPxVec3@2@2AEAV52@3AEAM_N@Z 000000018010d740 f   GuSweepBoxTriangle_FeatureBased.obj
 0001:0010dde0       ?triBoxSweepTestBoxSpace@Gu@physx@@YAHAEBVPxTriangle@2@AEBVPxVec3@2@11MAEAM_N@Z 000000018010ede0 f   GuSweepBoxTriangle_SAT.obj
 0001:0010f6f0       ?sweepCapsuleBox@Gu@physx@@YA_NAEBVCapsule@12@AEBVPxTransform@2@AEBVPxVec3@2@2MAEAV52@AEAM3V?$PxFlags@W4Enum@PxHitFlag@physx@@G@2@@Z 00000001801106f0 f   GuSweepCapsuleBox.obj
 0001:0010fa60       ?distancePointSegmentSquared@Gu@physx@@YAMAEBVSegment@12@AEBVPxVec3@2@PEAM@Z 0000000180110a60 f i GuSweepCapsuleCapsule.obj
 0001:0010fde0       ?sweepCapsuleCapsule@Gu@physx@@YA_NAEBVCapsule@12@0AEBVPxVec3@2@MAEAMAEAV42@3IAEAG@Z 0000000180110de0 f   GuSweepCapsuleCapsule.obj
 0001:00110bb0       ?sweepCapsuleTriangles_Precise@Gu@physx@@YA_NIPEIBVPxTriangle@2@AEBVCapsule@12@AEBVPxVec3@2@MPEIBIAEAUPxSweepHit@2@AEAV52@V?$PxFlags@W4Enum@PxHitFlag@physx@@G@2@_NPEBVBoxPadded@12@@Z 0000000180111bb0 f   GuSweepCapsuleTriangle.obj
 0001:00112c40       ?sweepSphereCapsule@Gu@physx@@YA_NAEBVSphere@12@AEBVCapsule@12@AEBVPxVec3@2@MAEAMAEAV52@4V?$PxFlags@W4Enum@PxHitFlag@physx@@G@2@@Z 0000000180113c40 f   GuSweepSphereCapsule.obj
 0001:001132e0       ?sweepSphereSphere@Gu@physx@@YA_NAEBVPxVec3@2@M0M0AEAMAEAV32@@Z 00000001801142e0 f   GuSweepSphereSphere.obj
 0001:00113570       ?sweepSphereTriangles@Gu@physx@@YA_NIPEIBVPxTriangle@2@AEBVPxVec3@2@M1MPEIBIAEAUPxSweepHit@2@AEAV42@_N555@Z 0000000180114570 f   GuSweepSphereTriangle.obj
 0001:00113e20       ?sweepSphereVSQuad@Gu@physx@@YA_NPEIBVPxVec3@2@AEBV32@1M1AEAM@Z 0000000180114e20 f   GuSweepSphereTriangle.obj
 0001:001152b0       ?sweepSphereVSTri@Gu@physx@@YA_NPEIBVPxVec3@2@AEBV32@1M1AEAMAEA_N_N@Z 00000001801162b0 f   GuSweepSphereTriangle.obj
 0001:001161a0       ??$gjk@U?$LocalConvex@VTriangleV@Gu@physx@@@Gu@physx@@U?$LocalConvex@VBoxV@Gu@physx@@@23@@Gu@physx@@YA?AW4GjkStatus@01@AEBU?$LocalConvex@VTriangleV@Gu@physx@@@01@AEBU?$LocalConvex@VBoxV@Gu@physx@@@01@AEBT__m128@@2AEAT5@333@Z 00000001801171a0 f i GuSweepTriangleUtils.obj
 0001:00116e90       ?computeBoxTriImpactData@Gu@physx@@YAXAEAVPxVec3@2@0AEBV32@1AEBVPxTriangle@2@M@Z 0000000180117e90 f   GuSweepTriangleUtils.obj
 0001:00117120       ?computeEdgeEdgeNormal@Gu@physx@@YAXAEAVPxVec3@2@AEBV32@1111M@Z 0000000180118120 f   GuSweepTriangleUtils.obj
 0001:001173e0       ?computeSphereTriImpactData@Gu@physx@@YAXAEAVPxVec3@2@0AEBV32@1MAEBVPxTriangle@2@@Z 00000001801183e0 f   GuSweepTriangleUtils.obj
 0001:001178bc       __imp_load_PxGetFoundation 00000001801188bc f   PhysXFoundation_64:PhysXFoundation_64.dll
 0001:001178c8       __tailMerge_physxfoundation_64_dll 00000001801188c8     PhysXFoundation_64:PhysXFoundation_64.dll
 0001:00117941       __imp_load_?getAllocator@shdfnd@physx@@YAAEAVPxAllocatorCallback@2@XZ 0000000180118941 f   PhysXFoundation_64:PhysXFoundation_64.dll
 0001:0011794d       __imp_load_?getInstance@Foundation@shdfnd@physx@@SAAEAV123@XZ 000000018011894d f   PhysXFoundation_64:PhysXFoundation_64.dll
 0001:00117959       __imp_load_?error@Foundation@shdfnd@physx@@QEAAXW4Enum@PxErrorCode@3@PEBDH1ZZ 0000000180118959 f   PhysXFoundation_64:PhysXFoundation_64.dll
 0001:00117965       __imp_load_?vsnprintf@shdfnd@physx@@YAHPEAD_KPEBD0@Z 0000000180118965 f   PhysXFoundation_64:PhysXFoundation_64.dll
 0001:00117971       __imp_load_??0MutexImpl@shdfnd@physx@@QEAA@XZ 0000000180118971 f   PhysXFoundation_64:PhysXFoundation_64.dll
 0001:0011797d       __imp_load_??1MutexImpl@shdfnd@physx@@QEAA@XZ 000000018011897d f   PhysXFoundation_64:PhysXFoundation_64.dll
 0001:00117989       __imp_load_?lock@MutexImpl@shdfnd@physx@@QEAAXXZ 0000000180118989 f   PhysXFoundation_64:PhysXFoundation_64.dll
 0001:00117995       __imp_load_?unlock@MutexImpl@shdfnd@physx@@QEAAXXZ 0000000180118995 f   PhysXFoundation_64:PhysXFoundation_64.dll
 0001:001179a1       __imp_load_?getSize@MutexImpl@shdfnd@physx@@SAIXZ 00000001801189a1 f   PhysXFoundation_64:PhysXFoundation_64.dll
 0001:001179ad       __imp_load_?atomicDecrement@shdfnd@physx@@YAHPECH@Z 00000001801189ad f   PhysXFoundation_64:PhysXFoundation_64.dll
 0001:001179b9       __imp_load_?PxTransformFromSegment@physx@@YA?AVPxTransform@1@AEBVPxVec3@1@0PEAM@Z 00000001801189b9 f   PhysXFoundation_64:PhysXFoundation_64.dll
 0001:001179c5       __imp_load_?optimizeBoundingBox@shdfnd@physx@@YA?AVPxVec3@2@AEAVPxMat33@2@@Z 00000001801189c5 f   PhysXFoundation_64:PhysXFoundation_64.dll
 0001:001179d1       __imp_load_?allocate@TempAllocator@shdfnd@physx@@QEAAPEAX_KPEBDH@Z 00000001801189d1 f   PhysXFoundation_64:PhysXFoundation_64.dll
 0001:001179dd       __imp_load_?deallocate@TempAllocator@shdfnd@physx@@QEAAXPEAX@Z 00000001801189dd f   PhysXFoundation_64:PhysXFoundation_64.dll
 0001:001179e9       __imp_load_?atomicIncrement@shdfnd@physx@@YAHPECH@Z 00000001801189e9 f   PhysXFoundation_64:PhysXFoundation_64.dll
 0001:001179f8       ?DloadAcquireSectionWriteAccess@@YAXXZ 00000001801189f8 f i Delayimp:delayhlp.obj
 0001:00117aa4       ?DloadGetSRWLockFunctionPointers@@YAEXZ 0000000180118aa4 f i Delayimp:delayhlp.obj
 0001:00117b40       ?DloadMakePermanentImageCommit@@YAXPEAX_K@Z 0000000180118b40 f i Delayimp:delayhlp.obj
 0001:00117bd8       ?DloadObtainSection@@YAPEAXPEAK0@Z 0000000180118bd8 f i Delayimp:delayhlp.obj
 0001:00117c74       ?DloadProtectSection@@YAXKPEAK@Z 0000000180118c74 f i Delayimp:delayhlp.obj
 0001:00117d04       ?DloadReleaseSectionWriteAccess@@YAXXZ 0000000180118d04 f i Delayimp:delayhlp.obj
 0001:00117d98       __delayLoadHelper2         0000000180118d98 f   Delayimp:delayhlp.obj
 0001:0011806c       ??3@YAXPEAX_K@Z            000000018011906c f   LIBCMT:delete_scalar_size.obj
 0001:0011806c       ??_V@YAXPEAX@Z             000000018011906c f   LIBCMT:delete_array.obj
 0001:00118074       ??_Etype_info@@UEAAPEAXI@Z 0000000180119074 f i LIBCMT:std_type_info_static.obj
 0001:00118074       ??_Gtype_info@@UEAAPEAXI@Z 0000000180119074 f i LIBCMT:std_type_info_static.obj
 0001:001180a0       ?__scrt_initialize_type_info@@YAXXZ 00000001801190a0 f   LIBCMT:tncleanup.obj
 0001:001180b0       ?__scrt_uninitialize_type_info@@YAXXZ 00000001801190b0 f   LIBCMT:tncleanup.obj
 0001:001180d0       __chkstk                   00000001801190d0 f   LIBCMT:chkstk.obj
 0001:001180d0       _alloca_probe              00000001801190d0 f   LIBCMT:chkstk.obj
 0001:00118120       __vdecl_sinf4              0000000180119120 f   LIBCMT:svml_ssinf4_dispatch.obj
 0001:00118140       __libm_sse2_sincosf_       0000000180119140 f   LIBCMT:svml_ssinf4_dispatch.obj
 0001:00118183       __libm_sse2_sincosf4_      0000000180119183 f   LIBCMT:svml_ssinf4_dispatch.obj
 0001:00118190       ??3@YAXPEAX@Z              0000000180119190 f   LIBCMT:delete_scalar.obj
 0001:001184b8       _DllMainCRTStartup         00000001801194b8 f   LIBCMT:dll_dllmain.obj
 0001:001184f8       __isa_available_init       00000001801194f8 f   LIBCMT:cpu_disp.obj
 0001:001186a0       __sse2_sinf4@@16           00000001801196a0 f   LIBCMT:svml_ssinf4_sse2.obj
 0001:00118fe0       __sse4_sinf4@@16           0000000180119fe0 f   LIBCMT:svml_ssinf4_sse4.obj
 0001:00119754       __security_init_cookie     000000018011a754 f   LIBCMT:gs_support.obj
 0001:00119800       __local_stdio_printf_options 000000018011a800 f i LIBCMT:default_local_stdio_options.obj
 0001:00119808       __local_stdio_scanf_options 000000018011a808 f i LIBCMT:default_local_stdio_options.obj
 0001:00119810       __scrt_initialize_default_local_stdio_options 000000018011a810 f   LIBCMT:default_local_stdio_options.obj
 0001:0011982c       __scrt_acquire_startup_lock 000000018011a82c f   LIBCMT:utility.obj
 0001:00119868       __scrt_dllmain_after_initialize_c 000000018011a868 f   LIBCMT:utility.obj
 0001:0011989c       __scrt_dllmain_before_initialize_c 000000018011a89c f   LIBCMT:utility.obj
 0001:001198b4       __scrt_dllmain_crt_thread_attach 000000018011a8b4 f   LIBCMT:utility.obj
 0001:001198dc       __scrt_dllmain_crt_thread_detach 000000018011a8dc f   LIBCMT:utility.obj
 0001:001198f4       __scrt_dllmain_exception_filter 000000018011a8f4 f   LIBCMT:utility.obj
 0001:00119954       __scrt_dllmain_uninitialize_c 000000018011a954 f   LIBCMT:utility.obj
 0001:00119984       __scrt_dllmain_uninitialize_critical 000000018011a984 f   LIBCMT:utility.obj
 0001:00119998       __scrt_initialize_crt      000000018011a998 f   LIBCMT:utility.obj
 0001:001199e4       __scrt_initialize_onexit_tables 000000018011a9e4 f   LIBCMT:utility.obj
 0001:00119a70       __scrt_is_nonwritable_in_current_image 000000018011aa70 f   LIBCMT:utility.obj
 0001:00119b08       __scrt_release_startup_lock 000000018011ab08 f   LIBCMT:utility.obj
 0001:00119b2c       __scrt_uninitialize_crt    000000018011ab2c f   LIBCMT:utility.obj
 0001:00119b58       __scrt_get_dyn_tls_init_callback 000000018011ab58 f   LIBCMT:dyn_tls_init.obj
 0001:00119b60       __crt_debugger_hook        000000018011ab60 f   LIBCMT:utility_desktop.obj
 0001:00119b68       __scrt_fastfail            000000018011ab68 f   LIBCMT:utility_desktop.obj
 0001:00119cb4       _RTC_Initialize            000000018011acb4 f   LIBCMT:initsect.obj
 0001:00119cf0       _RTC_Terminate             000000018011acf0 f   LIBCMT:initsect.obj
 0001:00119d30       __common_ssin_cout_rare    000000018011ad30 f   LIBCMT:svml_s_sin_cout.obj
 0001:00119da0       __scrt_is_ucrt_dll_in_use  000000018011ada0 f   LIBCMT:ucrt_detection.obj
 0001:00119dac       _get_purecall_handler      000000018011adac f   libvcruntime:purevirt.obj
 0001:00119db8       _purecall                  000000018011adb8 f   libvcruntime:purevirt.obj
 0001:00119ddc       __std_type_info_compare    000000018011addc f   libvcruntime:std_type_info.obj
 0001:00119e04       __std_type_info_destroy_list 000000018011ae04 f   libvcruntime:std_type_info.obj
 0001:00119e30       __std_type_info_name       000000018011ae30 f   libvcruntime:std_type_info.obj
 0001:00119f60       memcpy_repmovs             000000018011af60 f   libvcruntime:memcpy.obj
 0001:00119f80       memcpy                     000000018011af80 f   libvcruntime:memcpy.obj
 0001:00119f80       memmove                    000000018011af80 f   libvcruntime:memcpy.obj
 0001:0011a610       memset_repmovs             000000018011b610 f   libvcruntime:memset.obj
 0001:0011a630       memset                     000000018011b630 f   libvcruntime:memset.obj
 0001:0011a7c0       strstr                     000000018011b7c0 f   libvcruntime:strstr.obj
 0001:0011a9bc       __C_specific_handler       000000018011b9bc f   libvcruntime:riscchandler.obj
 0001:0011abc8       __vcrt_initialize          000000018011bbc8 f   libvcruntime:initialization.obj
 0001:0011abf0       __vcrt_thread_attach       000000018011bbf0 f   libvcruntime:initialization.obj
 0001:0011ac04       __vcrt_thread_detach       000000018011bc04 f   libvcruntime:initialization.obj
 0001:0011ac18       __vcrt_uninitialize        000000018011bc18 f   libvcruntime:initialization.obj
 0001:0011ac34       __vcrt_uninitialize_critical 000000018011bc34 f   libvcruntime:initialization.obj
 0001:0011ac44       __DestructExceptionObject  000000018011bc44 f   libvcruntime:ehhelpers.obj
 0001:0011acb4       ?_CallMemberFunction0@@YAXQEAX0@Z 000000018011bcb4 f i libvcruntime:ehhelpers.obj
 0001:0011acb8       _IsExceptionObjectToBeDestroyed 000000018011bcb8 f   libvcruntime:ehhelpers.obj
 0001:0011ace8       __AdjustPointer            000000018011bce8 f   libvcruntime:ehhelpers.obj
 0001:0011ad0c       __FrameUnwindFilter        000000018011bd0c f   libvcruntime:ehhelpers.obj
 0001:0011ad74       __std_terminate            000000018011bd74 f   libvcruntime:ehhelpers.obj
 0001:0011ad80       ??$?0$00@DName@@QEAA@PEBDU?$StringLifeSelector@$00@@@Z 000000018011bd80 f i libvcruntime:undname.obj
 0001:0011adc0       ??$?0$01@DName@@QEAA@PEBDU?$StringLifeSelector@$01@@@Z 000000018011bdc0 f i libvcruntime:undname.obj
 0001:0011adc0       ??$?0$0A@@DName@@QEAA@PEBDU?$StringLifeSelector@$0A@@@@Z 000000018011bdc0 f i libvcruntime:undname.obj
 0001:0011ae00       ??$?0$01@pcharNode@@QEAA@PEBDHU?$StringLifeSelector@$01@@@Z 000000018011be00 f i libvcruntime:undname.obj
 0001:0011ae00       ??$?0$0A@@pcharNode@@QEAA@PEBDHU?$StringLifeSelector@$0A@@@@Z 000000018011be00 f i libvcruntime:undname.obj
 0001:0011ae74       ??$append@VDNameStatusNode@@@DName@@AEAAXPEBVDNameStatusNode@@@Z 000000018011be74 f i libvcruntime:undname.obj
 0001:0011ae74       ??$append@VcharNode@@@DName@@AEAAXPEBVcharNode@@@Z 000000018011be74 f i libvcruntime:undname.obj
 0001:0011ae74       ??$append@VDNameNode@@@DName@@AEAAXPEBVDNameNode@@@Z 000000018011be74 f i libvcruntime:undname.obj
 0001:0011ae74       ??$append@VpcharNode@@@DName@@AEAAXPEBVpcharNode@@@Z 000000018011be74 f i libvcruntime:undname.obj
 0001:0011aed8       ??$doPchar@$00@DName@@AEAAXPEBDH@Z 000000018011bed8 f i libvcruntime:undname.obj
 0001:0011af7c       ??$doPchar@$0A@@DName@@AEAAXPEBDH@Z 000000018011bf7c f i libvcruntime:undname.obj
 0001:0011af7c       ??$doPchar@$01@DName@@AEAAXPEBDH@Z 000000018011bf7c f i libvcruntime:undname.obj
 0001:0011b014       ??0DName@@QEAA@AEAPEBDD@Z  000000018011c014 f   libvcruntime:undname.obj
 0001:0011b0c4       ??0DName@@QEAA@AEBUStringLiteral@@@Z 000000018011c0c4 f   libvcruntime:undname.obj
 0001:0011b0f0       ??0DName@@QEAA@PEAV0@@Z    000000018011c0f0 f   libvcruntime:undname.obj
 0001:0011b174       ??0DName@@QEAA@_J@Z        000000018011c174 f   libvcruntime:undname.obj
 0001:0011b21c       ??0DName@@QEAA@_K@Z        000000018011c21c f   libvcruntime:undname.obj
 0001:0011b2ac       ??2@YAPEAX_KAEAV_HeapManager@@H@Z 000000018011c2ac f   libvcruntime:undname.obj
 0001:0011b2d8       ??AReplicator@@QEBA?AVDName@@H@Z 000000018011c2d8 f   libvcruntime:undname.obj
 0001:0011b318       ??HDName@@QEBA?AV0@AEBUStringLiteral@@@Z 000000018011c318 f   libvcruntime:undname.obj
 0001:0011b344       ??HDName@@QEBA?AV0@AEBV0@@Z 000000018011c344 f   libvcruntime:undname.obj
 0001:0011b370       ??HDName@@QEBA?AV0@D@Z     000000018011c370 f   libvcruntime:undname.obj
 0001:0011b39c       ??HDName@@QEBA?AV0@W4DNameStatus@@@Z 000000018011c39c f   libvcruntime:undname.obj
 0001:0011b3c8       ??YDName@@QEAAAEAV0@AEBUStringLiteral@@@Z 000000018011c3c8 f   libvcruntime:undname.obj
 0001:0011b448       ??YDName@@QEAAAEAV0@AEBV0@@Z 000000018011c448 f   libvcruntime:undname.obj
 0001:0011b4fc       ??YDName@@QEAAAEAV0@D@Z    000000018011c4fc f   libvcruntime:undname.obj
 0001:0011b568       ??YDName@@QEAAAEAV0@W4DNameStatus@@@Z 000000018011c568 f   libvcruntime:undname.obj
 0001:0011b5d4       ??YReplicator@@QEAAAEAV0@AEBVDName@@@Z 000000018011c5d4 f   libvcruntime:undname.obj
 0001:0011b62c       ?UScore@UnDecorator@@SA?AUStringLiteral@@W4Tokens@@@Z 000000018011c62c f   libvcruntime:undname.obj
 0001:0011b678       ?composeDeclaration@UnDecorator@@CA?AVDName@@AEBV2@@Z 000000018011c678 f i libvcruntime:undname.obj
 0001:0011c520       ?doPchar@DName@@AEAAXD@Z   000000018011d520 f   libvcruntime:undname.obj
 0001:0011c570       ?getAddressOf@UnDecorator@@CA?AVDName@@XZ 000000018011d570 f   libvcruntime:undname.obj
 0001:0011c600       ?getArgumentList@UnDecorator@@CA?AVDName@@XZ 000000018011d600 f   libvcruntime:undname.obj
 0001:0011c794       ?getArgumentTypes@UnDecorator@@CA?AVDName@@XZ 000000018011d794 f   libvcruntime:undname.obj
 0001:0011c8e0       ?getArrayAccess@UnDecorator@@CA?AVDName@@XZ 000000018011d8e0 f   libvcruntime:undname.obj
 0001:0011c97c       ?getArrayObject@UnDecorator@@CA?AVDName@@XZ 000000018011d97c f   libvcruntime:undname.obj
 0001:0011ca50       ?getArrayType@UnDecorator@@CA?AVDName@@AEBV2@@Z 000000018011da50 f i libvcruntime:undname.obj
 0001:0011cc98       ?getBasedType@UnDecorator@@CA?AVDName@@XZ 000000018011dc98 f   libvcruntime:undname.obj
 0001:0011cd90       ?getBasicDataType@UnDecorator@@CA?AVDName@@AEBV2@@Z 000000018011dd90 f   libvcruntime:undname.obj
 0001:0011d334       ?getCallingConvention@UnDecorator@@CA?AVDName@@XZ 000000018011e334 f   libvcruntime:undname.obj
 0001:0011d474       ?getDataIndirectType@UnDecorator@@CA?AVDName@@AEBV2@W4IndirectionKind@@0H@Z 000000018011e474 f   libvcruntime:undname.obj
 0001:0011dd0c       ?getDataType@UnDecorator@@CA?AVDName@@PEAV2@@Z 000000018011ed0c f   libvcruntime:undname.obj
 0001:0011de20       ?getDecoratedName@UnDecorator@@CA?AVDName@@XZ 000000018011ee20 f   libvcruntime:undname.obj
 0001:0011e104       ?getDimension@UnDecorator@@CA?AVDName@@_N@Z 000000018011f104 f   libvcruntime:undname.obj
 0001:0011e24c       ?getDispatchTarget@UnDecorator@@CA?AVDName@@XZ 000000018011f24c f   libvcruntime:undname.obj
 0001:0011e2b0       ?getECSUDataType@UnDecorator@@CA?AVDName@@XZ 000000018011f2b0 f   libvcruntime:undname.obj
 0001:0011e4a8       ?getEnumType@UnDecorator@@CA?AVDName@@XZ 000000018011f4a8 f i libvcruntime:undname.obj
 0001:0011e5d8       ?getExtendedDataIndirectType@UnDecorator@@CA?AVDName@@AEAW4IndirectionKind@@AEA_NH@Z 000000018011f5d8 f   libvcruntime:undname.obj
 0001:0011e7e0       ?getExternalDataType@UnDecorator@@CA?AVDName@@AEBV2@@Z 000000018011f7e0 f i libvcruntime:undname.obj
 0001:0011e8a0       ?getFloatingPoint@UnDecorator@@CA?AVDName@@H@Z 000000018011f8a0 f   libvcruntime:undname.obj
 0001:0011e9c8       ?getFunctionIndirectType@UnDecorator@@CA?AVDName@@AEBV2@@Z 000000018011f9c8 f   libvcruntime:undname.obj
 0001:0011ef00       ?getLastChar@DNameStatusNode@@UEBADXZ 000000018011ff00 f i libvcruntime:undname.obj
 0001:0011ef0c       ?getLastChar@charNode@@UEBADXZ 000000018011ff0c f i libvcruntime:undname.obj
 0001:0011ef10       ?getLastChar@pDNameNode@@UEBADXZ 000000018011ff10 f i libvcruntime:undname.obj
 0001:0011ef3c       ?getLastChar@pairNode@@UEBADXZ 000000018011ff3c f i libvcruntime:undname.obj
 0001:0011ef74       ?getLastChar@pcharNode@@UEBADXZ 000000018011ff74 f i libvcruntime:undname.obj
 0001:0011ef88       ?getLexicalFrame@UnDecorator@@CA?AVDName@@XZ 000000018011ff88 f i libvcruntime:undname.obj
 0001:0011efec       ?getMemberAccess@UnDecorator@@CA?AVDName@@XZ 000000018011ffec f   libvcruntime:undname.obj
 0001:0011f080       ?getMemoryWithBuffer@_HeapManager@@QEAAPEAX_K@Z 0000000180120080 f   libvcruntime:undname.obj
 0001:0011f110       ?getNoexcept@UnDecorator@@CA?AVDName@@XZ 0000000180120110 f   libvcruntime:undname.obj
 0001:0011f174       ?getNumberOfDimensions@UnDecorator@@CAHXZ 0000000180120174 f   libvcruntime:undname.obj
 0001:0011f1d4       ?getOperatorName@UnDecorator@@CA?AVDName@@_NPEA_N@Z 00000001801201d4 f i libvcruntime:undname.obj
 0001:0011fb84       ?getPointerToMember@UnDecorator@@CA?AVDName@@XZ 0000000180120b84 f   libvcruntime:undname.obj
 0001:0011fc7c       ?getPrimaryDataType@UnDecorator@@CA?AVDName@@AEBV2@@Z 0000000180120c7c f   libvcruntime:undname.obj
 0001:0011ff30       ?getPtrRefDataType@UnDecorator@@CA?AVDName@@AEBV2@H@Z 0000000180120f30 f   libvcruntime:undname.obj
 0001:001200fc       ?getPtrRefType@UnDecorator@@CA?AVDName@@AEBV2@0W4IndirectionKind@@@Z 00000001801210fc f   libvcruntime:undname.obj
 0001:001202d4       ?getRestrictionSpec@UnDecorator@@CA?AVDName@@XZ 00000001801212d4 f   libvcruntime:undname.obj
 0001:001204a0       ?getReturnType@UnDecorator@@CA?AVDName@@PEAV2@@Z 00000001801214a0 f   libvcruntime:undname.obj
 0001:001204d4       ?getScope@UnDecorator@@CA?AVDName@@XZ 00000001801214d4 f   libvcruntime:undname.obj
 0001:00120988       ?getScopedName@UnDecorator@@CA?AVDName@@XZ 0000000180121988 f   libvcruntime:undname.obj
 0001:00120ac4       ?getSignedDimension@UnDecorator@@CA?AVDName@@XZ 0000000180121ac4 f   libvcruntime:undname.obj
 0001:00120b4c       ?getString@DNameStatusNode@@UEBAPEADPEAD0@Z 0000000180121b4c f i libvcruntime:undname.obj
 0001:00120b94       ?getString@charNode@@UEBAPEADPEAD0@Z 0000000180121b94 f i libvcruntime:undname.obj
 0001:00120ba8       ?getString@pDNameNode@@UEBAPEADPEAD0@Z 0000000180121ba8 f i libvcruntime:undname.obj
 0001:00120bd8       ?getString@pairNode@@UEBAPEADPEAD0@Z 0000000180121bd8 f i libvcruntime:undname.obj
 0001:00120c24       ?getString@pcharNode@@UEBAPEADPEAD0@Z 0000000180121c24 f i libvcruntime:undname.obj
 0001:00120c5c       ?getStringEncoding@UnDecorator@@CA?AVDName@@W4PrefixKind@@H@Z 0000000180121c5c f   libvcruntime:undname.obj
 0001:00120d54       ?getStringObject@UnDecorator@@CA?AVDName@@XZ 0000000180121d54 f   libvcruntime:undname.obj
 0001:00120dbc       ?getSymbolName@UnDecorator@@CA?AVDName@@XZ 0000000180121dbc f i libvcruntime:undname.obj
 0001:00120e08       ?getTemplateArgumentList@UnDecorator@@CA?AVDName@@XZ 0000000180121e08 f   libvcruntime:undname.obj
 0001:0012107c       ?getTemplateName@UnDecorator@@CA?AVDName@@_N@Z 000000018012207c f   libvcruntime:undname.obj
 0001:00121310       ?getTemplateNonTypeArgument@UnDecorator@@CA?AVDName@@XZ 0000000180122310 f   libvcruntime:undname.obj
 0001:00121840       ?getTemplateTypeArgument@UnDecorator@@CA?AVDName@@XZ 0000000180122840 f   libvcruntime:undname.obj
 0001:001219a8       ?getThrowTypes@UnDecorator@@CA?AVDName@@XZ 00000001801229a8 f   libvcruntime:undname.obj
 0001:001219cc       ?getTypeEncoding@UnDecorator@@CAHXZ 00000001801229cc f i libvcruntime:undname.obj
 0001:00121d80       ?getUndecoratedName@UnDecorator@@QEAAPEADPEADH@Z 0000000180122d80 f i libvcruntime:undname.obj
 0001:00121ed4       ?getUnionObject@UnDecorator@@CA?AVDName@@XZ 0000000180122ed4 f   libvcruntime:undname.obj
 0001:00121fac       ?getVCallThunkType@UnDecorator@@CA?AVDName@@XZ 0000000180122fac f i libvcruntime:undname.obj
 0001:00122024       ?getValue@UnDecorator@@CA?AV?$optional@_K@std@@XZ 0000000180123024 f   libvcruntime:undname.obj
 0001:00122098       ?getValueObject@UnDecorator@@CA?AVDName@@XZ 0000000180123098 f   libvcruntime:undname.obj
 0001:001221fc       ?getVdispMapType@UnDecorator@@CA?AVDName@@AEBV2@@Z 00000001801231fc f i libvcruntime:undname.obj
 0001:00122278       ?getVfTableType@UnDecorator@@CA?AVDName@@AEBV2@@Z 0000000180123278 f i libvcruntime:undname.obj
 0001:00122480       ?getZName@UnDecorator@@CA?AVDName@@_N0@Z 0000000180123480 f   libvcruntime:undname.obj
 0001:0012275c       ?length@DNameStatusNode@@UEBAHXZ 000000018012375c f i libvcruntime:undname.obj
 0001:0012275c       ?raw_length@DNameStatusNode@@UEBAHXZ 000000018012375c f i libvcruntime:undname.obj
 0001:00122760       ?length@pDNameNode@@UEBAHXZ 0000000180123760 f i libvcruntime:undname.obj
 0001:00122788       ?length@pairNode@@UEBAHXZ  0000000180123788 f i libvcruntime:undname.obj
 0001:001227d0       ?parseDecoratedName@UnDecorator@@CA?AVDName@@XZ 00000001801237d0 f   libvcruntime:undname.obj
 0001:001228e8       ?raw_length@pDNameNode@@UEBAHXZ 00000001801238e8 f i libvcruntime:undname.obj
 0001:001228ec       __unDName                  00000001801238ec f   libvcruntime:undname.obj
 0001:00122914       __unDNameEx                0000000180123914 f   libvcruntime:undname.obj
 0001:00122a48       sprintf_s                  0000000180123a48 f i libvcruntime:undname.obj
 0001:00122ab0       _NLG_Notify                0000000180123ab0 f   libvcruntime:notify.obj
 0001:00122ad0       __NLG_Dispatch2            0000000180123ad0 f   libvcruntime:notify.obj
 0001:00122ae0       __NLG_Return2              0000000180123ae0 f   libvcruntime:notify.obj
 0001:00122ae4       __except_validate_context_record 0000000180123ae4 f   libvcruntime:jbcxrval.obj
 0001:00122b1c       __vcrt_freefls             0000000180123b1c f   libvcruntime:per_thread_data.obj
 0001:00122b3c       __vcrt_freeptd             0000000180123b3c f   libvcruntime:per_thread_data.obj
 0001:00122b8c       __vcrt_getptd              0000000180123b8c f   libvcruntime:per_thread_data.obj
 0001:00122ba8       __vcrt_getptd_noexit       0000000180123ba8 f   libvcruntime:per_thread_data.obj
 0001:00122c68       __vcrt_initialize_ptd      0000000180123c68 f   libvcruntime:per_thread_data.obj
 0001:00122cb0       __vcrt_uninitialize_ptd    0000000180123cb0 f   libvcruntime:per_thread_data.obj
 0001:00122cd4       __vcrt_initialize_locks    0000000180123cd4 f   libvcruntime:locks.obj
 0001:00122d08       __vcrt_lock                0000000180123d08 f   libvcruntime:locks.obj
 0001:00122d24       __vcrt_uninitialize_locks  0000000180123d24 f   libvcruntime:locks.obj
 0001:00122d5c       __vcrt_unlock              0000000180123d5c f   libvcruntime:locks.obj
 0001:00122d78       ??$_CallSETranslator@V__FrameHandler3@@@@YAHPEAUEHExceptionRecord@@PEA_KPEAU_CONTEXT@@PEAU_xDISPATCHER_CONTEXT@@PEBU_s_FuncInfo@@K1H@Z 0000000180123d78 f i libvcruntime:risctrnsctrl.obj
 0001:00122dcc       ??$_CallSETranslator@V__FrameHandler4@@@@YAHPEAUEHExceptionRecord@@PEA_KPEAU_CONTEXT@@PEAU_xDISPATCHER_CONTEXT@@PEAUFuncInfo4@FH4@@K1H@Z 0000000180123dcc f i libvcruntime:risctrnsctrl.obj
 0001:00122e20       ?CatchTryBlock@__FrameHandler3@@SAPEBU_s_TryBlockMapEntry@@PEBU_s_FuncInfo@@H@Z 0000000180123e20 f   libvcruntime:risctrnsctrl.obj
 0001:00122e74       ?DecompFuncInfo@FH4@@YA_JPEAEAEAUFuncInfo4@1@_KH_N@Z 0000000180123e74 f i libvcruntime:risctrnsctrl.obj
 0001:00122f98       ?ExecutionInCatch@__FrameHandler3@@SA_NPEAU_xDISPATCHER_CONTEXT@@PEBU_s_FuncInfo@@@Z 0000000180123f98 f   libvcruntime:risctrnsctrl.obj
 0001:00122fc4       ?ExecutionInCatch@__FrameHandler4@@SA_NPEAU_xDISPATCHER_CONTEXT@@PEAUFuncInfo4@FH4@@@Z 0000000180123fc4 f   libvcruntime:risctrnsctrl.obj
 0001:00122fcc       ?FrameUnwindToEmptyState@__FrameHandler3@@SAXPEA_KPEAU_xDISPATCHER_CONTEXT@@PEBU_s_FuncInfo@@@Z 0000000180123fcc f   libvcruntime:risctrnsctrl.obj
 0001:00123030       ?FrameUnwindToEmptyState@__FrameHandler4@@SAXPEA_KPEAU_xDISPATCHER_CONTEXT@@PEAUFuncInfo4@FH4@@@Z 0000000180124030 f   libvcruntime:risctrnsctrl.obj
 0001:00123064       ?GetEstablisherFrame@__FrameHandler3@@SAPEA_KPEA_KPEAU_xDISPATCHER_CONTEXT@@PEBU_s_FuncInfo@@0@Z 0000000180124064 f   libvcruntime:risctrnsctrl.obj
 0001:00123130       ?GetEstablisherFrame@__FrameHandler4@@SAPEA_KPEA_KPEAU_xDISPATCHER_CONTEXT@@PEAUFuncInfo4@FH4@@0@Z 0000000180124130 f   libvcruntime:risctrnsctrl.obj
 0001:00123154       ?GetRangeOfTrysToCheck@__FrameHandler3@@SA?AU?$pair@Viterator@TryBlockMap@__FrameHandler3@@V123@@std@@AEAVTryBlockMap@1@HPEAU_xDISPATCHER_CONTEXT@@PEBU_s_FuncInfo@@H@Z 0000000180124154 f   libvcruntime:risctrnsctrl.obj
 0001:00123294       ?GetRangeOfTrysToCheck@__FrameHandler4@@SA?AU?$pair@Viterator@TryBlockMap4@FH4@@V123@@std@@AEAVTryBlockMap4@FH4@@HPEAU_xDISPATCHER_CONTEXT@@PEAUFuncInfo4@5@H@Z 0000000180124294 f   libvcruntime:risctrnsctrl.obj
 0001:001233fc       ?UnwindNestedFrames@__FrameHandler3@@SAXPEA_KPEAUEHExceptionRecord@@PEAU_CONTEXT@@0PEAXPEBU_s_FuncInfo@@HHPEBU_s_HandlerType@@PEAU_xDISPATCHER_CONTEXT@@E@Z 00000001801243fc f   libvcruntime:risctrnsctrl.obj
 0001:00123500       ?UnwindNestedFrames@__FrameHandler4@@SAXPEA_KPEAUEHExceptionRecord@@PEAU_CONTEXT@@0PEAXPEAUFuncInfo4@FH4@@HHPEAUHandlerType4@5@PEAU_xDISPATCHER_CONTEXT@@E@Z 0000000180124500 f   libvcruntime:risctrnsctrl.obj
 0001:00123620       ?setBuffer@TryBlockMap4@FH4@@QEAAXViterator@12@@Z 0000000180124620 f i libvcruntime:risctrnsctrl.obj
 0001:001237e0       _CreateFrameInfo           00000001801247e0 f   libvcruntime:risctrnsctrl.obj
 0001:0012381c       _FindAndUnlinkFrame        000000018012481c f   libvcruntime:risctrnsctrl.obj
 0001:00123870       _GetImageBase              0000000180124870 f   libvcruntime:risctrnsctrl.obj
 0001:00123884       _GetThrowImageBase         0000000180124884 f   libvcruntime:risctrnsctrl.obj
 0001:00123898       _SetImageBase              0000000180124898 f   libvcruntime:risctrnsctrl.obj
 0001:001238b0       _SetThrowImageBase         00000001801248b0 f   libvcruntime:risctrnsctrl.obj
 0001:001238c8       __CxxFrameHandler3         00000001801248c8 f   libvcruntime:risctrnsctrl.obj
 0001:00123950       __CxxFrameHandler4         0000000180124950 f   libvcruntime:risctrnsctrl.obj
 0001:00123b60       __vcrt_FlsAlloc            0000000180124b60 f   libvcruntime:winapi_downlevel.obj
 0001:00123ba8       __vcrt_FlsFree             0000000180124ba8 f   libvcruntime:winapi_downlevel.obj
 0001:00123bf0       __vcrt_FlsGetValue         0000000180124bf0 f   libvcruntime:winapi_downlevel.obj
 0001:00123c38       __vcrt_FlsSetValue         0000000180124c38 f   libvcruntime:winapi_downlevel.obj
 0001:00123c8c       __vcrt_InitializeCriticalSectionEx 0000000180124c8c f   libvcruntime:winapi_downlevel.obj
 0001:00123cf0       ?GetCurrentState@__FrameHandler3@@SAHPEA_KPEAU_xDISPATCHER_CONTEXT@@PEBU_s_FuncInfo@@@Z 0000000180124cf0 f   libvcruntime:ehstate.obj
 0001:00123d18       ?GetUnwindTryBlock@__FrameHandler3@@SAHPEA_KPEAU_xDISPATCHER_CONTEXT@@PEBU_s_FuncInfo@@@Z 0000000180124d18 f   libvcruntime:ehstate.obj
 0001:00123d44       ?SetState@__FrameHandler3@@SAXPEA_KPEBU_s_FuncInfo@@H@Z 0000000180124d44 f   libvcruntime:ehstate.obj
 0001:00123d50       ?SetUnwindTryBlock@__FrameHandler3@@SAXPEA_KPEAU_xDISPATCHER_CONTEXT@@PEBU_s_FuncInfo@@H@Z 0000000180124d50 f   libvcruntime:ehstate.obj
 0001:00123d8c       ?StateFromControlPc@__FrameHandler3@@SAHPEBU_s_FuncInfo@@PEAU_xDISPATCHER_CONTEXT@@@Z 0000000180124d8c f   libvcruntime:ehstate.obj
 0001:00123d94       ?StateFromControlPc@__FrameHandler4@@SAHPEAUFuncInfo4@FH4@@PEAU_xDISPATCHER_CONTEXT@@@Z 0000000180124d94 f   libvcruntime:ehstate.obj
 0001:00123d9c       ?StateFromIp@__FrameHandler3@@SAHPEBU_s_FuncInfo@@PEAU_xDISPATCHER_CONTEXT@@_K@Z 0000000180124d9c f   libvcruntime:ehstate.obj
 0001:00123e04       ?StateFromIp@__FrameHandler4@@SAHPEAUFuncInfo4@FH4@@PEAU_xDISPATCHER_CONTEXT@@_K@Z 0000000180124e04 f   libvcruntime:ehstate.obj
 0001:001254e8       ??$TypeMatchHelper@V__FrameHandler3@@@@YAHPEBU_s_HandlerType@@PEBU_s_CatchableType@@PEBU_s_ThrowInfo@@@Z 00000001801264e8 f i libvcruntime:frame.obj
 0001:00125628       ??$TypeMatchHelper@V__FrameHandler4@@@@YAHPEAUHandlerType4@FH4@@PEBU_s_CatchableType@@PEBU_s_ThrowInfo@@@Z 0000000180126628 f i libvcruntime:frame.obj
 0001:0012576c       ??$__InternalCxxFrameHandler@V__FrameHandler3@@@@YA?AW4_EXCEPTION_DISPOSITION@@PEAUEHExceptionRecord@@PEA_KPEAU_CONTEXT@@PEAU_xDISPATCHER_CONTEXT@@PEBU_s_FuncInfo@@H1E@Z 000000018012676c f i libvcruntime:frame.obj
 0001:001259a4       ??$__InternalCxxFrameHandler@V__FrameHandler4@@@@YA?AW4_EXCEPTION_DISPOSITION@@PEAUEHExceptionRecord@@PEA_KPEAU_CONTEXT@@PEAU_xDISPATCHER_CONTEXT@@PEAUFuncInfo4@FH4@@H1E@Z 00000001801269a4 f i libvcruntime:frame.obj
 0001:00125c38       ??0HandlerMap4@FH4@@QEAA@PEBUTryBlockMapEntry4@1@_KH@Z 0000000180126c38 f i libvcruntime:frame.obj
 0001:00125cb4       ??0TryBlockMap4@FH4@@QEAA@PEBUFuncInfo4@1@_K@Z 0000000180126cb4 f i libvcruntime:frame.obj
 0001:00125d8c       ??0bad_exception@std@@QEAA@AEBV01@@Z 0000000180126d8c f i libvcruntime:frame.obj
 0001:00125dc8       ??0bad_exception@std@@QEAA@XZ 0000000180126dc8 f i libvcruntime:frame.obj
 0001:00125de8       ??0exception@std@@QEAA@AEBV01@@Z 0000000180126de8 f i libvcruntime:frame.obj
 0001:00125e1c       ??1bad_exception@std@@UEAA@XZ 0000000180126e1c f i libvcruntime:frame.obj
 0001:00125e30       ??_Eexception@std@@UEAAPEAXI@Z 0000000180126e30 f i libvcruntime:frame.obj
 0001:00125e30       ??_Gexception@std@@UEAAPEAXI@Z 0000000180126e30 f i libvcruntime:frame.obj
 0001:00125e30       ??_Ebad_exception@std@@UEAAPEAXI@Z 0000000180126e30 f i libvcruntime:frame.obj
 0001:00125e30       ??_Gbad_exception@std@@UEAAPEAXI@Z 0000000180126e30 f i libvcruntime:frame.obj
 0001:00125e74       ?CxxCallCatchBlock@__FrameHandler3@@SAPEAXPEAU_EXCEPTION_RECORD@@@Z 0000000180126e74 f   libvcruntime:frame.obj
 0001:00126060       ?CxxCallCatchBlock@__FrameHandler4@@SAPEAXPEAU_EXCEPTION_RECORD@@@Z 0000000180127060 f   libvcruntime:frame.obj
 0001:001262b0       ?DecompHandler@HandlerMap4@FH4@@AEAAXXZ 00000001801272b0 f i libvcruntime:frame.obj
 0001:001264f0       ?FrameUnwindToState@__FrameHandler3@@SAXPEA_KPEAU_xDISPATCHER_CONTEXT@@PEBU_s_FuncInfo@@H@Z 00000001801274f0 f   libvcruntime:frame.obj
 0001:0012667c       ?FrameUnwindToState@__FrameHandler4@@SAXPEA_KPEAU_xDISPATCHER_CONTEXT@@PEAUFuncInfo4@FH4@@H@Z 000000018012767c f   libvcruntime:frame.obj
 0001:00126964       ?GetHandlerSearchState@__FrameHandler3@@SAHPEA_KPEAU_xDISPATCHER_CONTEXT@@PEBU_s_FuncInfo@@@Z 0000000180127964 f i libvcruntime:frame.obj
 0001:00126b74       ?ReadEntry@UWMap4@FH4@@AEAAXPEAPEAE@Z 0000000180127b74 f i libvcruntime:frame.obj
 0001:00126c14       ?_CallMemberFunction1@@YAXQEAX00@Z 0000000180127c14 f i libvcruntime:frame.obj
 0001:00126c20       ?_CallMemberFunction2@@YAXQEAX00H@Z 0000000180127c20 f i libvcruntime:frame.obj
 0001:00126c30       ?getStartStop@UWMap4@FH4@@QEAAXHHAEAViterator@12@0@Z 0000000180127c30 f i libvcruntime:frame.obj
 0001:00126d00       ?getStateFromIterators@UWMap4@FH4@@SAHAEBViterator@12@H0H0@Z 0000000180127d00 f i libvcruntime:frame.obj
 0001:00126dc8       ?what@exception@std@@UEBAPEBDXZ 0000000180127dc8 f i libvcruntime:frame.obj
 0001:00126df0       _CallSettingFrame          0000000180127df0 f   libvcruntime:handlers.obj
 0001:00126e40       _CallSettingFrame_LookupContinuationIndex 0000000180127e40 f   libvcruntime:handlers.obj
 0001:00126e70       _CallSettingFrame_NotifyContinuationAddr 0000000180127e70 f   libvcruntime:handlers.obj
 0001:00126ea0       _CallSettingFrameEncoded   0000000180127ea0 f   libvcruntime:handlers.obj
 0001:00126ee8       __std_exception_copy       0000000180127ee8 f   libvcruntime:std_exception.obj
 0001:00126f78       __std_exception_destroy    0000000180127f78 f   libvcruntime:std_exception.obj
 0001:00126fa0       _CxxThrowException         0000000180127fa0 f   libvcruntime:throw.obj
 0001:00127040       cosf                       0000000180128040 f   libucrt:cosf.obj
 0001:00127540       sinf                       0000000180128540 f   libucrt:sinf.obj
 0001:00127c40       tanf                       0000000180128c40 f   libucrt:tanf.obj
 0001:001282d0       strcmp                     00000001801292d0 f   libucrt:strcmp.obj
 0001:00128338       _fpclass                   0000000180129338 f   libucrt:ieeemisc.obj
 0001:001283c0       acosf                      00000001801293c0 f   libucrt:acosf.obj
 0001:001285ec       free                       00000001801295ec f   libucrt:free.obj
 0001:00128600       _initterm                  0000000180129600 f   libucrt:initterm.obj
 0001:00128644       _initterm_e                0000000180129644 f   libucrt:initterm.obj
 0001:0012868c       _seh_filter_dll            000000018012968c f   libucrt:exception_filter.obj
 0001:001286a0       _seh_filter_exe            00000001801296a0 f   libucrt:exception_filter.obj
 0001:00128ab8       __acrt_initialize_thread_local_exit_callback 0000000180129ab8 f   libucrt:exit.obj
 0001:00128ac0       _cexit                     0000000180129ac0 f   libucrt:exit.obj
 0001:00128ad0       _exit                      0000000180129ad0 f   libucrt:exit.obj
 0001:00128adc       _is_c_termination_complete 0000000180129adc f   libucrt:exit.obj
 0001:00128cac       __acrt_allocate_buffer_for_argv 0000000180129cac f   libucrt:argv_parsing.obj
 0001:00128d0c       _configure_narrow_argv     0000000180129d0c f   libucrt:argv_parsing.obj
 0001:00129094       __dcrt_uninitialize_environments_nolock 000000018012a094 f   libucrt:environment_initialization.obj
 0001:001290d8       _initialize_narrow_environment 000000018012a0d8 f   libucrt:environment_initialization.obj
 0001:0012923c       _execute_onexit_table      000000018012a23c f   libucrt:onexit.obj
 0001:00129280       _initialize_onexit_table   000000018012a280 f   libucrt:onexit.obj
 0001:001292e0       __acrt_uninitialize_command_line 000000018012a2e0 f   libucrt:argv_data.obj
 0001:001293d8       __acrt_initialize          000000018012a3d8 f   libucrt:initialization.obj
 0001:001293ec       __acrt_thread_attach       000000018012a3ec f   libucrt:initialization.obj
 0001:00129400       __acrt_thread_detach       000000018012a400 f   libucrt:initialization.obj
 0001:00129410       __acrt_uninitialize        000000018012a410 f   libucrt:initialization.obj
 0001:00129448       __acrt_uninitialize_critical 000000018012a448 f   libucrt:initialization.obj
 0001:00129458       terminate                  000000018012a458 f   libucrt:terminate.obj
 0001:00129484       abort                      000000018012a484 f   libucrt:abort.obj
 0001:001294dc       malloc                     000000018012a4dc f   libucrt:malloc.obj
 0001:001294e4       strcpy_s                   000000018012a4e4 f   libucrt:strcpy_s.obj
 0001:001296f4       ??$ensure_buffer_is_big_enough@D@formatting_buffer@__crt_stdio_output@@QEAA_N_KAEAV__crt_cached_ptd_host@@@Z 000000018012a6f4 f i libucrt:output.obj
 0001:0012979c       ??$parse_integer@KV?$c_string_character_source@D@__crt_strtox@@$0A@@__crt_strtox@@YAKAEAV__crt_cached_ptd_host@@V?$c_string_character_source@D@0@H_N@Z 000000018012a79c f i libucrt:output.obj
 0001:00129a50       ??$type_case_integer@$07@?$output_processor@DV?$string_output_adapter@D@__crt_stdio_output@@V?$format_validation_base@DV?$string_output_adapter@D@__crt_stdio_output@@@2@@__crt_stdio_output@@AEAA_N_N@Z 000000018012aa50 f i libucrt:output.obj
 0001:00129c54       ??$type_case_integer@$09@?$output_processor@DV?$string_output_adapter@D@__crt_stdio_output@@V?$format_validation_base@DV?$string_output_adapter@D@__crt_stdio_output@@@2@@__crt_stdio_output@@AEAA_N_N@Z 000000018012ac54 f i libucrt:output.obj
 0001:00129e58       ??$type_case_integer@$0BA@@?$output_processor@DV?$string_output_adapter@D@__crt_stdio_output@@V?$format_validation_base@DV?$string_output_adapter@D@__crt_stdio_output@@@2@@__crt_stdio_output@@AEAA_N_N@Z 000000018012ae58 f i libucrt:output.obj
 0001:0012a05c       ??$type_case_integer_parse_into_buffer@I$07@?$output_processor@DV?$string_output_adapter@D@__crt_stdio_output@@V?$format_validation_base@DV?$string_output_adapter@D@__crt_stdio_output@@@2@@__crt_stdio_output@@AEAAXI_N@Z 000000018012b05c f i libucrt:output.obj
 0001:0012a0cc       ??$type_case_integer_parse_into_buffer@I$09@?$output_processor@DV?$string_output_adapter@D@__crt_stdio_output@@V?$format_validation_base@DV?$string_output_adapter@D@__crt_stdio_output@@@2@@__crt_stdio_output@@AEAAXI_N@Z 000000018012b0cc f i libucrt:output.obj
 0001:0012a178       ??$type_case_integer_parse_into_buffer@I$0BA@@?$output_processor@DV?$string_output_adapter@D@__crt_stdio_output@@V?$format_validation_base@DV?$string_output_adapter@D@__crt_stdio_output@@@2@@__crt_stdio_output@@AEAAXI_N@Z 000000018012b178 f i libucrt:output.obj
 0001:0012a1fc       ??$type_case_integer_parse_into_buffer@_K$07@?$output_processor@DV?$string_output_adapter@D@__crt_stdio_output@@V?$format_validation_base@DV?$string_output_adapter@D@__crt_stdio_output@@@2@@__crt_stdio_output@@AEAAX_K_N@Z 000000018012b1fc f i libucrt:output.obj
 0001:0012a26c       ??$type_case_integer_parse_into_buffer@_K$09@?$output_processor@DV?$string_output_adapter@D@__crt_stdio_output@@V?$format_validation_base@DV?$string_output_adapter@D@__crt_stdio_output@@@2@@__crt_stdio_output@@AEAAX_K_N@Z 000000018012b26c f i libucrt:output.obj
 0001:0012a31c       ??$type_case_integer_parse_into_buffer@_K$0BA@@?$output_processor@DV?$string_output_adapter@D@__crt_stdio_output@@V?$format_validation_base@DV?$string_output_adapter@D@__crt_stdio_output@@@2@@__crt_stdio_output@@AEAAX_K_N@Z 000000018012b31c f i libucrt:output.obj
 0001:0012a3a0       ?crop_zeroes@__crt_stdio_output@@YAXPEADQEAU__crt_locale_pointers@@@Z 000000018012b3a0 f i libucrt:output.obj
 0001:0012a410       ?get_raw_ptd@__crt_cached_ptd_host@@QEAAPEAU__acrt_ptd@@XZ 000000018012b410 f i libucrt:output.obj
 0001:0012a478       ?parse_int_from_format_string@?$output_processor@DV?$string_output_adapter@D@__crt_stdio_output@@V?$format_validation_base@DV?$string_output_adapter@D@__crt_stdio_output@@@2@@__crt_stdio_output@@AEAA_NQEAH@Z 000000018012b478 f i libucrt:output.obj
 0001:0012a508       ?process@?$output_processor@DV?$string_output_adapter@D@__crt_stdio_output@@V?$format_validation_base@DV?$string_output_adapter@D@__crt_stdio_output@@@2@@__crt_stdio_output@@QEAAHXZ 000000018012b508 f i libucrt:output.obj
 0001:0012a88c       ?state_case_size@?$output_processor@DV?$string_output_adapter@D@__crt_stdio_output@@V?$format_validation_base@DV?$string_output_adapter@D@__crt_stdio_output@@@2@@__crt_stdio_output@@AEAA_NXZ 000000018012b88c f i libucrt:output.obj
 0001:0012aa14       ?state_case_type@?$output_processor@DV?$string_output_adapter@D@__crt_stdio_output@@V?$format_validation_base@DV?$string_output_adapter@D@__crt_stdio_output@@@2@@__crt_stdio_output@@AEAA_NXZ 000000018012ba14 f i libucrt:output.obj
 0001:0012ae18       ?type_case_Z@?$output_processor@DV?$string_output_adapter@D@__crt_stdio_output@@V?$format_validation_base@DV?$string_output_adapter@D@__crt_stdio_output@@@2@@__crt_stdio_output@@AEAA_NXZ 000000018012be18 f i libucrt:output.obj
 0001:0012ae94       ?type_case_a@?$output_processor@DV?$string_output_adapter@D@__crt_stdio_output@@V?$format_validation_base@DV?$string_output_adapter@D@__crt_stdio_output@@@2@@__crt_stdio_output@@AEAA_NXZ 000000018012be94 f i libucrt:output.obj
 0001:0012b0e8       ?type_case_c_tchar@?$output_processor@DV?$string_output_adapter@D@__crt_stdio_output@@V?$format_validation_base@DV?$string_output_adapter@D@__crt_stdio_output@@@2@@__crt_stdio_output@@AEAA_ND@Z 000000018012c0e8 f i libucrt:output.obj
 0001:0012b1bc       ?type_case_n@?$output_processor@DV?$string_output_adapter@D@__crt_stdio_output@@V?$format_validation_base@DV?$string_output_adapter@D@__crt_stdio_output@@@2@@__crt_stdio_output@@AEAA_NXZ 000000018012c1bc f i libucrt:output.obj
 0001:0012b274       ?type_case_s@?$output_processor@DV?$string_output_adapter@D@__crt_stdio_output@@V?$format_validation_base@DV?$string_output_adapter@D@__crt_stdio_output@@@2@@__crt_stdio_output@@AEAA_NXZ 000000018012c274 f i libucrt:output.obj
 0001:0012b310       ?update_locale_slow@__crt_cached_ptd_host@@AEAAXXZ 000000018012c310 f i libucrt:output.obj
 0001:0012b388       ?write_string@?$string_output_adapter@D@__crt_stdio_output@@QEBAXQEBDHQEAHAEAV__crt_cached_ptd_host@@@Z 000000018012c388 f i libucrt:output.obj
 0001:0012b42c       __stdio_common_vsprintf_s  000000018012c42c f   libucrt:output.obj
 0001:0012b540       ??$parse_integer@KV?$c_string_character_source@D@__crt_strtox@@$00@__crt_strtox@@YAKAEAV__crt_cached_ptd_host@@V?$c_string_character_source@D@0@H_N@Z 000000018012c540 f i libucrt:atox.obj
 0001:0012b830       _ischartype_l              000000018012c830 f i libucrt:atox.obj
 0001:0012b8a8       atol                       000000018012c8a8 f   libucrt:atox.obj
 0001:0012b970       strncmp                    000000018012c970 f   libucrt:strncmp.obj
 0001:0012b9f0       calloc                     000000018012c9f0 f   libucrt:calloc.obj
 0001:0012b9f8       wcsncmp                    000000018012c9f8 f   libucrt:wcsncmp.obj
 0001:0012ba30       __remainder_piby2d2f_forAsm 000000018012ca30 f   libucrt:remainder_piby2f_forasm.obj
 0001:0012bb80       __remainder_piby2_fma3     000000018012cb80 f   libucrt:remainder_piby2_forfma3.obj
 0001:0012bd70       __remainder_piby2_fma3_bdl 000000018012cd70 f   libucrt:remainder_piby2_forfma3.obj
 0001:0012bde8       _cosf_special              000000018012cde8 f   libucrt:sincos_special.obj
 0001:0012be88       _sinf_special              000000018012ce88 f   libucrt:sincos_special.obj
 0001:0012be9c       _tanf_special              000000018012ce9c f   libucrt:sincos_special.obj
 0001:0012beb0       _clrfp                     000000018012ceb0 f   libucrt:fpctrl.obj
 0001:0012bed0       _ctrlfp                    000000018012ced0 f   libucrt:fpctrl.obj
 0001:0012bf4c       _set_statfp                000000018012cf4c f   libucrt:fpctrl.obj
 0001:0012bf6c       _statfp                    000000018012cf6c f   libucrt:fpctrl.obj
 0001:0012bf80       __acrt_initialize_fma3     000000018012cf80 f   libucrt:fma3_available.obj
 0001:0012bff0       __remainder_piby2d2f_forC  000000018012cff0 f   libucrt:remainder_piby2f_forc.obj
 0001:0012c2a0       _handle_error              000000018012d2a0 f   libucrt:libm_error.obj
 0001:0012c3c8       _handle_errorf             000000018012d3c8 f   libucrt:libm_error.obj
 0001:0012c4fc       _handle_nan                000000018012d4fc f   libucrt:libm_error.obj
 0001:0012c518       _handle_nanf               000000018012d518 f   libucrt:libm_error.obj
 0001:0012c528       _free_base                 000000018012d528 f   libucrt:free_base.obj
 0001:0012c8dc       __acrt_freeptd             000000018012d8dc f   libucrt:per_thread_data.obj
 0001:0012c920       __acrt_getptd              000000018012d920 f   libucrt:per_thread_data.obj
 0001:0012c9f4       __acrt_getptd_head         000000018012d9f4 f   libucrt:per_thread_data.obj
 0001:0012ca98       __acrt_getptd_noexit       000000018012da98 f   libucrt:per_thread_data.obj
 0001:0012cb60       __acrt_getptd_noexit_explicit 000000018012db60 f   libucrt:per_thread_data.obj
 0001:0012cc20       __acrt_initialize_ptd      000000018012dc20 f   libucrt:per_thread_data.obj
 0001:0012cc5c       __acrt_uninitialize_ptd    000000018012dc5c f   libucrt:per_thread_data.obj
 0001:0012cc80       __acrt_initialize_locks    000000018012dc80 f   libucrt:locks.obj
 0001:0012ccc8       __acrt_lock                000000018012dcc8 f   libucrt:locks.obj
 0001:0012cce4       __acrt_uninitialize_locks  000000018012dce4 f   libucrt:locks.obj
 0001:0012cd1c       __acrt_unlock              000000018012dd1c f   libucrt:locks.obj
 0001:0012cd38       __acrt_app_verifier_enabled 000000018012dd38 f   libucrt:peb_access.obj
 0001:0012cd54       __acrt_is_secure_process   000000018012dd54 f   libucrt:peb_access.obj
 0001:0012cd6c       __acrt_get_process_end_policy 000000018012dd6c f   libucrt:win_policies.obj
 0001:0012cd9c       ?get_raw_ptd_noexit@__crt_cached_ptd_host@@QEAAPEAU__acrt_ptd@@XZ 000000018012dd9c f i libucrt:invalid_parameter.obj
 0001:0012ce08       ?value@?$dual_state_global@P6AXPEB_W00I_K@Z@__crt_state_management@@QEAAAEAP6AXPEB_W00I_K@ZAEAV__crt_cached_ptd_host@@@Z 000000018012de08 f i libucrt:invalid_parameter.obj
 0001:0012ce54       __acrt_call_reportfault    000000018012de54 f   libucrt:invalid_parameter.obj
 0001:0012cfb0       __acrt_initialize_invalid_parameter_handler 000000018012dfb0 f   libucrt:invalid_parameter.obj
 0001:0012cfb8       _invalid_parameter         000000018012dfb8 f   libucrt:invalid_parameter.obj
 0001:0012d054       _invalid_parameter_internal 000000018012e054 f   libucrt:invalid_parameter.obj
 0001:0012d120       _invalid_parameter_noinfo  000000018012e120 f   libucrt:invalid_parameter.obj
 0001:0012d140       _invoke_watson             000000018012e140 f   libucrt:invalid_parameter.obj
 0001:0012d188       __acrt_errno_from_os_error 000000018012e188 f   libucrt:errno.obj
 0001:0012d1d0       __acrt_errno_map_os_error  000000018012e1d0 f   libucrt:errno.obj
 0001:0012d218       __acrt_errno_map_os_error_ptd 000000018012e218 f   libucrt:errno.obj
 0001:0012d23c       __doserrno                 000000018012e23c f   libucrt:errno.obj
 0001:0012d25c       _errno                     000000018012e25c f   libucrt:errno.obj
 0001:0012d27c       _calloc_base               000000018012e27c f   libucrt:calloc_base.obj
 0001:0012d308       ??$__acrt_convert_wcs_mbs_cp@D_WV<lambda_7c9dea7b4ca7285d2cdb541a38da6275>@@U__crt_win32_buffer_internal_dynamic_resizing@@@@YAHQEBDAEAV?$__crt_win32_buffer@_WU__crt_win32_buffer_internal_dynamic_resizing@@@@AEBV<lambda_7c9dea7b4ca7285d2cdb541a38da6275>@@I@Z 000000018012e308 f i libucrt:argv_wildcards.obj
 0001:0012d484       ??$__acrt_convert_wcs_mbs_cp@_WDV<lambda_d8593a27d1aa8c02be35c86a17d324c4>@@U__crt_win32_buffer_internal_dynamic_resizing@@@@YAHQEB_WAEAV?$__crt_win32_buffer@DU__crt_win32_buffer_internal_dynamic_resizing@@@@AEBV<lambda_d8593a27d1aa8c02be35c86a17d324c4>@@I@Z 000000018012e484 f i libucrt:argv_wildcards.obj
 0001:0012dd28       ??0_LocaleUpdate@@QEAA@QEAU__crt_locale_pointers@@@Z 000000018012ed28 f i libucrt:argv_wildcards.obj
 0001:0012ddc4       __acrt_expand_narrow_argv_wildcards 000000018012edc4 f   libucrt:argv_wildcards.obj
 0001:0012ddcc       ??$__acrt_convert_wcs_mbs_cp@_WDV<lambda_f788ae46380686e8b737efdd8c720d07>@@U__crt_win32_buffer_no_resizing@@@@YAHQEB_WAEAV?$__crt_win32_buffer@DU__crt_win32_buffer_no_resizing@@@@AEBV<lambda_f788ae46380686e8b737efdd8c720d07>@@I@Z 000000018012edcc f i libucrt:getmodulefilenamea.obj
 0001:0012dee8       __acrt_GetModuleFileNameA  000000018012eee8 f   libucrt:getmodulefilenamea.obj
 0001:0012e804       __acrt_initialize_multibyte 000000018012f804 f   libucrt:mbctype.obj
 0001:0012e864       __acrt_update_thread_multibyte_data 000000018012f864 f   libucrt:mbctype.obj
 0001:0012e880       _setmbcp_nolock            000000018012f880 f   libucrt:mbctype.obj
 0001:0012ebb4       _ismbblead                 000000018012fbb4 f   libucrt:ismbbyte.obj
 0001:0012ebc8       __acrt_initialize_command_line 000000018012fbc8 f   libucrt:argv_data.obj
 0001:0012ebf0       __acrt_MultiByteToWideChar 000000018012fbf0 f   libucrt:multibytetowidechar.obj
 0001:0012ec80       __acrt_WideCharToMultiByte 000000018012fc80 f   libucrt:widechartomultibyte.obj
 0001:0012ed60       __dcrt_get_narrow_environment_from_os 000000018012fd60 f   libucrt:get_environment_from_os.obj
 0001:0012ee70       _recalloc_base             000000018012fe70 f   libucrt:recalloc.obj
 0001:0012f0c4       __acrt_AppPolicyGetProcessTerminationMethodInternal 00000001801300c4 f   libucrt:winapi_thunks.obj
 0001:0012f11c       __acrt_AreFileApisANSI     000000018013011c f   libucrt:winapi_thunks.obj
 0001:0012f160       __acrt_FlsAlloc            0000000180130160 f   libucrt:winapi_thunks.obj
 0001:0012f168       __acrt_FlsFree             0000000180130168 f   libucrt:winapi_thunks.obj
 0001:0012f170       __acrt_FlsGetValue         0000000180130170 f   libucrt:winapi_thunks.obj
 0001:0012f178       __acrt_FlsSetValue         0000000180130178 f   libucrt:winapi_thunks.obj
 0001:0012f180       __acrt_InitializeCriticalSectionEx 0000000180130180 f   libucrt:winapi_thunks.obj
 0001:0012f1f0       __acrt_LCMapStringEx       00000001801301f0 f   libucrt:winapi_thunks.obj
 0001:0012f2dc       __acrt_LocaleNameToLCID    00000001801302dc f   libucrt:winapi_thunks.obj
 0001:0012f33c       __acrt_initialize_winapi_thunks 000000018013033c f   libucrt:winapi_thunks.obj
 0001:0012f360       __acrt_uninitialize_winapi_thunks 0000000180130360 f   libucrt:winapi_thunks.obj
 0001:0012f3a4       __acrt_initialize_heap     00000001801303a4 f   libucrt:heap_handle.obj
 0001:0012f3c0       __acrt_uninitialize_heap   00000001801303c0 f   libucrt:heap_handle.obj
 0001:0012f5c4       __acrt_initialize_lowio    00000001801305c4 f   libucrt:ioinit.obj
 0001:0012f600       __acrt_uninitialize_lowio  0000000180130600 f   libucrt:ioinit.obj
 0001:0012f640       __acrt_execute_initializers 0000000180130640 f   libucrt:shared_initialization.obj
 0001:0012f6d4       __acrt_execute_uninitializers 00000001801306d4 f   libucrt:shared_initialization.obj
 0001:0012f71c       __acrt_initialize_new_handler 000000018013071c f   libucrt:new_handler.obj
 0001:0012f724       _callnewh                  0000000180130724 f   libucrt:new_handler.obj
 0001:0012f764       _query_new_handler         0000000180130764 f   libucrt:new_handler.obj
 0001:0012f7e4       __acrt_get_sigabrt_handler 00000001801307e4 f   libucrt:signal.obj
 0001:0012f814       __acrt_initialize_signal_handlers 0000000180130814 f   libucrt:signal.obj
 0001:0012f834       raise                      0000000180130834 f   libucrt:signal.obj
 0001:0012fab0       __acrt_has_user_matherr    0000000180130ab0 f   libucrt:matherr.obj
 0001:0012fad0       __acrt_initialize_user_matherr 0000000180130ad0 f   libucrt:matherr.obj
 0001:0012fad8       __acrt_invoke_user_matherr 0000000180130ad8 f   libucrt:matherr.obj
 0001:0012fcf4       __acrt_stdio_flush_nolock  0000000180130cf4 f   libucrt:fflush.obj
 0001:0012fd80       _fflush_nolock             0000000180130d80 f   libucrt:fflush.obj
 0001:0012fe54       _flushall                  0000000180130e54 f   libucrt:fflush.obj
 0001:0012fe5c       __acrt_initialize_stdio    0000000180130e5c f   libucrt:_file.obj
 0001:0012ff7c       __acrt_uninitialize_stdio  0000000180130f7c f   libucrt:_file.obj
 0001:0012ffd8       _lock_file                 0000000180130fd8 f   libucrt:_file.obj
 0001:0012ffe4       _unlock_file               0000000180130fe4 f   libucrt:_file.obj
 0001:0012fff0       _malloc_base               0000000180130ff0 f   libucrt:malloc_base.obj
 0001:00130050       strnlen                    0000000180131050 f   libucrt:strnlen.obj
 0001:001301a0       wcsnlen                    00000001801311a0 f   libucrt:strnlen.obj
 0001:00130378       __acrt_update_locale_info  0000000180131378 f   libucrt:locale_update.obj
 0001:001303ac       __acrt_update_locale_info_explicit 00000001801313ac f   libucrt:locale_update.obj
 0001:001303e4       __acrt_update_multibyte_info 00000001801313e4 f   libucrt:locale_update.obj
 0001:00130418       __acrt_update_multibyte_info_explicit 0000000180131418 f   libucrt:locale_update.obj
 0001:00130f64       __acrt_fp_format           0000000180131f64 f   libucrt:cvt.obj
 0001:0013124c       _wctomb_internal           000000018013224c f   libucrt:wctomb.obj
 0001:001313fc       _mbtowc_internal           00000001801323fc f   libucrt:mbtowc.obj
 0001:00131574       _fileno                    0000000180132574 f   libucrt:fileno.obj
 0001:0013159c       _get_printf_count_output   000000018013259c f   libucrt:printf_count_output.obj
 0001:00131624       __acrt_set_locale_changed  0000000180132624 f   libucrt:wsetlocale.obj
 0001:00131630       __acrt_uninitialize_locale 0000000180132630 f   libucrt:wsetlocale.obj
 0001:00131660       __pctype_func              0000000180132660 f   libucrt:ctype.obj
 0001:00131690       _isctype_l                 0000000180132690 f   libucrt:isctype.obj
 0001:001317b0       _get_fpsr                  00000001801327b0 f   libucrt:fpsr.obj
 0001:001317c0       _set_fpsr                  00000001801327c0 f   libucrt:fpsr.obj
 0001:001317ca       _fclrf                     00000001801327ca f   libucrt:fpsr.obj
 0001:001317de       _frnd                      00000001801327de f   libucrt:fpsr.obj
 0001:00131800       _raise_exc                 0000000180132800 f   libucrt:fpexcept.obj
 0001:00131828       _raise_exc_ex              0000000180132828 f   libucrt:fpexcept.obj
 0001:00131b30       _raise_excf                0000000180132b30 f   libucrt:fpexcept.obj
 0001:00131b5c       _set_errno_from_matherr    0000000180132b5c f   libucrt:fpexcept.obj
 0001:00131b8c       __acrt_add_locale_ref      0000000180132b8c f   libucrt:locale_refcounting.obj
 0001:00131c18       __acrt_free_locale         0000000180132c18 f   libucrt:locale_refcounting.obj
 0001:00131d90       __acrt_locale_add_lc_time_reference 0000000180132d90 f   libucrt:locale_refcounting.obj
 0001:00131db8       __acrt_locale_free_lc_time_if_unreferenced 0000000180132db8 f   libucrt:locale_refcounting.obj
 0001:00131df0       __acrt_locale_release_lc_time_reference 0000000180132df0 f   libucrt:locale_refcounting.obj
 0001:00131e18       __acrt_release_locale_ref  0000000180132e18 f   libucrt:locale_refcounting.obj
 0001:00131ec0       __acrt_update_thread_locale_data 0000000180132ec0 f   libucrt:locale_refcounting.obj
 0001:00131f30       _updatetlocinfoEx_nolock   0000000180132f30 f   libucrt:locale_refcounting.obj
 0001:00131f98       _query_new_mode            0000000180132f98 f   libucrt:new_mode.obj
 0001:00131fa0       qsort                      0000000180132fa0 f   libucrt:qsort.obj
 0001:001323b0       strncpy_s                  00000001801333b0 f   libucrt:strncpy_s.obj
 0001:00132540       strpbrk                    0000000180133540 f   libucrt:strpbrk.obj
 0001:00132908       _mbsdec                    0000000180133908 f   libucrt:mbsdec.obj
 0001:00132910       _mbsdec_l                  0000000180133910 f   libucrt:mbsdec.obj
 0001:001329a4       __acrt_GetStringTypeA      00000001801339a4 f   libucrt:getstringtypea.obj
 0001:00132e68       __acrt_LCMapStringA        0000000180133e68 f   libucrt:lcmapstringa.obj
 0001:00132f18       _msize_base                0000000180133f18 f   libucrt:msize.obj
 0001:00132f54       _realloc_base              0000000180133f54 f   libucrt:realloc_base.obj
 0001:00132fd0       __acrt_DownlevelLocaleNameToLCID 0000000180133fd0 f   libucrt:lcidtoname_downlevel.obj
 0001:00133074       __acrt_lowio_create_handle_array 0000000180134074 f   libucrt:osfinfo.obj
 0001:0013311c       __acrt_lowio_destroy_handle_array 000000018013411c f   libucrt:osfinfo.obj
 0001:0013316c       __acrt_lowio_ensure_fh_exists 000000018013416c f   libucrt:osfinfo.obj
 0001:00133214       __acrt_lowio_lock_fh       0000000180134214 f   libucrt:osfinfo.obj
 0001:0013323c       __acrt_lowio_unlock_fh     000000018013423c f   libucrt:osfinfo.obj
 0001:00133264       _free_osfhnd               0000000180134264 f   libucrt:osfinfo.obj
 0001:00133320       _get_osfhandle             0000000180134320 f   libucrt:osfinfo.obj
 0001:00133424       _commit                    0000000180134424 f   libucrt:commit.obj
 0001:00133cc0       _write_internal            0000000180134cc0 f   libucrt:write.obj
 0001:00133de0       _write_nolock              0000000180134de0 f   libucrt:write.obj
 0001:001340e8       _fcloseall                 00000001801350e8 f   libucrt:closeall.obj
 0001:0013419c       __acrt_stdio_free_buffer_nolock 000000018013519c f   libucrt:_freebuf.obj
 0001:001341e0       _isatty                    00000001801351e0 f   libucrt:isatty.obj
 0001:00134310       __acrt_fp_strflt_to_string 0000000180135310 f   libucrt:_fptostr.obj
 0001:00134420       ?divide@__crt_strtox@@YA_KAEAUbig_integer@1@AEBU21@@Z 0000000180135420 f i libucrt:cfout.obj
 0001:001348bc       __acrt_fltout              00000001801358bc f   libucrt:cfout.obj
 0001:00135bd4       fegetround                 0000000180136bd4 f   libucrt:fegetround.obj
 0001:00135be8       ?__c32rtomb_utf8@__crt_mbstring@@YA_KPEAD_UPEAU_Mbstatet@@AEAV__crt_cached_ptd_host@@@Z 0000000180136be8 f   libucrt:c32rtomb.obj
 0001:00135c8c       ?__mbrtowc_utf8@__crt_mbstring@@YA_KPEA_WPEBD_KPEAU_Mbstatet@@AEAV__crt_cached_ptd_host@@@Z 0000000180136c8c f   libucrt:mbrtowc.obj
 0001:00135cd0       ?__mbsrtowcs_utf8@__crt_mbstring@@YA_KPEA_WPEAPEBD_KPEAU_Mbstatet@@AEAV__crt_cached_ptd_host@@@Z 0000000180136cd0 f   libucrt:mbrtowc.obj
 0001:00135e74       __acrt_locale_free_monetary 0000000180136e74 f   libucrt:initmon.obj
 0001:00135f80       __acrt_locale_free_numeric 0000000180136f80 f   libucrt:initnum.obj
 0001:00136020       __acrt_locale_free_time    0000000180137020 f   libucrt:inittime.obj
 0001:00136128       __strncnt                  0000000180137128 f   libucrt:strncnt.obj
 0001:00136140       __ascii_wcsnicmp           0000000180137140 f   libucrt:wcsnicmp.obj
 0001:0013618c       _query_app_type            000000018013718c f   libucrt:report_runtime_error.obj
 0001:00136240       _lseeki64_nolock_internal  0000000180137240 f   libucrt:lseek.obj
 0001:00136248       _putwch_nolock             0000000180137248 f   libucrt:putwch.obj
 0001:001363a8       fclose                     00000001801373a8 f   libucrt:fclose.obj
 0001:00136440       _controlfp_s               0000000180137440 f   libucrt:contrlfp.obj
 0001:001364a4       fegetenv                   00000001801374a4 f   libucrt:fegetenv.obj
 0001:001364c4       fesetenv                   00000001801374c4 f   libucrt:fesetenv.obj
 0001:0013651c       feholdexcept               000000018013751c f   libucrt:feholdexcept.obj
 0001:0013656c       ceil                       000000018013756c f   libucrt:ceil.obj
 0001:00136630       log10                      0000000180137630 f   libucrt:log10.obj
 0001:00136bdc       __acrt_fenv_get_common_round_control 0000000180137bdc f   libucrt:_fenvutils.obj
 0001:00136be8       __acrt_fenv_get_control    0000000180137be8 f   libucrt:_fenvutils.obj
 0001:00136ccc       __acrt_fenv_get_status     0000000180137ccc f   libucrt:_fenvutils.obj
 0001:00136d24       __acrt_fenv_set_control    0000000180137d24 f   libucrt:_fenvutils.obj
 0001:00136e5c       __acrt_fenv_set_status     0000000180137e5c f   libucrt:_fenvutils.obj
 0001:00136ed0       ?reset_and_return@__crt_mbstring@@YA_K_KPEAU_Mbstatet@@@Z 0000000180137ed0 f   libucrt:common_utf8.obj
 0001:00136ed8       ?return_illegal_sequence@__crt_mbstring@@YA_KPEAU_Mbstatet@@AEAV__crt_cached_ptd_host@@@Z 0000000180137ed8 f   libucrt:common_utf8.obj
 0001:00136eec       ?__mbrtoc32_utf8@__crt_mbstring@@YA_KPEA_UPEBD_KPEAU_Mbstatet@@AEAV__crt_cached_ptd_host@@@Z 0000000180137eec f   libucrt:mbrtoc32.obj
 0001:001370c8       __dcrt_lowio_ensure_console_output_initialized 00000001801380c8 f   libucrt:initcon.obj
 0001:0013711c       __dcrt_terminate_console_output 000000018013811c f   libucrt:initcon.obj
 0001:00137138       __dcrt_write_console       0000000180138138 f   libucrt:initcon.obj
 0001:00137270       _close_internal            0000000180138270 f   libucrt:close.obj
 0001:00137334       _close_nolock_internal     0000000180138334 f   libucrt:close.obj
 0001:00137404       ?__acrt_stdio_free_stream@@YAXV__crt_stdio_stream@@@Z 0000000180138404 f   libucrt:stream.obj
 0001:00137420       _clearfp                   0000000180138420 f   libucrt:ieee.obj
 0001:0013748c       _control87                 000000018013848c f   libucrt:ieee.obj
 0001:00137730       _log10_special             0000000180138730 f   libucrt:log_special.obj
 0001:001377f0       _FindPESection             00000001801387f0 f   LIBCMT:pesect.obj
 0001:00137840       _IsNonwritableInCurrentImage 0000000180138840 f   LIBCMT:pesect.obj
 0001:00137890       _ValidateImageBase         0000000180138890 f   LIBCMT:pesect.obj
 0001:001378c0       __GSHandlerCheck           00000001801388c0 f   LIBCMT:gshandler.obj
 0001:001378e0       __GSHandlerCheckCommon     00000001801388e0 f   LIBCMT:gshandler.obj
 0001:00137950       __security_check_cookie    0000000180138950 f   LIBCMT:amdsecgs.obj
 0001:00137970       __GSHandlerCheck_SEH       0000000180138970 f   LIBCMT:gshandlerseh.obj
 0001:001379f8       __raise_securityfailure    00000001801389f8 f   LIBCMT:gs_report.obj
 0001:00137a2c       __report_gsfailure         0000000180138a2c f   LIBCMT:gs_report.obj
 0001:00137b00       __report_rangecheckfailure 0000000180138b00 f   LIBCMT:gs_report.obj
 0001:00137b14       __report_securityfailure   0000000180138b14 f   LIBCMT:gs_report.obj
 0001:00137c94       __GSHandlerCheck_EH        0000000180138c94 f   LIBCMT:gshandlereh.obj
 0001:00137d14       __C_specific_handler_noexcept 0000000180138d14 f   libvcruntime:chandler_noexcept.obj
 0001:00137d60       strrchr                    0000000180138d60 f   libvcruntime:strrchr.obj
 0001:00137ea0       memcmp                     0000000180138ea0 f   libvcruntime:memcmp.obj
 0001:00137f80       _guard_dispatch_icall_nop  0000000180138f80 f   LIBCMT:guard_dispatch.obj
 0001:00137fa0       _guard_xfg_dispatch_icall_nop 0000000180138fa0 f   LIBCMT:guard_xfg_dispatch.obj
 0002:00000000       __imp_FreeLibrary          000000018013a000     kernel32:KERNEL32.dll
 0002:00000008       __imp_GetProcAddress       000000018013a008     kernel32:KERNEL32.dll
 0002:00000010       __imp_LoadLibraryA         000000018013a010     kernel32:KERNEL32.dll
 0002:00000018       __imp_WriteConsoleW        000000018013a018     kernel32:KERNEL32.dll
 0002:00000020       __imp_RaiseException       000000018013a020     kernel32:KERNEL32.dll
 0002:00000028       __imp_GetLastError         000000018013a028     kernel32:KERNEL32.dll
 0002:00000030       __imp_GetSystemInfo        000000018013a030     kernel32:KERNEL32.dll
 0002:00000038       __imp_VirtualProtect       000000018013a038     kernel32:KERNEL32.dll
 0002:00000040       __imp_VirtualQuery         000000018013a040     kernel32:KERNEL32.dll
 0002:00000048       __imp_GetModuleHandleW     000000018013a048     kernel32:KERNEL32.dll
 0002:00000050       __imp_LoadLibraryExA       000000018013a050     kernel32:KERNEL32.dll
 0002:00000058       __imp_InitializeSListHead  000000018013a058     kernel32:KERNEL32.dll
 0002:00000060       __imp_QueryPerformanceCounter 000000018013a060     kernel32:KERNEL32.dll
 0002:00000068       __imp_GetCurrentProcessId  000000018013a068     kernel32:KERNEL32.dll
 0002:00000070       __imp_GetCurrentThreadId   000000018013a070     kernel32:KERNEL32.dll
 0002:00000078       __imp_GetSystemTimeAsFileTime 000000018013a078     kernel32:KERNEL32.dll
 0002:00000080       __imp_RtlCaptureContext    000000018013a080     kernel32:KERNEL32.dll
 0002:00000088       __imp_RtlLookupFunctionEntry 000000018013a088     kernel32:KERNEL32.dll
 0002:00000090       __imp_RtlVirtualUnwind     000000018013a090     kernel32:KERNEL32.dll
 0002:00000098       __imp_IsDebuggerPresent    000000018013a098     kernel32:KERNEL32.dll
 0002:000000a0       __imp_UnhandledExceptionFilter 000000018013a0a0     kernel32:KERNEL32.dll
 0002:000000a8       __imp_SetUnhandledExceptionFilter 000000018013a0a8     kernel32:KERNEL32.dll
 0002:000000b0       __imp_GetStartupInfoW      000000018013a0b0     kernel32:KERNEL32.dll
 0002:000000b8       __imp_IsProcessorFeaturePresent 000000018013a0b8     kernel32:KERNEL32.dll
 0002:000000c0       __imp_InterlockedPushEntrySList 000000018013a0c0     kernel32:KERNEL32.dll
 0002:000000c8       __imp_InterlockedFlushSList 000000018013a0c8     kernel32:KERNEL32.dll
 0002:000000d0       __imp_RtlUnwindEx          000000018013a0d0     kernel32:KERNEL32.dll
 0002:000000d8       __imp_SetLastError         000000018013a0d8     kernel32:KERNEL32.dll
 0002:000000e0       __imp_EnterCriticalSection 000000018013a0e0     kernel32:KERNEL32.dll
 0002:000000e8       __imp_LeaveCriticalSection 000000018013a0e8     kernel32:KERNEL32.dll
 0002:000000f0       __imp_DeleteCriticalSection 000000018013a0f0     kernel32:KERNEL32.dll
 0002:000000f8       __imp_InitializeCriticalSectionAndSpinCount 000000018013a0f8     kernel32:KERNEL32.dll
 0002:00000100       __imp_TlsAlloc             000000018013a100     kernel32:KERNEL32.dll
 0002:00000108       __imp_TlsGetValue          000000018013a108     kernel32:KERNEL32.dll
 0002:00000110       __imp_TlsSetValue          000000018013a110     kernel32:KERNEL32.dll
 0002:00000118       __imp_TlsFree              000000018013a118     kernel32:KERNEL32.dll
 0002:00000120       __imp_LoadLibraryExW       000000018013a120     kernel32:KERNEL32.dll
 0002:00000128       __imp_EncodePointer        000000018013a128     kernel32:KERNEL32.dll
 0002:00000130       __imp_RtlPcToFileHeader    000000018013a130     kernel32:KERNEL32.dll
 0002:00000138       __imp_GetCurrentProcess    000000018013a138     kernel32:KERNEL32.dll
 0002:00000140       __imp_ExitProcess          000000018013a140     kernel32:KERNEL32.dll
 0002:00000148       __imp_TerminateProcess     000000018013a148     kernel32:KERNEL32.dll
 0002:00000150       __imp_GetModuleHandleExW   000000018013a150     kernel32:KERNEL32.dll
 0002:00000158       __imp_GetModuleFileNameW   000000018013a158     kernel32:KERNEL32.dll
 0002:00000160       __imp_HeapFree             000000018013a160     kernel32:KERNEL32.dll
 0002:00000168       __imp_HeapAlloc            000000018013a168     kernel32:KERNEL32.dll
 0002:00000170       __imp_FindClose            000000018013a170     kernel32:KERNEL32.dll
 0002:00000178       __imp_FindFirstFileExW     000000018013a178     kernel32:KERNEL32.dll
 0002:00000180       __imp_FindNextFileW        000000018013a180     kernel32:KERNEL32.dll
 0002:00000188       __imp_IsValidCodePage      000000018013a188     kernel32:KERNEL32.dll
 0002:00000190       __imp_GetACP               000000018013a190     kernel32:KERNEL32.dll
 0002:00000198       __imp_GetOEMCP             000000018013a198     kernel32:KERNEL32.dll
 0002:000001a0       __imp_GetCPInfo            000000018013a1a0     kernel32:KERNEL32.dll
 0002:000001a8       __imp_GetCommandLineA      000000018013a1a8     kernel32:KERNEL32.dll
 0002:000001b0       __imp_GetCommandLineW      000000018013a1b0     kernel32:KERNEL32.dll
 0002:000001b8       __imp_MultiByteToWideChar  000000018013a1b8     kernel32:KERNEL32.dll
 0002:000001c0       __imp_WideCharToMultiByte  000000018013a1c0     kernel32:KERNEL32.dll
 0002:000001c8       __imp_GetEnvironmentStringsW 000000018013a1c8     kernel32:KERNEL32.dll
 0002:000001d0       __imp_FreeEnvironmentStringsW 000000018013a1d0     kernel32:KERNEL32.dll
 0002:000001d8       __imp_FlsAlloc             000000018013a1d8     kernel32:KERNEL32.dll
 0002:000001e0       __imp_FlsGetValue          000000018013a1e0     kernel32:KERNEL32.dll
 0002:000001e8       __imp_FlsSetValue          000000018013a1e8     kernel32:KERNEL32.dll
 0002:000001f0       __imp_FlsFree              000000018013a1f0     kernel32:KERNEL32.dll
 0002:000001f8       __imp_LCMapStringW         000000018013a1f8     kernel32:KERNEL32.dll
 0002:00000200       __imp_GetProcessHeap       000000018013a200     kernel32:KERNEL32.dll
 0002:00000208       __imp_GetStdHandle         000000018013a208     kernel32:KERNEL32.dll
 0002:00000210       __imp_GetFileType          000000018013a210     kernel32:KERNEL32.dll
 0002:00000218       __imp_GetStringTypeW       000000018013a218     kernel32:KERNEL32.dll
 0002:00000220       __imp_HeapSize             000000018013a220     kernel32:KERNEL32.dll
 0002:00000228       __imp_HeapReAlloc          000000018013a228     kernel32:KERNEL32.dll
 0002:00000230       __imp_SetStdHandle         000000018013a230     kernel32:KERNEL32.dll
 0002:00000238       __imp_FlushFileBuffers     000000018013a238     kernel32:KERNEL32.dll
 0002:00000240       __imp_WriteFile            000000018013a240     kernel32:KERNEL32.dll
 0002:00000248       __imp_GetConsoleOutputCP   000000018013a248     kernel32:KERNEL32.dll
 0002:00000250       __imp_GetConsoleMode       000000018013a250     kernel32:KERNEL32.dll
 0002:00000258       __imp_SetFilePointerEx     000000018013a258     kernel32:KERNEL32.dll
 0002:00000260       __imp_CreateFileW          000000018013a260     kernel32:KERNEL32.dll
 0002:00000268       __imp_CloseHandle          000000018013a268     kernel32:KERNEL32.dll
 0002:00000270       \177KERNEL32_NULL_THUNK_DATA 000000018013a270     kernel32:KERNEL32.dll
 0002:00000278       __guard_check_icall_fptr   000000018013a278     LIBCMT:guard_support.obj
 0002:00000280       __guard_xfg_check_icall_fptr 000000018013a280     LIBCMT:guard_support.obj
 0002:00000288       __guard_dispatch_icall_fptr 000000018013a288     LIBCMT:guard_support.obj
 0002:00000290       __guard_xfg_dispatch_icall_fptr 000000018013a290     LIBCMT:guard_support.obj
 0002:00000298       __guard_xfg_table_dispatch_icall_fptr 000000018013a298     LIBCMT:guard_support.obj
 0002:000002a0       __xc_a                     000000018013a2a0     LIBCMT:initializers.obj
 0002:000016d0       __xc_z                     000000018013b6d0     LIBCMT:initializers.obj
 0002:000016d8       __xi_a                     000000018013b6d8     LIBCMT:initializers.obj
 0002:000016e0       __acrt_tran_fma3_initializer 000000018013b6e0     libucrt:fma3_initializer.obj
 0002:000016e8       __acrt_multibyte_initializer 000000018013b6e8     libucrt:multibyte_initializer.obj
 0002:000016f0       __acrt_stdio_initializer   000000018013b6f0     libucrt:stdio_initializer.obj
 0002:000016f8       __xi_z                     000000018013b6f8     LIBCMT:initializers.obj
 0002:00001700       __xp_a                     000000018013b700     LIBCMT:initializers.obj
 0002:00001708       __acrt_locale_terminator   000000018013b708     libucrt:locale_initializer.obj
 0002:00001710       __dcrt_console_output_terminator 000000018013b710     libucrt:console_output_initializer.obj
 0002:00001718       __acrt_stdio_terminator    000000018013b718     libucrt:stdio_initializer.obj
 0002:00001720       __xp_z                     000000018013b720     LIBCMT:initializers.obj
 0002:00001728       __xt_a                     000000018013b728     LIBCMT:initializers.obj
 0002:00001730       __xt_z                     000000018013b730     LIBCMT:initializers.obj
 0002:00001740       ??_7PxCollection@physx@@6B@ 000000018013b740     CmCollection.obj
 0002:000017c0       ??_C@_0BA@DLCJDKDM@NonTrackedAlloc@ 000000018013b7c0     CmCollection.obj
 0002:000017d0       ??_7Collection@Cm@physx@@6B@ 000000018013b7d0     CmCollection.obj
 0002:00001850       ??_C@_0GE@GBACBMOC@PxCollection?3?3add?5called?5for?5an@ 000000018013b850     CmCollection.obj
 0002:000018c0       ??_C@_0EJ@HKMANJED@C?3?2Projects?2ExternLibrary?2PhysX@ 000000018013b8c0     CmCollection.obj
 0002:00001910       ??_C@_0EM@OMMGDOMK@PxCollection?3?3add?5called?5with?5a@ 000000018013b910     CmCollection.obj
 0002:00001960       ??_C@_0FC@OIFPHOHK@C?3?2Projects?2ExternLibrary?2PhysX@ 000000018013b960     CmCollection.obj
 0002:000019b8       ??_C@_0BM@OIFKLHDN@?$DMallocation?5names?5disabled?$DO@ 000000018013b9b8     CmCollection.obj
 0002:000019d8       ??_C@_08MDGMHCHN@PtrTable@ 000000018013b9d8     CmPtrTable.obj
 0002:000019e4       ??_C@_04GKJNKENE@void@     000000018013b9e4     CmPtrTable.obj
 0002:000019f0       ??_C@_07DFEBJDHE@mSingle@  000000018013b9f0     CmPtrTable.obj
 0002:000019f8       ??_C@_05NLHHBMOH@PxU16@    000000018013b9f8     CmPtrTable.obj
 0002:00001a00       ??_C@_06EPKHJPIM@mCount@   000000018013ba00     CmPtrTable.obj
 0002:00001a08       ??_C@_04DDKJGDCM@bool@     000000018013ba08     CmPtrTable.obj
 0002:00001a10       ??_C@_0M@DAGELID@mOwnsMemory@ 000000018013ba10     CmPtrTable.obj
 0002:00001a20       ??_C@_0M@MMPOMMLP@mBufferUsed@ 000000018013ba20     CmPtrTable.obj
 0002:00001a30       ??_7RadixSort@Cm@physx@@6B@ 000000018013ba30     CmRadixSort.obj
 0002:00001a40       __xmm@00000001000000010000000100000001 000000018013ba40     CmRadixSort.obj
 0002:00001a50       __xmm@00000003000000020000000100000000 000000018013ba50     CmRadixSort.obj
 0002:00001a60       ??_7RadixSortBuffered@Cm@physx@@6B@ 000000018013ba60     CmRadixSortBuffered.obj
 0002:00001a70       ??_C@_0FA@NJLBNGGM@C?3?2Projects?2ExternLibrary?2PhysX@ 000000018013ba70     CmRadixSortBuffered.obj
 0002:00001ac0       ?sBufferSize@DebugText@Cm@physx@@2HB 000000018013bac0     CmRenderOutput.obj
 0002:00001ad0       ??_C@_0EK@JBHOOGCN@C?3?2Projects?2ExternLibrary?2PhysX@ 000000018013bad0     CmRenderOutput.obj
 0002:00001b1c       __real@3e19999a            000000018013bb1c     CmRenderOutput.obj
 0002:00001b20       __real@3e800000            000000018013bb20     CmRenderOutput.obj
 0002:00001b24       __real@3f3504f3            000000018013bb24     CmRenderOutput.obj
 0002:00001b28       __real@3f800000            000000018013bb28     CmRenderOutput.obj
 0002:00001b2c       __real@3fddb3d7            000000018013bb2c     CmRenderOutput.obj
 0002:00001b30       __real@40c90fdb            000000018013bb30     CmRenderOutput.obj
 0002:00001b40       __xmm@7fffffff7fffffff7fffffff7fffffff 000000018013bb40     CmRenderOutput.obj
 0002:00001b50       __xmm@80000000800000008000000080000000 000000018013bb50     CmRenderOutput.obj
 0002:00001b60       __real@3d4ccccd            000000018013bb60     CmVisualization.obj
 0002:00001b64       __real@3e490fdb            000000018013bb64     CmVisualization.obj
 0002:00001b68       __real@3e99999a            000000018013bb68     CmVisualization.obj
 0002:00001b6c       __real@3f000000            000000018013bb6c     CmVisualization.obj
 0002:00001b70       __real@3fc00000            000000018013bb70     CmVisualization.obj
 0002:00001b74       __real@c0000000            000000018013bb74     CmVisualization.obj
 0002:00001b80       __xmm@3f800000000000000000000000000000 000000018013bb80     CmVisualization.obj
 0002:00001b90       ??_C@_0BB@CPDDPFKD@GetUpdatedModule@ 000000018013bb90     CmWindowsModuleUpdateLoader.obj
 0002:00001ba8       ??_C@_0BA@EGLNOO@PhysXFoundation@ 000000018013bba8     CmWindowsDelayLoadHook.obj
 0002:00001bb8       ??_C@_0M@ILKNCJKN@PhysXCommon@ 000000018013bbb8     CmWindowsDelayLoadHook.obj
 0002:00001bf0       ??_C@_06EJKDJEDO@PxBase@   000000018013bbf0     GuBounds.obj
 0002:00001bf8       ??_C@_0N@CDGINLLF@PxConvexMesh@ 000000018013bbf8     GuBounds.obj
 0002:00001c08       ??_C@_0O@PBAKPCEC@PxHeightField@ 000000018013bc08     GuBounds.obj
 0002:00001c18       ??_7PxBase@physx@@6B@      000000018013bc18     GuBounds.obj
 0002:00001c40       ??_C@_0DG@DFOCGHP@Gu?3?3GeometryUnion?3?3computeBound@ 000000018013bc40     GuBounds.obj
 0002:00001c80       ??_C@_0EI@NPNKOHNE@C?3?2Projects?2ExternLibrary?2PhysX@ 000000018013bc80     GuBounds.obj
 0002:00001cc8       __real@358637bd            000000018013bcc8     GuBounds.obj
 0002:00001ccc       __real@3f400000            000000018013bccc     GuBounds.obj
 0002:00001cd0       __real@3f7fffef            000000018013bcd0     GuBounds.obj
 0002:00001cd4       __real@3f8147ae            000000018013bcd4     GuBounds.obj
 0002:00001cd8       __real@7e7fffff            000000018013bcd8     GuBounds.obj
 0002:00001cdc       __real@7f7fffff            000000018013bcdc     GuBounds.obj
 0002:00001ce0       __real@fe7fffff            000000018013bce0     GuBounds.obj
 0002:00001cf0       __xmm@000000003a83126f3a83126f3a83126f 000000018013bcf0     GuBounds.obj
 0002:00001d00       __xmm@00000000ba83126fba83126fba83126f 000000018013bd00     GuBounds.obj
 0002:00001d10       __xmm@3a83126f3a83126f3a83126f3a83126f 000000018013bd10     GuBounds.obj
 0002:00001d20       __xmm@3f0000003f0000003f0000003f000000 000000018013bd20     GuBounds.obj
 0002:00001d30       __xmm@3f8147ae3f8147ae3f8147ae3f8147ae 000000018013bd30     GuBounds.obj
 0002:00001d40       __xmm@ba83126fba83126fba83126fba83126f 000000018013bd40     GuBounds.obj
 0002:00001d70       __real@3f7ff972            000000018013bd70     GuBox.obj
 0002:00001da0       ??_7?$EntityReport@I@Gu@physx@@6B@ 000000018013bda0     GuCCTSweepTests.obj
 0002:00001dc0       __real@3b03126f            000000018013bdc0     GuCCTSweepTests.obj
 0002:00001dc4       __real@40000000            000000018013bdc4     GuCCTSweepTests.obj
 0002:00001df0       __real@38d1b717            000000018013bdf0     GuGeometryQuery.obj
 0002:00001df4       __real@49742400            000000018013bdf4     GuGeometryQuery.obj
 0002:00001df8       __real@bf800000            000000018013bdf8     GuGeometryQuery.obj
 0002:00001e20       ??_C@_0EN@HLMCCLAI@C?3?2Projects?2ExternLibrary?2PhysX@ 000000018013be20     GuGeometryUnion.obj
 0002:00001eb0       ??_7GuMeshFactory@physx@@6B@ 000000018013beb0     GuMeshFactory.obj
 0002:00001eb8       ??_7MeshDataBase@Gu@physx@@6B@ 000000018013beb8     GuMeshFactory.obj
 0002:00001ec0       ??_C@_0EN@HNIHGEKC@C?3?2Projects?2ExternLibrary?2PhysX@ 000000018013bec0     GuMeshFactory.obj
 0002:00001f10       ??_7TriangleMeshData@Gu@physx@@6B@ 000000018013bf10     GuMeshFactory.obj
 0002:00001f18       ??_7RTreeTriangleData@Gu@physx@@6B@ 000000018013bf18     GuMeshFactory.obj
 0002:00001f20       ??_7BV4TriangleData@Gu@physx@@6B@ 000000018013bf20     GuMeshFactory.obj
 0002:00001f30       ??_C@_0EN@JDFBGKCF@C?3?2Projects?2ExternLibrary?2PhysX@ 000000018013bf30     GuMeshFactory.obj
 0002:00001f80       ??_C@_0GP@NHELMDAL@Loading?5triangle?5mesh?5failed?3?5D@ 000000018013bf80     GuMeshFactory.obj
 0002:00001ff0       ??_C@_0BP@CDOKDACA@RTree?5binary?5image?5load?5error?4@ 000000018013bff0     GuMeshFactory.obj
 0002:00002010       ??_C@_0BN@MJPNIELF@BV4?5binary?5image?5load?5error?4@ 000000018013c010     GuMeshFactory.obj
 0002:00002030       ??_C@_0BO@JDPABAOF@BV32?5binary?5image?5load?5error?4@ 000000018013c030     GuMeshFactory.obj
 0002:00002050       ??_C@_0EK@JIBDOPFE@C?3?2Projects?2ExternLibrary?2PhysX@ 000000018013c050     GuMeshFactory.obj
 0002:000020c0       ??_C@_0P@GGNFNHKF@PxTriangleMesh@ 000000018013c0c0     GuMetaData.obj
 0002:000020d0       ??_C@_07GFCEJNGM@Valency@  000000018013c0d0     GuMetaData.obj
 0002:000020d8       ??_C@_07NHGKEEIN@mOffset@  000000018013c0d8     GuMetaData.obj
 0002:000020e0       ??_C@_0BB@BAGHBMNJ@BigConvexRawData@ 000000018013c0e0     GuMetaData.obj
 0002:000020f8       ??_C@_07PBDEJAAC@mSubdiv@  000000018013c0f8     GuMetaData.obj
 0002:00002100       ??_C@_0L@HNPACPGH@mNbSamples@ 000000018013c100     GuMetaData.obj
 0002:0000210c       ??_C@_04NCKNBPPK@PxU8@     000000018013c10c     GuMetaData.obj
 0002:00002118       ??_C@_08DEPEKJNI@mSamples@ 000000018013c118     GuMetaData.obj
 0002:00002124       ??_C@_05LMJPANIN@PxU32@    000000018013c124     GuMetaData.obj
 0002:00002130       ??_C@_08IJDNJBMI@mNbVerts@ 000000018013c130     GuMetaData.obj
 0002:00002140       ??_C@_0M@MMKMIJAF@mNbAdjVerts@ 000000018013c140     GuMetaData.obj
 0002:00002150       ??_C@_0L@EOKMNILC@mValencies@ 000000018013c150     GuMetaData.obj
 0002:00002160       ??_C@_0P@DLGEAMHJ@mAdjacentVerts@ 000000018013c160     GuMetaData.obj
 0002:00002170       ??_C@_0O@PFOPBKAM@BigConvexData@ 000000018013c170     GuMetaData.obj
 0002:00002180       ??_C@_05PLKALGFN@mData@    000000018013c180     GuMetaData.obj
 0002:00002188       ??_C@_08PEMCLHEM@mVBuffer@ 000000018013c188     GuMetaData.obj
 0002:00002198       ??_C@_09FBMAGD@Alignment@  000000018013c198     GuMetaData.obj
 0002:000021a8       ??_C@_0BE@KFHIBEEA@InternalObjectsData@ 000000018013c1a8     GuMetaData.obj
 0002:000021bc       ??_C@_06GIEBFILM@PxReal@   000000018013c1bc     GuMetaData.obj
 0002:000021c8       ??_C@_07NKGFFIBH@mRadius@  000000018013c1c8     GuMetaData.obj
 0002:000021d0       ??_C@_08EHFCACAE@mExtents@ 000000018013c1d0     GuMetaData.obj
 0002:000021e0       ??_C@_0BA@LFMGGCBK@HullPolygonData@ 000000018013c1e0     GuMetaData.obj
 0002:000021f0       ??_C@_06BOHHGLB@mPlane@    000000018013c1f0     GuMetaData.obj
 0002:000021f8       ??_C@_06EHMLHGLN@mVRef8@   000000018013c1f8     GuMetaData.obj
 0002:00002200       ??_C@_09BAHHHINI@mMinIndex@ 000000018013c200     GuMetaData.obj
 0002:00002210       ??_C@_0P@GBLBPIPB@ConvexHullData@ 000000018013c210     GuMetaData.obj
 0002:00002220       ??_C@_09JDCJAPKD@PxBounds3@ 000000018013c220     GuMetaData.obj
 0002:0000222c       ??_C@_05NDNHIFA@mAABB@     000000018013c22c     GuMetaData.obj
 0002:00002234       ??_C@_06KDGGGLIJ@PxVec3@   000000018013c234     GuMetaData.obj
 0002:00002240       ??_C@_0O@LNOGEMJI@mCenterOfMass@ 000000018013c240     GuMetaData.obj
 0002:00002250       ??_C@_09CNMCBBKH@mPolygons@ 000000018013c250     GuMetaData.obj
 0002:00002260       ??_C@_0BC@KKPDCFJC@mBigConvexRawData@ 000000018013c260     GuMetaData.obj
 0002:00002278       ??_C@_08ELDMKGKH@mNbEdges@ 000000018013c278     GuMetaData.obj
 0002:00002288       ??_C@_0BA@CGLOHBAC@mNbHullVertices@ 000000018013c288     GuMetaData.obj
 0002:00002298       ??_C@_0M@HGFFLLDM@mNbPolygons@ 000000018013c298     GuMetaData.obj
 0002:000022a8       ??_C@_09BHJEMDGO@mInternal@ 000000018013c2a8     GuMetaData.obj
 0002:000022b8       ??_C@_0L@GMFHOMKA@ConvexMesh@ 000000018013c2b8     GuMetaData.obj
 0002:000022c8       ??_C@_0N@KECKKFLK@RefCountable@ 000000018013c2c8     GuMetaData.obj
 0002:000022d8       ??_C@_09ILEBDLJH@mHullData@ 000000018013c2d8     GuMetaData.obj
 0002:000022e4       ??_C@_03DKDIKGNC@mNb@      000000018013c2e4     GuMetaData.obj
 0002:000022e8       ??_C@_0P@ENLHFHMD@mBigConvexData@ 000000018013c2e8     GuMetaData.obj
 0002:000022f8       ??_C@_05ILALLCHK@mMass@    000000018013c2f8     GuMetaData.obj
 0002:00002300       ??_C@_07DBPDADGB@PxMat33@  000000018013c300     GuMetaData.obj
 0002:00002308       ??_C@_08FNBHNDBI@mInertia@ 000000018013c308     GuMetaData.obj
 0002:00002318       ??_C@_0O@FCKNKLMJ@GuMeshFactory@ 000000018013c318     GuMetaData.obj
 0002:00002328       ??_C@_0N@EGBCLMAK@mMeshFactory@ 000000018013c328     GuMetaData.obj
 0002:00002338       ??_C@_0BE@CJJAMAMK@PxHeightFieldSample@ 000000018013c338     GuMetaData.obj
 0002:0000234c       ??_C@_05MBLIPEMA@PxI16@    000000018013c34c     GuMetaData.obj
 0002:00002354       ??_C@_06LNLHEAAG@height@   000000018013c354     GuMetaData.obj
 0002:00002360       ??_C@_0N@HHDGHJN@PxBitAndByte@ 000000018013c360     GuMetaData.obj
 0002:00002370       ??_C@_0P@MBBMLBO@materialIndex0@ 000000018013c370     GuMetaData.obj
 0002:00002380       ??_C@_0P@BFAKPKFP@materialIndex1@ 000000018013c380     GuMetaData.obj
 0002:00002390       ??_C@_0BD@EBLPJEOE@PxHeightFieldFlags@ 000000018013c390     GuMetaData.obj
 0002:000023a8       ??_C@_0BK@FNNCFFCN@PxHeightFieldFormat?3?3Enum@ 000000018013c3a8     GuMetaData.obj
 0002:000023c8       ??_C@_0BA@CLNFMAAA@HeightFieldData@ 000000018013c3c8     GuMetaData.obj
 0002:000023d8       ??_C@_04IMCGAIPI@rows@     000000018013c3d8     GuMetaData.obj
 0002:000023e0       ??_C@_07HIFEPIJN@columns@  000000018013c3e0     GuMetaData.obj
 0002:000023e8       ??_C@_08MOAGOABI@rowLimit@ 000000018013c3e8     GuMetaData.obj
 0002:000023f8       ??_C@_08BAGEHOBO@colLimit@ 000000018013c3f8     GuMetaData.obj
 0002:00002408       ??_C@_09LKDBLADF@nbColumns@ 000000018013c408     GuMetaData.obj
 0002:00002418       ??_C@_07ODIFGGLK@samples@  000000018013c418     GuMetaData.obj
 0002:00002420       ??_C@_0BE@POHEGOJG@convexEdgeThreshold@ 000000018013c420     GuMetaData.obj
 0002:00002434       ??_C@_05GECEPKB@flags@     000000018013c434     GuMetaData.obj
 0002:0000243c       ??_C@_06DLEPGFEF@format@   000000018013c43c     GuMetaData.obj
 0002:00002448       ??_C@_0BF@MOGDNMPL@PxMaterialTableIndex@ 000000018013c448     GuMetaData.obj
 0002:00002460       ??_C@_0M@JMJICJJO@HeightField@ 000000018013c460     GuMetaData.obj
 0002:00002470       ??_C@_0O@ENGHMLJP@mSampleStride@ 000000018013c470     GuMetaData.obj
 0002:00002480       ??_C@_0L@EBEEMFFB@mMinHeight@ 000000018013c480     GuMetaData.obj
 0002:00002490       ??_C@_0L@EAEIFPOF@mMaxHeight@ 000000018013c490     GuMetaData.obj
 0002:000024a0       ??_C@_0N@FEFJOKKE@mModifyCount@ 000000018013c4a0     GuMetaData.obj
 0002:000024b0       ??_C@_09PHDKHCK@RTreePage@ 000000018013c4b0     GuMetaData.obj
 0002:000024bc       ??_C@_04LLPOBGED@minx@     000000018013c4bc     GuMetaData.obj
 0002:000024c4       ??_C@_04KCOFCHAC@miny@     000000018013c4c4     GuMetaData.obj
 0002:000024cc       ??_C@_04IJMIHEMB@minz@     000000018013c4cc     GuMetaData.obj
 0002:000024d4       ??_C@_04GGOBOBGO@maxx@     000000018013c4d4     GuMetaData.obj
 0002:000024dc       ??_C@_04HPPKNACP@maxy@     000000018013c4dc     GuMetaData.obj
 0002:000024e4       ??_C@_04FENHIDOM@maxz@     000000018013c4e4     GuMetaData.obj
 0002:000024ec       ??_C@_04HHDFEJON@ptrs@     000000018013c4ec     GuMetaData.obj
 0002:000024f4       ??_C@_05FFEIGAJF@RTree@    000000018013c4f4     GuMetaData.obj
 0002:000024fc       ??_C@_06OMCHPNEO@PxVec4@   000000018013c4fc     GuMetaData.obj
 0002:00002508       ??_C@_0L@NBIFEFLN@mBoundsMin@ 000000018013c508     GuMetaData.obj
 0002:00002518       ??_C@_0L@MDAOKBNC@mBoundsMax@ 000000018013c518     GuMetaData.obj
 0002:00002528       ??_C@_0N@NJEHLCOF@mInvDiagonal@ 000000018013c528     GuMetaData.obj
 0002:00002538       ??_C@_0BA@BEFIGPFG@mDiagonalScaler@ 000000018013c538     GuMetaData.obj
 0002:00002548       ??_C@_09DICGGKGO@mPageSize@ 000000018013c548     GuMetaData.obj
 0002:00002558       ??_C@_0O@BOFFCNOL@mNumRootPages@ 000000018013c558     GuMetaData.obj
 0002:00002568       ??_C@_0L@JKLGBKAE@mNumLevels@ 000000018013c568     GuMetaData.obj
 0002:00002578       ??_C@_0M@PHDOHJGK@mTotalNodes@ 000000018013c578     GuMetaData.obj
 0002:00002588       ??_C@_0M@GDGHALAO@mTotalPages@ 000000018013c588     GuMetaData.obj
 0002:00002594       ??_C@_06MHCBBJGP@mFlags@   000000018013c594     GuMetaData.obj
 0002:0000259c       ??_C@_06MMNBLHOK@mPages@   000000018013c59c     GuMetaData.obj
 0002:000025a8       ??_C@_0L@LEOGNOEC@SourceMesh@ 000000018013c5a8     GuMetaData.obj
 0002:000025b4       ??_C@_06JFCLJMNN@mVerts@   000000018013c5b4     GuMetaData.obj
 0002:000025c0       ??_C@_07MPIKOOAP@mNbTris@  000000018013c5c0     GuMetaData.obj
 0002:000025c8       ??_C@_0N@FBMOMEHF@mTriangles32@ 000000018013c5c8     GuMetaData.obj
 0002:000025d8       ??_C@_0N@DGCGNFBP@mTriangles16@ 000000018013c5d8     GuMetaData.obj
 0002:000025e8       ??_C@_06DHAAKLFK@mRemap@   000000018013c5e8     GuMetaData.obj
 0002:000025f0       ??_C@_0O@NLNHFNO@QuantizedAABB@ 000000018013c5f0     GuMetaData.obj
 0002:00002600       ??_C@_0BC@OOGBEMHH@mData?$FL0?$FN?4mExtents@ 000000018013c600     GuMetaData.obj
 0002:00002618       ??_C@_0BB@OCEDKIEF@mData?$FL0?$FN?4mCenter@ 000000018013c618     GuMetaData.obj
 0002:00002630       ??_C@_0BC@HFMEAABI@mData?$FL1?$FN?4mExtents@ 000000018013c630     GuMetaData.obj
 0002:00002648       ??_C@_0BB@CDMNHHIF@mData?$FL1?$FN?4mCenter@ 000000018013c648     GuMetaData.obj
 0002:00002660       ??_C@_0BC@CFKNCOI@mData?$FL2?$FN?4mExtents@ 000000018013c660     GuMetaData.obj
 0002:00002678       ??_C@_0BB@LKCPBBIE@mData?$FL2?$FN?4mCenter@ 000000018013c678     GuMetaData.obj
 0002:00002690       ??_C@_0O@MJJKKPFN@BVDataPackedQ@ 000000018013c690     GuMetaData.obj
 0002:000026a0       ??_C@_0M@PNCEBOG@LocalBounds@ 000000018013c6a0     GuMetaData.obj
 0002:000026b0       ??_C@_07GNKDIIKJ@mCenter@  000000018013c6b0     GuMetaData.obj
 0002:000026b8       ??_C@_05KNFBNCOH@float@    000000018013c6b8     GuMetaData.obj
 0002:000026c0       ??_C@_0BC@LADJKHPL@mExtentsMagnitude@ 000000018013c6c0     GuMetaData.obj
 0002:000026d8       ??_C@_07HELIOLAF@BV4Tree@  000000018013c6d8     GuMetaData.obj
 0002:000026e0       ??_C@_0P@EMMDNPMH@mMeshInterface@ 000000018013c6e0     GuMetaData.obj
 0002:000026f0       ??_C@_0N@DCKMHLCL@mLocalBounds@ 000000018013c6f0     GuMetaData.obj
 0002:00002700       ??_C@_08EEJOMIJL@mNbNodes@ 000000018013c700     GuMetaData.obj
 0002:00002710       ??_C@_09FGKNPI@mInitData@  000000018013c710     GuMetaData.obj
 0002:00002720       ??_C@_0BC@CLDEHKCO@mCenterOrMinCoeff@ 000000018013c720     GuMetaData.obj
 0002:00002738       ??_C@_0BD@LAOLBNJ@mExtentsOrMaxCoeff@ 000000018013c738     GuMetaData.obj
 0002:00002750       ??_C@_0P@JEECKKBL@mUserAllocated@ 000000018013c750     GuMetaData.obj
 0002:00002760       ??_C@_0L@GLIMNECG@mQuantized@ 000000018013c760     GuMetaData.obj
 0002:00002770       ??_C@_08BNDBAGDH@mPadding@ 000000018013c770     GuMetaData.obj
 0002:00002780       ??_C@_0N@OJNNNLIB@TriangleMesh@ 000000018013c780     GuMetaData.obj
 0002:00002790       ??_C@_0M@OGEDMEAL@mNbVertices@ 000000018013c790     GuMetaData.obj
 0002:000027a0       ??_C@_0N@MGGDNHNI@mNbTriangles@ 000000018013c7a0     GuMetaData.obj
 0002:000027b0       ??_C@_09LNNEGOJA@mVertices@ 000000018013c7b0     GuMetaData.obj
 0002:000027c0       ??_C@_0L@KBOFAKLO@mTriangles@ 000000018013c7c0     GuMetaData.obj
 0002:000027d0       ??_C@_0P@MHDFIHLD@mExtraTrigData@ 000000018013c7d0     GuMetaData.obj
 0002:000027e0       ??_C@_0N@MGIKKCI@mGeomEpsilon@ 000000018013c7e0     GuMetaData.obj
 0002:000027f0       ??_C@_0BB@IFLOOCNA@mMaterialIndices@ 000000018013c7f0     GuMetaData.obj
 0002:00002808       ??_C@_0L@OPJMBFMI@mFaceRemap@ 000000018013c808     GuMetaData.obj
 0002:00002818       ??_C@_0N@BIOECAPM@mAdjacencies@ 000000018013c818     GuMetaData.obj
 0002:00002828       ??_C@_0BA@OCOIGPII@mGRB_triIndices@ 000000018013c828     GuMetaData.obj
 0002:00002838       ??_C@_0BE@JPINNDAH@mGRB_triAdjacencies@ 000000018013c838     GuMetaData.obj
 0002:00002850       ??_C@_0P@EDFJJHEF@mGRB_faceRemap@ 000000018013c850     GuMetaData.obj
 0002:00002860       ??_C@_0O@CKMBAIFN@mGRB_BV32Tree@ 000000018013c860     GuMetaData.obj
 0002:00002870       ??_C@_0BC@IFGECKF@RTreeTriangleMesh@ 000000018013c870     GuMetaData.obj
 0002:00002884       ??_C@_06JDIHDDGN@mRTree@   000000018013c884     GuMetaData.obj
 0002:00002890       ??_C@_0BA@LNNFPOKA@BV4TriangleMesh@ 000000018013c890     GuMetaData.obj
 0002:000028a0       ??_C@_08FKLPEGDB@mBV4Tree@ 000000018013c8a0     GuMetaData.obj
 0002:000028b0       ??_C@_0BG@EAPGHGEI@MaterialIndicesStruct@ 000000018013c8b0     GuMetaData.obj
 0002:000028c8       ??_C@_07OKCKIPNN@indices@  000000018013c8c8     GuMetaData.obj
 0002:000028d0       ??_C@_0L@KCBHBGBP@numIndices@ 000000018013c8d0     GuMetaData.obj
 0002:000028dc       ??_C@_03PNAAIPML@pad@      000000018013c8dc     GuMetaData.obj
 0002:000028e0       ??_C@_05MOMFAHOB@pad64@    000000018013c8e0     GuMetaData.obj
 0002:000028e8       ??_C@_0BK@GNJGHDGO@PxConvexMeshGeometryFlags@ 000000018013c8e8     GuMetaData.obj
 0002:00002908       ??_C@_0BJ@LIOOOKID@ShadowConvexMeshGeometry@ 000000018013c908     GuMetaData.obj
 0002:00002928       ??_C@_0BF@PJFPGDNP@PxGeometryType?3?3Enum@ 000000018013c928     GuMetaData.obj
 0002:00002940       ??_C@_05GNIIDDHH@mType@    000000018013c940     GuMetaData.obj
 0002:00002948       ??_C@_0M@JFNDEGCE@PxMeshScale@ 000000018013c948     GuMetaData.obj
 0002:00002954       ??_C@_05MHMEBBGO@scale@    000000018013c954     GuMetaData.obj
 0002:00002960       ??_C@_0L@OKMLGDHH@convexMesh@ 000000018013c960     GuMetaData.obj
 0002:00002970       ??_C@_09PLMNFMJI@meshFlags@ 000000018013c970     GuMetaData.obj
 0002:00002980       ??_C@_0BB@EINMAHMD@paddingFromFlags@ 000000018013c980     GuMetaData.obj
 0002:00002998       ??_C@_08CICKEKCM@hullData@ 000000018013c998     GuMetaData.obj
 0002:000029a8       ??_C@_0O@EOELHBFF@gpuCompatible@ 000000018013c9a8     GuMetaData.obj
 0002:000029b8       ??_C@_0BE@FFPGAPHN@PxMeshGeometryFlags@ 000000018013c9b8     GuMetaData.obj
 0002:000029d0       ??_C@_0BL@KABFLNEB@ShadowTriangleMeshGeometry@ 000000018013c9d0     GuMetaData.obj
 0002:000029f0       ??_C@_0N@FKKDJAHE@triangleMesh@ 000000018013c9f0     GuMetaData.obj
 0002:00002a00       ??_C@_08BEABJAHJ@meshData@ 000000018013ca00     GuMetaData.obj
 0002:00002a10       ??_C@_0BA@NGIONHFJ@materialIndices@ 000000018013ca10     GuMetaData.obj
 0002:00002a20       ??_C@_09JGGNEAGH@materials@ 000000018013ca20     GuMetaData.obj
 0002:00002a30       ??_C@_0BK@OIFEOHNJ@ShadowHeightFieldGeometry@ 000000018013ca30     GuMetaData.obj
 0002:00002a50       ??_C@_0M@IEKJPCGG@heightField@ 000000018013ca50     GuMetaData.obj
 0002:00002a60       ??_C@_0M@LHLNPPJ@heightScale@ 000000018013ca60     GuMetaData.obj
 0002:00002a70       ??_C@_08GJPCBGLE@rowScale@ 000000018013ca70     GuMetaData.obj
 0002:00002a80       ??_C@_0M@HHBHEPCE@columnScale@ 000000018013ca80     GuMetaData.obj
 0002:00002a90       ??_C@_0BB@PMIIHDKK@heightFieldFlags@ 000000018013ca90     GuMetaData.obj
 0002:00002aa8       ??_C@_0BA@DMOKLLHN@heightFieldData@ 000000018013caa8     GuMetaData.obj
 0002:00002ab8       ??_C@_0BE@IKADPPC@ShadowPlaneGeometry@ 000000018013cab8     GuMetaData.obj
 0002:00002ad0       ??_C@_0BF@PIKLLBGN@ShadowSphereGeometry@ 000000018013cad0     GuMetaData.obj
 0002:00002ae8       ??_C@_06KGHINEPG@radius@   000000018013cae8     GuMetaData.obj
 0002:00002af0       ??_C@_0BG@OBHJHKMO@ShadowCapsuleGeometry@ 000000018013caf0     GuMetaData.obj
 0002:00002b08       ??_C@_0L@PMAANELH@halfHeight@ 000000018013cb08     GuMetaData.obj
 0002:00002b18       ??_C@_0BC@DMJNHLLO@ShadowBoxGeometry@ 000000018013cb18     GuMetaData.obj
 0002:00002b30       ??_C@_0M@CMAEPJOI@halfExtents@ 000000018013cb30     GuMetaData.obj
 0002:00002b40       ??_C@_0BH@PKALDLFA@PxConvexMeshGeometryLL@ 000000018013cb40     GuMetaData.obj
 0002:00002b58       ??_C@_0BJ@GAFBNAAE@PxTriangleMeshGeometryLL@ 000000018013cb58     GuMetaData.obj
 0002:00002b78       ??_C@_0BI@IIFLCNOC@PxHeightFieldGeometryLL@ 000000018013cb78     GuMetaData.obj
 0002:00002b90       ??_C@_0BA@NAHKMBFO@PxPlaneGeometry@ 000000018013cb90     GuMetaData.obj
 0002:00002ba0       ??_C@_0BB@CHBDIEFA@PxSphereGeometry@ 000000018013cba0     GuMetaData.obj
 0002:00002bb8       ??_C@_0BC@LJMOIOOK@PxCapsuleGeometry@ 000000018013cbb8     GuMetaData.obj
 0002:00002bd0       ??_C@_0O@OEDJDNFP@PxBoxGeometry@ 000000018013cbd0     GuMetaData.obj
 0002:00002be0       ??_C@_0BC@ICOOCLFG@Gu?3?3GeometryUnion@ 000000018013cbe0     GuMetaData.obj
 0002:00002bf8       ??_7?$SupportLocalImpl@VConvexHullV@Gu@physx@@@Gu@physx@@6B@ 000000018013cbf8     GuMTD.obj
 0002:00002c18       ??_7?$SupportLocalImpl@VConvexHullNoScaleV@Gu@physx@@@Gu@physx@@6B@ 000000018013cc18     GuMTD.obj
 0002:00002c38       ??_7?$SupportLocalImpl@VBoxV@Gu@physx@@@Gu@physx@@6B@ 000000018013cc38     GuMTD.obj
 0002:00002c58       ??_7SupportLocal@Gu@physx@@6B@ 000000018013cc58     GuMTD.obj
 0002:00002ca0       ?absMask@?1??FAbs@aos@shdfnd@physx@@YA?AT__m128@@T5@@Z@4QBIB 000000018013cca0     GuMTD.obj
 0002:00002cb0       ??_7GjkConvexBase@Gu@physx@@6B@ 000000018013ccb0     GuMTD.obj
 0002:00002ce0       ??_7?$LocalConvex@VCapsuleV@Gu@physx@@@Gu@physx@@6B@ 000000018013cce0     GuMTD.obj
 0002:00002d10       ??_7?$LocalConvex@VConvexHullV@Gu@physx@@@Gu@physx@@6B@ 000000018013cd10     GuMTD.obj
 0002:00002d40       __real@2edbe6ff            000000018013cd40     GuMTD.obj
 0002:00002d44       __real@3ccccccd            000000018013cd44     GuMTD.obj
 0002:00002d48       __real@3dcccccd            000000018013cd48     GuMTD.obj
 0002:00002d4c       __real@ff7fffff            000000018013cd4c     GuMTD.obj
 0002:00002d50       __xmm@0000000000000000000000003f800000 000000018013cd50     GuMTD.obj
 0002:00002d60       __xmm@00000000000000003f80000000000000 000000018013cd60     GuMTD.obj
 0002:00002d70       __xmm@000000003f8000000000000000000000 000000018013cd70     GuMTD.obj
 0002:00002d80       __xmm@000000003f8000003f8000003f800000 000000018013cd80     GuMTD.obj
 0002:00002d90       __xmm@00000000ffffffffffffffffffffffff 000000018013cd90     GuMTD.obj
 0002:00002da0       __xmm@34000000340000003400000034000000 000000018013cda0     GuMTD.obj
 0002:00002db0       __xmm@358637bd358637bd358637bd358637bd 000000018013cdb0     GuMTD.obj
 0002:00002dc0       __xmm@3dcccccd3dcccccd3dcccccd3dcccccd 000000018013cdc0     GuMTD.obj
 0002:00002dd0       __xmm@3e4ccccd3e4ccccd3e4ccccd3e4ccccd 000000018013cdd0     GuMTD.obj
 0002:00002de0       __xmm@3f7ff1413f7ff1413f7ff1413f7ff141 000000018013cde0     GuMTD.obj
 0002:00002df0       __xmm@3f7ff2e53f7ff2e53f7ff2e53f7ff2e5 000000018013cdf0     GuMTD.obj
 0002:00002e00       __xmm@3f8000003f8000003f8000003f800000 000000018013ce00     GuMTD.obj
 0002:00002e10       __xmm@7f7fffff7f7fffff7f7fffff7f7fffff 000000018013ce10     GuMTD.obj
 0002:00002e20       __xmm@bf000000bf000000bf000000bf000000 000000018013ce20     GuMTD.obj
 0002:00002e50       ??_7?$RelativeConvex@VBoxV@Gu@physx@@@Gu@physx@@6B@ 000000018013ce50     GuOverlapTests.obj
 0002:00002e80       ??_7?$RelativeConvex@VConvexHullV@Gu@physx@@@Gu@physx@@6B@ 000000018013ce80     GuOverlapTests.obj
 0002:00002eb0       ??_C@_0EC@MLIJOGHA@Height?5Field?5Overlap?5test?5calle@ 000000018013ceb0     GuOverlapTests.obj
 0002:00002f00       ??_C@_0EO@DGICFDJD@C?3?2Projects?2ExternLibrary?2PhysX@ 000000018013cf00     GuOverlapTests.obj
 0002:00002f80       ??_C@_0EC@GJLDADPE@Height?5Field?5Raycast?5test?5calle@ 000000018013cf80     GuRaycastTests.obj
 0002:00002fd0       ??_C@_0EO@MFEPCEDJ@C?3?2Projects?2ExternLibrary?2PhysX@ 000000018013cfd0     GuRaycastTests.obj
 0002:00003020       __real@1e3ce508            000000018013d020     GuRaycastTests.obj
 0002:00003024       __real@28800000            000000018013d024     GuRaycastTests.obj
 0002:00003028       __real@33d6bf95            000000018013d028     GuRaycastTests.obj
 0002:0000302c       __real@3727c5ac            000000018013d02c     GuRaycastTests.obj
 0002:00003030       __real@3f0147ae            000000018013d030     GuRaycastTests.obj
 0002:00003034       __real@3f7ffffe            000000018013d034     GuRaycastTests.obj
 0002:00003038       __real@3f800347            000000018013d038     GuRaycastTests.obj
 0002:0000303c       __real@41200000            000000018013d03c     GuRaycastTests.obj
 0002:00003040       __real@80000000            000000018013d040     GuRaycastTests.obj
 0002:00003044       __real@b3d6bf95            000000018013d044     GuRaycastTests.obj
 0002:00003048       __real@b8d1b717            000000018013d048     GuRaycastTests.obj
 0002:0000304c       __real@c1200000            000000018013d04c     GuRaycastTests.obj
 0002:00003080       ??_7?$MeshHitCallback@UPxRaycastHit@physx@@@Gu@physx@@6B@ 000000018013d080     GuSweepMTD.obj
 0002:00003090       ??_7MeshMTDGenerationCallback@@6B@ 000000018013d090     GuSweepMTD.obj
 0002:000030a0       ??_7MidPhaseQueryLocalReport@@6B@ 000000018013d0a0     GuSweepMTD.obj
 0002:000030b0       __real@3f933333            000000018013d0b0     GuSweepMTD.obj
 0002:000030c0       __xmm@00000000000000003f8000003f800000 000000018013d0c0     GuSweepMTD.obj
 0002:000030d0       __xmm@3e19999a3e19999a3e19999a3e19999a 000000018013d0d0     GuSweepMTD.obj
 0002:000030e0       __xmm@3e8000003e8000003e8000003e800000 000000018013d0e0     GuSweepMTD.obj
 0002:00003110       __real@3c23d70a            000000018013d110     GuSweepSharedTests.obj
 0002:00003114       __real@42c80000            000000018013d114     GuSweepSharedTests.obj
 0002:00003120       __xmm@ffffffffffffffffffffffffffffffff 000000018013d120     GuSweepSharedTests.obj
 0002:00003150       ??_C@_0EA@GNDJNJGB@Height?5Field?5Sweep?5test?5called?5@ 000000018013d150     GuSweepTests.obj
 0002:00003190       ??_C@_0EM@MIGCODJA@C?3?2Projects?2ExternLibrary?2PhysX@ 000000018013d190     GuSweepTests.obj
 0002:000031e0       ??_7?$LocalConvex@VBoxV@Gu@physx@@@Gu@physx@@6B@ 000000018013d1e0     GuSweepTests.obj
 0002:00003210       ??_7?$LocalConvex@VTriangleV@Gu@physx@@@Gu@physx@@6B@ 000000018013d210     GuSweepTests.obj
 0002:00003240       __xmm@00000002000000020000000200000002 000000018013d240     GuSweepTests.obj
 0002:00003250       __xmm@3eaaaa9f3eaaaa9f3eaaaa9f3eaaaa9f 000000018013d250     GuSweepTests.obj
 0002:00003280       ??_C@_0EP@GIIBKEBM@C?3?2Projects?2ExternLibrary?2PhysX@ 000000018013d280     GuAABBTreeBuild.obj
 0002:000032f0       ??_7PxBVHStructure@physx@@6B@ 000000018013d2f0     GuBVHStructure.obj
 0002:00003340       ??_C@_0P@CDPKBIIF@PxBVHStructure@ 000000018013d340     GuBVHStructure.obj
 0002:00003350       ??_7RefCountable@Cm@physx@@6B@ 000000018013d350     GuBVHStructure.obj
 0002:00003360       ??_7BVHStructure@Gu@physx@@6BPxBVHStructure@2@@ 000000018013d360     GuBVHStructure.obj
 0002:000033b0       ??_7BVHStructure@Gu@physx@@6BRefCountable@Cm@2@@ 000000018013d3b0     GuBVHStructure.obj
 0002:000033c0       ??_C@_0EO@LCNCKKHB@C?3?2Projects?2ExternLibrary?2PhysX@ 000000018013d3c0     GuBVHStructure.obj
 0002:00003410       ??_C@_0DF@GMOKOMPK@Gu?3?3BVHStructure?3?3release?3?5doub@ 000000018013d410     GuBVHStructure.obj
 0002:000034b0       __real@00000000            000000018013d4b0     GuCCDSweepConvexMesh.obj
 0002:000034b4       __real@3c343958            000000018013d4b4     GuCCDSweepConvexMesh.obj
 0002:000034b8       __real@3ca3d70a            000000018013d4b8     GuCCDSweepConvexMesh.obj
 0002:000034bc       __real@3f0ccccd            000000018013d4bc     GuCCDSweepConvexMesh.obj
 0002:000034c0       __real@3f8ccccd            000000018013d4c0     GuCCDSweepConvexMesh.obj
 0002:000034c4       __real@b58637bd            000000018013d4c4     GuCCDSweepConvexMesh.obj
 0002:000034d0       __xmm@000000000000000000000000fe7fffff 000000018013d4d0     GuCCDSweepConvexMesh.obj
 0002:000034e0       __xmm@fe7ffffffe7fffff7e7fffff7e7fffff 000000018013d4e0     GuCCDSweepConvexMesh.obj
 0002:00003510       ??_7?$RelativeConvex@VCapsuleV@Gu@physx@@@Gu@physx@@6B@ 000000018013d510     GuCCDSweepPrimitives.obj
 0002:00003540       ??_7?$RelativeConvex@VTriangleV@Gu@physx@@@Gu@physx@@6B@ 000000018013d540     GuCCDSweepPrimitives.obj
 0002:00003570       __real@3ba3d70a            000000018013d570     GuCCDSweepPrimitives.obj
 0002:00003574       __real@501502f9            000000018013d574     GuCCDSweepPrimitives.obj
 0002:00003680       __real@3f7fbe77            000000018013d680     GuContactBoxBox.obj
 0002:000036d0       __real@3a83126f            000000018013d6d0     GuContactCapsuleCapsule.obj
 0002:000036d4       __real@3f7ff2e5            000000018013d6d4     GuContactCapsuleCapsule.obj
 0002:000036d8       __real@40800000            000000018013d6d8     GuContactCapsuleCapsule.obj
 0002:00003760       __real@358637be            000000018013d760     GuContactCapsuleMesh.obj
 0002:00003764       __real@3eaaaaab            000000018013d764     GuContactCapsuleMesh.obj
 0002:00003768       __real@3f8020c5            000000018013d768     GuContactCapsuleMesh.obj
 0002:0000376c       __real@ba83126f            000000018013d76c     GuContactCapsuleMesh.obj
 0002:000037c0       ??_7ConvexMeshContactGenerationCallback@@6B@ 000000018013d7c0     GuContactConvexMesh.obj
 0002:00003840       __real@3ec90fdb            000000018013d840     GuContactPolygonPolygon.obj
 0002:00003844       __real@3f490fdb            000000018013d844     GuContactPolygonPolygon.obj
 0002:00003848       __real@3f96cbe4            000000018013d848     GuContactPolygonPolygon.obj
 0002:0000384c       __real@3fc90fdb            000000018013d84c     GuContactPolygonPolygon.obj
 0002:00003850       __real@3ffb53d2            000000018013d850     GuContactPolygonPolygon.obj
 0002:00003854       __real@4016cbe4            000000018013d854     GuContactPolygonPolygon.obj
 0002:00003858       __real@402feddf            000000018013d858     GuContactPolygonPolygon.obj
 0002:00003860       __xmm@ff7fffffff7fffffff7fffffff7fffff 000000018013d860     GuContactPolygonPolygon.obj
 0002:00003910       ??_C@_0EJ@LOPNLIJN@C?3?2Projects?2ExternLibrary?2PhysX@ 000000018013d910     GuContactSphereMesh.obj
 0002:000039a0       __real@bf000000            000000018013d9a0     GuContactSphereSphere.obj
 0002:000039b0       ??_C@_0FG@BGBBCGCJ@C?3?2Projects?2ExternLibrary?2PhysX@ 000000018013d9b0     GuBigConvexData.obj
 0002:00003a30       ??_7PxConvexMesh@physx@@6B@ 000000018013da30     GuConvexMesh.obj
 0002:00003aa8       ??_7ConvexMesh@Gu@physx@@6BPxConvexMesh@2@@ 000000018013daa8     GuConvexMesh.obj
 0002:00003b30       ??_7ConvexMesh@Gu@physx@@6BRefCountable@Cm@2@@ 000000018013db30     GuConvexMesh.obj
 0002:00003b40       ??_C@_0FD@FKDBEHIC@C?3?2Projects?2ExternLibrary?2PhysX@ 000000018013db40     GuConvexMesh.obj
 0002:00003b98       ??_C@_0DM@NEJKOFIP@Loading?5convex?5mesh?5failed?3?5Dep@ 000000018013db98     GuConvexMesh.obj
 0002:00003bd8       ??_C@_0DD@GDAMDLJL@Gu?3?3ConvexMesh?3?3release?3?5double@ 000000018013dbd8     GuConvexMesh.obj
 0002:00003c30       __xmm@000000000000000000000000ffffffff 000000018013dc30     GuConvexSupportTable.obj
 0002:00003c40       __xmm@0000000000000000ffffffff00000000 000000018013dc40     GuConvexSupportTable.obj
 0002:00003c50       __xmm@0000000000000000ffffffffffffffff 000000018013dc50     GuConvexSupportTable.obj
 0002:00003c60       __xmm@00000000ffffffff0000000000000000 000000018013dc60     GuConvexSupportTable.obj
 0002:00003c70       __xmm@00000000ffffffff00000000ffffffff 000000018013dc70     GuConvexSupportTable.obj
 0002:00003c80       __xmm@00000000ffffffffffffffff00000000 000000018013dc80     GuConvexSupportTable.obj
 0002:00003d30       __real@2b8cbccc            000000018013dd30     GuDistanceSegmentTriangle.obj
 0002:00003d40       __xmm@3f8000013f8000013f8000013f800001 000000018013dd40     GuDistanceSegmentTriangle.obj
 0002:00003d50       __xmm@b4000000b4000000b4000000b4000000 000000018013dd50     GuDistanceSegmentTriangle.obj
 0002:00003db0       __xmm@38d1b71738d1b71738d1b71738d1b717 000000018013ddb0     GuGJKSimplex.obj
 0002:00003dc0       __xmm@b58637bdb58637bdb58637bdb58637bd 000000018013ddc0     GuGJKSimplex.obj
 0002:00003df0       ??_7PxHeightField@physx@@6B@ 000000018013ddf0     GuHeightField.obj
 0002:00003e90       ??_7HeightField@Gu@physx@@6BPxHeightField@2@@ 000000018013de90     GuHeightField.obj
 0002:00003f40       ??_7HeightField@Gu@physx@@6BRefCountable@Cm@2@@ 000000018013df40     GuHeightField.obj
 0002:00003f50       ??_C@_0DL@DNGFPCEG@Gu?3?3HeightField?3?3onRefCountZero@ 000000018013df50     GuHeightField.obj
 0002:00003f90       ??_C@_0FA@OJLAPLOC@C?3?2Projects?2ExternLibrary?2PhysX@ 000000018013df90     GuHeightField.obj
 0002:00003fe0       ??_C@_0CI@DMKEKGNK@Gu?3?3HeightField?3?3load?3?5PX_ALLOC@ 000000018013dfe0     GuHeightField.obj
 0002:00004010       ??_C@_0ED@KJMIPDPH@C?3?2Projects?2ExternLibrary?2PhysX@ 000000018013e010     GuHeightField.obj
 0002:00004080       __real@3a03126f            000000018013e080     GuHeightFieldUtil.obj
 0002:00004084       __real@3f19999a            000000018013e084     GuHeightFieldUtil.obj
 0002:000040f0       ??_7HeightFieldTraceSegmentReport@@6B@ 000000018013e0f0     GuSweepsHF.obj
 0002:00004100       ??_7CapsuleTraceSegmentReport@@6B@ 000000018013e100     GuSweepsHF.obj
 0002:00004110       ??_7ConvexTraceSegmentReport@@6B@ 000000018013e110     GuSweepsHF.obj
 0002:00004120       ??_7BoxTraceSegmentReport@@6B@ 000000018013e120     GuSweepsHF.obj
 0002:00004130       __real@aedbe6ff            000000018013e130     GuSweepsHF.obj
 0002:00004160       __real@3089705f            000000018013e160     GuIntersectionRayBox.obj
 0002:00004164       __real@34000000            000000018013e164     GuIntersectionRayBox.obj
 0002:00004168       __real@b4000000            000000018013e168     GuIntersectionRayBox.obj
 0002:00004170       __xmm@000000003089705f3089705f3089705f 000000018013e170     GuIntersectionRayBox.obj
 0002:00004180       __xmm@00000000bf800000bf800000bf800000 000000018013e180     GuIntersectionRayBox.obj
 0002:000041d0       ??_C@_0EK@DADNKIDM@C?3?2Projects?2ExternLibrary?2PhysX@ 000000018013e1d0     GuBV4.obj
 0002:00004240       ??_C@_0EP@HHLJLCIA@C?3?2Projects?2ExternLibrary?2PhysX@ 000000018013e240     GuBV4Build.obj
 0002:00004290       __real@38000100            000000018013e290     GuBV4Build.obj
 0002:00004294       __real@3e93cd3a            000000018013e294     GuBV4Build.obj
 0002:00004298       __real@46fffe00            000000018013e298     GuBV4Build.obj
 0002:0000429c       __real@be93cd3a            000000018013e29c     GuBV4Build.obj
 0002:000042c0       __xmm@0000ffff0000ffff0000ffff0000ffff 000000018013e2c0     GuBV4_AABBSweep.obj
 0002:000042d0       __xmm@3089705f3089705f3089705f3089705f 000000018013e2d0     GuBV4_AABBSweep.obj
 0002:000042e0       __xmm@33d6bf9533d6bf9533d6bf9533d6bf95 000000018013e2e0     GuBV4_AABBSweep.obj
 0002:000042f0       __xmm@40000000400000004000000040000000 000000018013e2f0     GuBV4_AABBSweep.obj
 0002:00004400       __xmm@00000000000000007f7fffff00000000 000000018013e400     GuMidphaseBV4.obj
 0002:00004470       ??_C@_0FD@EHCCILIF@Adjacency?5information?5not?5creat@ 000000018013e470     GuMeshQuery.obj
 0002:000044d0       ??_C@_0FA@OKFIADIJ@C?3?2Projects?2ExternLibrary?2PhysX@ 000000018013e4d0     GuMeshQuery.obj
 0002:00004520       __real@4cbebc20            000000018013e520     GuMeshQuery.obj
 0002:00004550       ??_7Callback@RTree@Gu@physx@@6B@ 000000018013e550     GuMidphaseRTree.obj
 0002:00004568       ??_7CallbackRaycast@RTree@Gu@physx@@6B@ 000000018013e568     GuMidphaseRTree.obj
 0002:00004568       ??_7CallbackRefit@RTree@Gu@physx@@6B@ 000000018013e568     GuTriangleMeshRTree.obj
 0002:00004578       ??_7?$RayRTreeCallback@$0A@$0A@@@6BCallbackRaycast@RTree@Gu@physx@@@ 000000018013e578     GuMidphaseRTree.obj
 0002:00004578       ??_7?$RayRTreeCallback@$00$0A@@@6BCallbackRaycast@RTree@Gu@physx@@@ 000000018013e578     GuMidphaseRTree.obj
 0002:00004588       ??_7?$RayRTreeCallback@$00$0A@@@6BCallback@RTree@Gu@physx@@@ 000000018013e588     GuMidphaseRTree.obj
 0002:00004588       ??_7?$RayRTreeCallback@$0A@$0A@@@6BCallback@RTree@Gu@physx@@@ 000000018013e588     GuMidphaseRTree.obj
 0002:000045a0       ??_7RayMeshColliderCallback@@6B@ 000000018013e5a0     GuMidphaseRTree.obj
 0002:000045b0       ??_7?$RayRTreeCallback@$0A@$00@@6BCallbackRaycast@RTree@Gu@physx@@@ 000000018013e5b0     GuMidphaseRTree.obj
 0002:000045c0       ??_7?$RayRTreeCallback@$0A@$00@@6BCallback@RTree@Gu@physx@@@ 000000018013e5c0     GuMidphaseRTree.obj
 0002:000045d8       ??_7?$RayRTreeCallback@$00$00@@6BCallbackRaycast@RTree@Gu@physx@@@ 000000018013e5d8     GuMidphaseRTree.obj
 0002:000045e8       ??_7?$RayRTreeCallback@$00$00@@6BCallback@RTree@Gu@physx@@@ 000000018013e5e8     GuMidphaseRTree.obj
 0002:000046c0       ??_7ConvexVsMeshOverlapCallback@@6B@ 000000018013e6c0     GuOverlapTestsMesh.obj
 0002:000046d0       ?MN@RTreePage@Gu@physx@@2MB 000000018013e6d0     GuRTree.obj
 0002:000046d4       ?MX@RTreePage@Gu@physx@@2MB 000000018013e6d4     GuRTree.obj
 0002:00004700       ??_C@_0EM@GDEAFKPP@C?3?2Projects?2ExternLibrary?2PhysX@ 000000018013e700     GuRTree.obj
 0002:000047c0       ??_7SweepShapeMeshHitCallback@Gu@physx@@6B@ 000000018013e7c0     GuSweepsMesh.obj
 0002:000047d0       ??_7SweepCapsuleMeshHitCallback@Gu@physx@@6B@ 000000018013e7d0     GuSweepsMesh.obj
 0002:000047e0       ??_7SweepBoxMeshHitCallback@Gu@physx@@6B@ 000000018013e7e0     GuSweepsMesh.obj
 0002:000047f0       ??_7SweepConvexMeshHitCallback@Gu@physx@@6B@ 000000018013e7f0     GuSweepsMesh.obj
 0002:00004820       ??_7PxTriangleMesh@physx@@6B@ 000000018013e820     GuTriangleMesh.obj
 0002:000048a8       ??_7TriangleMesh@Gu@physx@@6BPxTriangleMesh@2@@ 000000018013e8a8     GuTriangleMesh.obj
 0002:00004948       ??_7TriangleMesh@Gu@physx@@6BRefCountable@Cm@2@@ 000000018013e948     GuTriangleMesh.obj
 0002:00004958       ??_C@_0DF@DNLKAHAL@Gu?3?3TriangleMesh?3?3release?3?5doub@ 000000018013e958     GuTriangleMesh.obj
 0002:00004990       ??_C@_0FD@GEGBOIGD@C?3?2Projects?2ExternLibrary?2PhysX@ 000000018013e990     GuTriangleMesh.obj
 0002:000049f0       ??_C@_0GH@IGKFPLIJ@PxTriangleMesh?3?3getVerticesForM@ 000000018013e9f0     GuTriangleMesh.obj
 0002:00004a60       ??_C@_0FF@LHAOBIMM@PxTriangleMesh?3?3refitBVH?$CI?$CJ?5is?5o@ 000000018013ea60     GuTriangleMesh.obj
 0002:00004ae0       ??_C@_0BE@CNJKIINO@PxBVH34TriangleMesh@ 000000018013eae0     GuTriangleMeshBV4.obj
 0002:00004af8       ??_7BV4TriangleMesh@Gu@physx@@6BPxTriangleMesh@2@@ 000000018013eaf8     GuTriangleMeshBV4.obj
 0002:00004b98       ??_7BV4TriangleMesh@Gu@physx@@6BRefCountable@Cm@2@@ 000000018013eb98     GuTriangleMeshBV4.obj
 0002:00004bd0       ??_C@_0BE@EIFHCCBO@PxBVH33TriangleMesh@ 000000018013ebd0     GuTriangleMeshRTree.obj
 0002:00004be8       ??_7RTreeTriangleMesh@Gu@physx@@6BPxTriangleMesh@2@@ 000000018013ebe8     GuTriangleMeshRTree.obj
 0002:00004c88       ??_7RTreeTriangleMesh@Gu@physx@@6BRefCountable@Cm@2@@ 000000018013ec88     GuTriangleMeshRTree.obj
 0002:00004c98       ??_7?$RefitCallback@G@physx@@6B@ 000000018013ec98     GuTriangleMeshRTree.obj
 0002:00004ca8       ??_7?$RefitCallback@I@physx@@6B@ 000000018013eca8     GuTriangleMeshRTree.obj
 0002:00004cc0       __xmm@38383838383838383838383838383838 000000018013ecc0     GuTriangleMeshRTree.obj
 0002:00004cd0       ??_C@_0EL@FDBMKADO@C?3?2Projects?2ExternLibrary?2PhysX@ 000000018013ecd0     GuBV32.obj
 0002:00004d40       ??_C@_0FA@LPJCNNLM@C?3?2Projects?2ExternLibrary?2PhysX@ 000000018013ed40     GuBV32Build.obj
 0002:00004db0       __xmm@00000000358637bd358637bd358637bd 000000018013edb0     GuPCMContactBoxBox.obj
 0002:00004dc0       __xmm@3d4ccccd3d4ccccd3d4ccccd3d4ccccd 000000018013edc0     GuPCMContactBoxBox.obj
 0002:00004dd0       __xmm@3f4ccccd3f4ccccd3f4ccccd3f4ccccd 000000018013edd0     GuPCMContactBoxBox.obj
 0002:00004de0       __xmm@ffffffff00000000ffffffffffffffff 000000018013ede0     GuPCMContactBoxBox.obj
 0002:00004e10       ??_7?$LocalConvex@VConvexHullNoScaleV@Gu@physx@@@Gu@physx@@6B@ 000000018013ee10     GuPCMContactBoxConvex.obj
 0002:00004e40       __xmm@3f3504f33f3504f33f3504f33f3504f3 000000018013ee40     GuPCMContactBoxConvex.obj
 0002:00004e90       __xmm@ffffffffffffffffffffffff00000000 000000018013ee90     GuPCMContactCapsuleCapsule.obj
 0002:00004ec0       __xmm@3fa000003fa000003fa000003fa00000 000000018013eec0     GuPCMContactCapsuleConvex.obj
 0002:00004ef0       ??_7PCMCapsuleVsHeightfieldContactGenerationCallback@physx@@6B@ 000000018013eef0     GuPCMContactCapsuleHeightField.obj
 0002:00004f00       __real@3f7f3b64            000000018013ef00     GuPCMContactCapsuleHeightField.obj
 0002:00004f10       __xmm@3f7ef9db3f7ef9db3f7ef9db3f7ef9db 000000018013ef10     GuPCMContactCapsuleHeightField.obj
 0002:00004f50       ??_7PCMCapsuleVsMeshContactGenerationCallback@physx@@6B@ 000000018013ef50     GuPCMContactCapsuleMesh.obj
 0002:00004f80       ??_7?$SupportLocalImpl@VTriangleV@Gu@physx@@@Gu@physx@@6B@ 000000018013ef80     GuPCMContactConvexCommon.obj
 0002:00004fa0       ??_C@_0FC@KGCINHL@C?3?2Projects?2ExternLibrary?2PhysX@ 000000018013efa0     GuPCMContactConvexCommon.obj
 0002:00005000       __xmm@3cf5c2803cf5c2803cf5c2803cf5c280 000000018013f000     GuPCMContactConvexCommon.obj
 0002:00005010       __xmm@3f7851ec3f7851ec3f7851ec3f7851ec 000000018013f010     GuPCMContactConvexCommon.obj
 0002:00005020       __xmm@3f7ff9723f7ff9723f7ff9723f7ff972 000000018013f020     GuPCMContactConvexCommon.obj
 0002:00005030       __xmm@3f7fffef3f7fffef3f7fffef3f7fffef 000000018013f030     GuPCMContactConvexCommon.obj
 0002:00005060       ??_7?$RelativeConvex@VConvexHullNoScaleV@Gu@physx@@@Gu@physx@@6B@ 000000018013f060     GuPCMContactConvexConvex.obj
 0002:000050b0       ??_7PCMConvexVsHeightfieldContactGenerationCallback@physx@@6B@ 000000018013f0b0     GuPCMContactConvexHeightField.obj
 0002:000050c0       __xmm@3f19999a3f19999a3f19999a3f19999a 000000018013f0c0     GuPCMContactConvexHeightField.obj
 0002:00005100       ??_7PCMConvexVsMeshContactGenerationCallback@physx@@6B@ 000000018013f100     GuPCMContactConvexMesh.obj
 0002:00005130       __xmm@3f34fdf43f34fdf43f34fdf43f34fdf4 000000018013f130     GuPCMContactGenBoxConvex.obj
 0002:00005160       __xmm@3f80a3d73f80a3d73f80a3d73f80a3d7 000000018013f160     GuPCMContactGenSphereCapsule.obj
 0002:00005170       __xmm@bba3d70abba3d70abba3d70abba3d70a 000000018013f170     GuPCMContactGenSphereCapsule.obj
 0002:000051c0       __real@3b23d70b            000000018013f1c0     GuPCMContactPlaneCapsule.obj
 0002:000051d0       __xmm@3ca3d70a3ca3d70a3ca3d70a3ca3d70a 000000018013f1d0     GuPCMContactPlaneCapsule.obj
 0002:00005280       ??_7PCMSphereVsHeightfieldContactGenerationCallback@physx@@6B@ 000000018013f280     GuPCMContactSphereHeightField.obj
 0002:000052c0       ??_7PCMSphereVsMeshContactGenerationCallback@physx@@6B@ 000000018013f2c0     GuPCMContactSphereMesh.obj
 0002:00005310       __xmm@3727c5ac3727c5ac3727c5ac3727c5ac 000000018013f310     GuPCMContactSphereSphere.obj
 0002:00005340       ?gPCMBoxPolygonData@Gu@physx@@3QBEB 000000018013f340     GuPCMShapeConvex.obj
 0002:00005380       ?invalidateThresholds@Gu@physx@@3QBMB 000000018013f380     GuPersistentContactManifold.obj
 0002:00005398       ?invalidateQuatThresholds@Gu@physx@@3QBMB 000000018013f398     GuPersistentContactManifold.obj
 0002:000053b0       ?invalidateThresholds2@Gu@physx@@3QBMB 000000018013f3b0     GuPersistentContactManifold.obj
 0002:000053c0       ?invalidateQuatThresholds2@Gu@physx@@3QBMB 000000018013f3c0     GuPersistentContactManifold.obj
 0002:000053f0       __xmm@000000003f8000003f80000000000000 000000018013f3f0     GuPersistentContactManifold.obj
 0002:00005400       __xmm@00000000bf8000003f80000000000000 000000018013f400     GuPersistentContactManifold.obj
 0002:00005410       __xmm@ffffffffffffffff00000000ffffffff 000000018013f410     GuPersistentContactManifold.obj
 0002:00005460       __real@b727c5ac            000000018013f460     GuSweepBoxSphere.obj
 0002:000054d0       ??_C@_0FH@BIPGIDMM@C?3?2Projects?2ExternLibrary?2PhysX@ 000000018013f4d0     GuSweepCapsuleBox.obj
 0002:00005550       __real@3f7fff58            000000018013f550     GuSweepCapsuleTriangle.obj
 0002:000055a0       __sz_PhysXFoundation_64_dll 000000018013f5a0     PhysXFoundation_64:PhysXFoundation_64.dll
 0002:000055b8       ??_C@_1BK@DBDEIDLH@?$AAK?$AAE?$AAR?$AAN?$AAE?$AAL?$AA3?$AA2?$AA?4?$AAD?$AAL?$AAL@ 000000018013f5b8     Delayimp:delayhlp.obj
 0002:000055d8       ??_C@_0BI@OMNLIJDB@AcquireSRWLockExclusive@ 000000018013f5d8     Delayimp:delayhlp.obj
 0002:000055f0       ??_C@_0BI@HMIEPCNJ@ReleaseSRWLockExclusive@ 000000018013f5f0     Delayimp:delayhlp.obj
 0002:00005608       __pfnDliFailureHook2       000000018013f608     Delayimp:delayhk1.obj
 0002:00005618       ??_7type_info@@6B@         000000018013f618     LIBCMT:std_type_info_static.obj
 0002:00005680       _pDefaultRawDllMain        000000018013f680     LIBCMT:dll_dllmain.obj
 0002:00005680       _pRawDllMain               000000018013f680     LIBCMT:dll_dllmain.obj
 0002:00005690       _load_config_used          000000018013f690     LIBCMT:loadcfg.obj
 0002:000057c8       _pDestructExceptionObject  000000018013f7c8     libvcruntime:ehhelpers.obj
 0002:00005ed0       ??_C@_08EHJDFFNH@__based?$CI@ 000000018013fed0     libvcruntime:undname.obj
 0002:00005ee0       ??_C@_07KOLFKCDI@__cdecl@  000000018013fee0     libvcruntime:undname.obj
 0002:00005ee8       ??_C@_08GHMPAG@__pascal@   000000018013fee8     libvcruntime:undname.obj
 0002:00005ef8       ??_C@_09IFJBGAPI@__stdcall@ 000000018013fef8     libvcruntime:undname.obj
 0002:00005f08       ??_C@_0L@NPHFGOKO@__thiscall@ 000000018013ff08     libvcruntime:undname.obj
 0002:00005f18       ??_C@_0L@JMKHOMEK@__fastcall@ 000000018013ff18     libvcruntime:undname.obj
 0002:00005f28       ??_C@_0N@BCKKPABJ@__vectorcall@ 000000018013ff28     libvcruntime:undname.obj
 0002:00005f38       ??_C@_09HIJEGCPM@__clrcall@ 000000018013ff38     libvcruntime:undname.obj
 0002:00005f44       ??_C@_06GHPCKEAG@__eabi@   000000018013ff44     libvcruntime:undname.obj
 0002:00005f50       ??_C@_09IOPIDJLG@__swift_1@ 000000018013ff50     libvcruntime:undname.obj
 0002:00005f60       ??_C@_09KFNFGKHF@__swift_2@ 000000018013ff60     libvcruntime:undname.obj
 0002:00005f70       ??_C@_07JOMMBBKO@__ptr64@  000000018013ff70     libvcruntime:undname.obj
 0002:00005f78       ??_C@_0L@PILCLIHE@__restrict@ 000000018013ff78     libvcruntime:undname.obj
 0002:00005f88       ??_C@_0M@GFIIJFMG@__unaligned@ 000000018013ff88     libvcruntime:undname.obj
 0002:00005f98       ??_C@_09DHDLOLLB@restrict?$CI@ 000000018013ff98     libvcruntime:undname.obj
 0002:00005fa2       ??_C@_00CNPNBAHC@@         000000018013ffa2     libvcruntime:undname.obj
 0002:00005fa4       ??_C@_04NIHEBCM@?5new@     000000018013ffa4     libvcruntime:undname.obj
 0002:00005fb0       ??_C@_07FPCDHGMM@?5delete@ 000000018013ffb0     libvcruntime:undname.obj
 0002:00005fb8       ??_C@_01NEMOKFLO@?$DN@     000000018013ffb8     libvcruntime:undname.obj
 0002:00005fbc       ??_C@_02GPIOPFAK@?$DO?$DO@ 000000018013ffbc     libvcruntime:undname.obj
 0002:00005fc0       ??_C@_02FODMEDOG@?$DM?$DM@ 000000018013ffc0     libvcruntime:undname.obj
 0002:00005fc4       ??_C@_01DCLJPIOD@?$CB@     000000018013ffc4     libvcruntime:undname.obj
 0002:00005fc8       ??_C@_02EGOFBIJA@?$DN?$DN@ 000000018013ffc8     libvcruntime:undname.obj
 0002:00005fcc       ??_C@_02FDNJECIE@?$CB?$DN@ 000000018013ffcc     libvcruntime:undname.obj
 0002:00005fd0       ??_C@_02GPECMEKF@?$FL?$FN@ 000000018013ffd0     libvcruntime:undname.obj
 0002:00005fd8       ??_C@_08LHJFAFGD@operator@ 000000018013ffd8     libvcruntime:undname.obj
 0002:00005fe4       ??_C@_02HBOOOICD@?9?$DO@   000000018013ffe4     libvcruntime:undname.obj
 0002:00005fe8       ??_C@_01NBENCBCI@?$CK@     000000018013ffe8     libvcruntime:undname.obj
 0002:00005fec       ??_C@_02ECNGHCIF@?$CL?$CL@ 000000018013ffec     libvcruntime:undname.obj
 0002:00005ff0       ??_C@_02BAABKJLB@?9?9@     000000018013fff0     libvcruntime:undname.obj
 0002:00005ff4       ??_C@_01JOAMLHOP@?9@       000000018013fff4     libvcruntime:undname.obj
 0002:00005ff8       ??_C@_01MIFGBAGJ@?$CL@     000000018013fff8     libvcruntime:undname.obj
 0002:00005ffc       ??_C@_01HNPIGOCE@?$CG@     000000018013fffc     libvcruntime:undname.obj
 0002:00006000       ??_C@_03MNHNFDLC@?9?$DO?$CK@ 0000000180140000     libvcruntime:undname.obj
 0002:00006004       ??_C@_01KMDKNFGN@?1@       0000000180140004     libvcruntime:undname.obj
 0002:00006008       ??_C@_01FGNFDNOH@?$CF@     0000000180140008     libvcruntime:undname.obj
 0002:0000600c       ??_C@_01MNNFJEPP@?$DM@     000000018014000c     libvcruntime:undname.obj
 0002:00006010       ??_C@_02EHCHHCKH@?$DM?$DN@ 0000000180140010     libvcruntime:undname.obj
 0002:00006014       ??_C@_01PPODPGHN@?$DO@     0000000180140014     libvcruntime:undname.obj
 0002:00006018       ??_C@_02EEKDKGMJ@?$DO?$DN@ 0000000180140018     libvcruntime:undname.obj
 0002:0000601c       ??_C@_01IHBHIGKO@?0@       000000018014001c     libvcruntime:undname.obj
 0002:00006020       ??_C@_02HCKGKOFO@?$CI?$CJ@ 0000000180140020     libvcruntime:undname.obj
 0002:00006024       ??_C@_01PJKLJHI@?$HO@      0000000180140024     libvcruntime:undname.obj
 0002:00006028       ??_C@_01JKBOJNNK@?$FO@     0000000180140028     libvcruntime:undname.obj
 0002:0000602c       ??_C@_01DNKMNLPK@?$HM@     000000018014002c     libvcruntime:undname.obj
 0002:00006030       ??_C@_02PPKAJPJL@?$CG?$CG@ 0000000180140030     libvcruntime:undname.obj
 0002:00006034       ??_C@_02NONPIBCD@?$HM?$HM@ 0000000180140034     libvcruntime:undname.obj
 0002:00006038       ??_C@_02FPIMKNGF@?$CK?$DN@ 0000000180140038     libvcruntime:undname.obj
 0002:0000603c       ??_C@_02FOEOMHFC@?$CL?$DN@ 000000018014003c     libvcruntime:undname.obj
 0002:00006040       ??_C@_02FKMDLLOA@?9?$DN@   0000000180140040     libvcruntime:undname.obj
 0002:00006044       ??_C@_02FJEHGPIO@?1?$DN@   0000000180140044     libvcruntime:undname.obj
 0002:00006048       ??_C@_02FENAOKFI@?$CF?$DN@ 0000000180140048     libvcruntime:undname.obj
 0002:0000604c       ??_C@_03IKFCCPFF@?$DO?$DO?$DN@ 000000018014004c     libvcruntime:undname.obj
 0002:00006050       ??_C@_03CDNPDDLA@?$DM?$DM?$DN@ 0000000180140050     libvcruntime:undname.obj
 0002:00006054       ??_C@_02FGJGFEAB@?$CG?$DN@ 0000000180140054     libvcruntime:undname.obj
 0002:00006058       ??_C@_02DHLNPPGH@?$HM?$DN@ 0000000180140058     libvcruntime:undname.obj
 0002:0000605c       ??_C@_02MHEGNOJ@?$FO?$DN@  000000018014005c     libvcruntime:undname.obj
 0002:00006060       ??_C@_09IFPLHPGF@?$GAvftable?8@ 0000000180140060     libvcruntime:undname.obj
 0002:00006070       ??_C@_09BLBHBJP@?$GAvbtable?8@ 0000000180140070     libvcruntime:undname.obj
 0002:00006080       ??_C@_07FEEIOKP@?$GAvcall?8@ 0000000180140080     libvcruntime:undname.obj
 0002:00006088       ??_C@_08LLFFHHDJ@?$GAtypeof?8@ 0000000180140088     libvcruntime:undname.obj
 0002:00006098       ??_C@_0BF@KDPPACIK@?$GAlocal?5static?5guard?8@ 0000000180140098     libvcruntime:undname.obj
 0002:000060b0       ??_C@_08OBABFOLI@?$GAstring?8@ 00000001801400b0     libvcruntime:undname.obj
 0002:000060c0       ??_C@_0BD@JDLKDPAB@?$GAvbase?5destructor?8@ 00000001801400c0     libvcruntime:undname.obj
 0002:000060d8       ??_C@_0BN@DEGPLNFK@?$GAvector?5deleting?5destructor?8@ 00000001801400d8     libvcruntime:undname.obj
 0002:000060f8       ??_C@_0BO@OBMKPJIG@?$GAdefault?5constructor?5closure?8@ 00000001801400f8     libvcruntime:undname.obj
 0002:00006118       ??_C@_0BN@IMDCHIKM@?$GAscalar?5deleting?5destructor?8@ 0000000180140118     libvcruntime:undname.obj
 0002:00006138       ??_C@_0BO@PFGOCPJJ@?$GAvector?5constructor?5iterator?8@ 0000000180140138     libvcruntime:undname.obj
 0002:00006158       ??_C@_0BN@LFPFMEDL@?$GAvector?5destructor?5iterator?8@ 0000000180140158     libvcruntime:undname.obj
 0002:00006178       ??_C@_0CE@IKBNEHA@?$GAvector?5vbase?5constructor?5itera@ 0000000180140178     libvcruntime:undname.obj
 0002:000061a0       ??_C@_0BL@NILFHHPC@?$GAvirtual?5displacement?5map?8@ 00000001801401a0     libvcruntime:undname.obj
 0002:000061c0       ??_C@_0CB@JONCMFFK@?$GAeh?5vector?5constructor?5iterator@ 00000001801401c0     libvcruntime:undname.obj
 0002:000061e8       ??_C@_0CA@GCEOPDGL@?$GAeh?5vector?5destructor?5iterator?8@ 00000001801401e8     libvcruntime:undname.obj
 0002:00006208       ??_C@_0CH@OOJPLCPH@?$GAeh?5vector?5vbase?5constructor?5it@ 0000000180140208     libvcruntime:undname.obj
 0002:00006230       ??_C@_0BL@LLKPOHJI@?$GAcopy?5constructor?5closure?8@ 0000000180140230     libvcruntime:undname.obj
 0002:00006250       ??_C@_0BA@KBCDOMBN@?$GAudt?5returning?8@ 0000000180140250     libvcruntime:undname.obj
 0002:00006260       ??_C@_03KLGMFNMG@?$GAEH@   0000000180140260     libvcruntime:undname.obj
 0002:00006264       ??_C@_05KHLCHHI@?$GARTTI@  0000000180140264     libvcruntime:undname.obj
 0002:00006270       ??_C@_0BA@KKLDJDLB@?$GAlocal?5vftable?8@ 0000000180140270     libvcruntime:undname.obj
 0002:00006280       ??_C@_0CE@IIHCMGGL@?$GAlocal?5vftable?5constructor?5clos@ 0000000180140280     libvcruntime:undname.obj
 0002:000062a4       ??_C@_06FHBGPFGH@?5new?$FL?$FN@ 00000001801402a4     libvcruntime:undname.obj
 0002:000062b0       ??_C@_09LBNFPBCA@?5delete?$FL?$FN@ 00000001801402b0     libvcruntime:undname.obj
 0002:000062c0       ??_C@_0P@HJKNJFNN@?$GAomni?5callsig?8@ 00000001801402c0     libvcruntime:undname.obj
 0002:000062d0       ??_C@_0BL@CNOONJFP@?$GAplacement?5delete?5closure?8@ 00000001801402d0     libvcruntime:undname.obj
 0002:000062f0       ??_C@_0BN@CKNJLHMB@?$GAplacement?5delete?$FL?$FN?5closure?8@ 00000001801402f0     libvcruntime:undname.obj
 0002:00006310       ??_C@_0CG@CFDHKGGD@?$GAmanaged?5vector?5constructor?5ite@ 0000000180140310     libvcruntime:undname.obj
 0002:00006338       ??_C@_0CF@IMGKMJNO@?$GAmanaged?5vector?5destructor?5iter@ 0000000180140338     libvcruntime:undname.obj
 0002:00006360       ??_C@_0CG@HLDDJMAG@?$GAeh?5vector?5copy?5constructor?5ite@ 0000000180140360     libvcruntime:undname.obj
 0002:00006388       ??_C@_0CM@FCBBDIGB@?$GAeh?5vector?5vbase?5copy?5construct@ 0000000180140388     libvcruntime:undname.obj
 0002:000063b8       ??_C@_0BL@CLIPGLGB@?$GAdynamic?5initializer?5for?5?8@ 00000001801403b8     libvcruntime:undname.obj
 0002:000063d8       ??_C@_0CB@PDBIFEP@?$GAdynamic?5atexit?5destructor?5for?5@ 00000001801403d8     libvcruntime:undname.obj
 0002:00006400       ??_C@_0CD@CGAJBKEJ@?$GAvector?5copy?5constructor?5iterat@ 0000000180140400     libvcruntime:undname.obj
 0002:00006428       ??_C@_0CJ@GJELGAMM@?$GAvector?5vbase?5copy?5constructor?5@ 0000000180140428     libvcruntime:undname.obj
 0002:00006458       ??_C@_0CL@FGIJHLCE@?$GAmanaged?5vector?5copy?5constructo@ 0000000180140458     libvcruntime:undname.obj
 0002:00006488       ??_C@_0BM@PMGGMLDN@?$GAlocal?5static?5thread?5guard?8@ 0000000180140488     libvcruntime:undname.obj
 0002:000064a8       ??_C@_0N@BDNMDMOL@operator?5?$CC?$CC?5@ 00000001801404a8     libvcruntime:undname.obj
 0002:000064b8       ??_C@_0BC@GGEBGALA@operator?5co_await@ 00000001801404b8     libvcruntime:undname.obj
 0002:000064d0       ??_C@_0M@GAAIMMOH@operator?$DM?$DN?$DO@ 00000001801404d0     libvcruntime:undname.obj
 0002:000064e0       ??_C@_0BC@DAFEJGAK@?5Type?5Descriptor?8@ 00000001801404e0     libvcruntime:undname.obj
 0002:000064f8       ??_C@_0BM@LDKODKLH@?5Base?5Class?5Descriptor?5at?5?$CI@ 00000001801404f8     libvcruntime:undname.obj
 0002:00006518       ??_C@_0BD@LGICGFMM@?5Base?5Class?5Array?8@ 0000000180140518     libvcruntime:undname.obj
 0002:00006530       ??_C@_0BN@MECKDCOJ@?5Class?5Hierarchy?5Descriptor?8@ 0000000180140530     libvcruntime:undname.obj
 0002:00006550       ??_C@_0BK@CFCOFLF@?5Complete?5Object?5Locator?8@ 0000000180140550     libvcruntime:undname.obj
 0002:00006570       ??_C@_0BG@JNJLAMPM@?$GAanonymous?5namespace?8@ 0000000180140570     libvcruntime:undname.obj
 0002:00006588       ??_C@_04HEJADOOB@CV?3?5@   0000000180140588     libvcruntime:undname.obj
 0002:00006590       ??_C@_02MOLJINC@?3?3@      0000000180140590     libvcruntime:undname.obj
 0002:00006598       ??_C@_0BE@JAEOCHPE@template?9parameter?9@ 0000000180140598     libvcruntime:undname.obj
 0002:000065b0       ??_C@_0BF@LNLGBBNL@?$GAtemplate?9parameter?9@ 00000001801405b0     libvcruntime:undname.obj
 0002:000065c8       ??_C@_0O@KHGCOMHP@generic?9type?9@ 00000001801405c8     libvcruntime:undname.obj
 0002:000065d8       ??_C@_0P@ODDENDLM@?$GAgeneric?9type?9@ 00000001801405d8     libvcruntime:undname.obj
 0002:000065e8       ??_C@_02OHHJMEON@?8?8@     00000001801405e8     libvcruntime:undname.obj
 0002:000065f0       ??_C@_0BN@IBLMMFAP@?$GAnon?9type?9template?9parameter@ 00000001801405f0     libvcruntime:undname.obj
 0002:00006610       ??_C@_03DLDNIBIK@?$CFlf@   0000000180140610     libvcruntime:undname.obj
 0002:00006614       ??_C@_04OFALKAJ@?$DP?$DP_C@ 0000000180140614     libvcruntime:undname.obj
 0002:0000661c       ??_C@_03KHICJKCI@?4?4?4@   000000018014061c     libvcruntime:undname.obj
 0002:00006620       ??_C@_04HIBGFPH@NULL@      0000000180140620     libvcruntime:undname.obj
 0002:00006628       ??_C@_02DPKJAMEF@?$CFd@    0000000180140628     libvcruntime:undname.obj
 0002:00006630       ??_C@_0BK@IHCCFNEL@?$GAtemplate?9type?9parameter?9@ 0000000180140630     libvcruntime:undname.obj
 0002:00006650       ??_C@_0BK@OFCNNNKO@?$GAgeneric?9class?9parameter?9@ 0000000180140650     libvcruntime:undname.obj
 0002:00006670       ??_C@_0BL@NGJBLFIL@?$GAgeneric?9method?9parameter?9@ 0000000180140670     libvcruntime:undname.obj
 0002:00006690       ??_C@_07OHNGEDJK@nullptr@  0000000180140690     libvcruntime:undname.obj
 0002:00006698       ??_C@_0BE@EODMJLIF@?$GAtemplate?9parameter@ 0000000180140698     libvcruntime:undname.obj
 0002:000066ac       ??_C@_03OPGICMGF@?$HN?8?5@ 00000001801406ac     libvcruntime:undname.obj
 0002:000066b0       ??_C@_02IGFCGPIL@?$HN?8@   00000001801406b0     libvcruntime:undname.obj
 0002:000066b8       ??_C@_0N@CBHHHENL@?$GAvtordispex?$HL@ 00000001801406b8     libvcruntime:undname.obj
 0002:000066c8       ??_C@_0L@GHPFDFH@?$GAvtordisp?$HL@ 00000001801406c8     libvcruntime:undname.obj
 0002:000066d8       ??_C@_0L@HNGCOGAE@?$GAadjustor?$HL@ 00000001801406d8     libvcruntime:undname.obj
 0002:000066e8       ??_C@_0CB@KJDOOODE@?$GAlocal?5static?5destructor?5helper@ 00000001801406e8     libvcruntime:undname.obj
 0002:00006710       ??_C@_0DB@ILEFOCIJ@?$GAtemplate?5static?5data?5member?5co@ 0000000180140710     libvcruntime:undname.obj
 0002:00006748       ??_C@_0DA@HGFJFBBE@?$GAtemplate?5static?5data?5member?5de@ 0000000180140748     libvcruntime:undname.obj
 0002:00006778       ??_C@_07PGOEDBHP@static?5@ 0000000180140778     libvcruntime:undname.obj
 0002:00006780       ??_C@_08NIEOINHE@virtual?5@ 0000000180140780     libvcruntime:undname.obj
 0002:00006790       ??_C@_09LAPHOOG@private?3?5@ 0000000180140790     libvcruntime:undname.obj
 0002:000067a0       ??_C@_0M@GAIFPFIP@protected?3?5@ 00000001801407a0     libvcruntime:undname.obj
 0002:000067b0       ??_C@_08GPDDCMKI@public?3?5@ 00000001801407b0     libvcruntime:undname.obj
 0002:000067c0       ??_C@_08KJLFOPNE@?$FLthunk?$FN?3@ 00000001801407c0     libvcruntime:undname.obj
 0002:000067d0       ??_C@_0M@DHNBOJMP@extern?5?$CCC?$CC?5@ 00000001801407d0     libvcruntime:undname.obj
 0002:000067dc       ??_C@_02KCKGHPCA@?$CJ?5@   00000001801407dc     libvcruntime:undname.obj
 0002:000067e0       ??_C@_05CIHEBHNO@char?5@   00000001801407e0     libvcruntime:undname.obj
 0002:000067e8       ??_C@_06EHJMALKF@short?5@  00000001801407e8     libvcruntime:undname.obj
 0002:000067f0       ??_C@_04LAHKHJMA@int?5@    00000001801407f0     libvcruntime:undname.obj
 0002:000067f8       ??_C@_05CJIMAING@long?5@   00000001801407f8     libvcruntime:undname.obj
 0002:00006800       ??_C@_09EBBEKKIH@unsigned?5@ 0000000180140800     libvcruntime:undname.obj
 0002:0000680c       ??_C@_05BEFAKPML@void?5@   000000018014080c     libvcruntime:undname.obj
 0002:00006818       ??_C@_09GAIEOBLP@volatile?5@ 0000000180140818     libvcruntime:undname.obj
 0002:00006828       ??_C@_08PABEKFH@volatile@  0000000180140828     libvcruntime:undname.obj
 0002:00006838       ??_C@_0BA@LKIJLKPP@std?3?3nullptr_t?5@ 0000000180140838     libvcruntime:undname.obj
 0002:00006848       ??_C@_0P@GCOCNKDM@std?3?3nullptr_t@ 0000000180140848     libvcruntime:undname.obj
 0002:00006858       ??_C@_0L@EGPHHEKN@?$DMellipsis?$DO@ 0000000180140858     libvcruntime:undname.obj
 0002:00006864       ??_C@_04EENFHACM@?0?4?4?4@ 0000000180140864     libvcruntime:undname.obj
 0002:00006870       ??_C@_0M@ELJOJFFH@?0?$DMellipsis?$DO@ 0000000180140870     libvcruntime:undname.obj
 0002:00006880       ??_C@_09DNHFEOJI@?5noexcept@ 0000000180140880     libvcruntime:undname.obj
 0002:0000688c       ??_C@_03PBJBJNON@cpu@      000000018014088c     libvcruntime:undname.obj
 0002:00006890       ??_C@_03DCBBJBAA@amp@      0000000180140890     libvcruntime:undname.obj
 0002:00006894       ??_C@_02KEGNLNML@?0?5@     0000000180140894     libvcruntime:undname.obj
 0002:00006898       ??_C@_04ENMBGAPA@char@     0000000180140898     libvcruntime:undname.obj
 0002:000068a0       ??_C@_05BFKKPKCG@short@    00000001801408a0     libvcruntime:undname.obj
 0002:000068a8       ??_C@_03JBIPMCLC@int@      00000001801408a8     libvcruntime:undname.obj
 0002:000068ac       ??_C@_04GOKPGOLB@long@     00000001801408ac     libvcruntime:undname.obj
 0002:000068b4       ??_C@_06BNJCAIGJ@double@   00000001801408b4     libvcruntime:undname.obj
 0002:000068bc       ??_C@_06EBGKOKIG@__int8@   00000001801408bc     libvcruntime:undname.obj
 0002:000068c8       ??_C@_07ICFHOGAF@__int16@  00000001801408c8     libvcruntime:undname.obj
 0002:000068d0       ??_C@_07OFLPPHGP@__int32@  00000001801408d0     libvcruntime:undname.obj
 0002:000068d8       ??_C@_07LFCOJCAC@__int64@  00000001801408d8     libvcruntime:undname.obj
 0002:000068e0       ??_C@_08GAHOLHEO@__int128@ 00000001801408e0     libvcruntime:undname.obj
 0002:000068f0       ??_C@_09EEKGDCPH@?$DMunknown?$DO@ 00000001801408f0     libvcruntime:undname.obj
 0002:00006900       ??_C@_07CFHGOPCN@char8_t@  0000000180140900     libvcruntime:undname.obj
 0002:00006908       ??_C@_08HBIPOFJB@char16_t@ 0000000180140908     libvcruntime:undname.obj
 0002:00006918       ??_C@_08IECNCBKG@char32_t@ 0000000180140918     libvcruntime:undname.obj
 0002:00006928       ??_C@_07CLGGIAMF@wchar_t@  0000000180140928     libvcruntime:undname.obj
 0002:00006930       ??_C@_04HAPDLBFF@auto@     0000000180140930     libvcruntime:undname.obj
 0002:00006938       ??_C@_0P@LHCGKIGK@decltype?$CIauto?$CJ@ 0000000180140938     libvcruntime:undname.obj
 0002:00006948       ??_C@_06GCICPBLB@__w64?5@  0000000180140948     libvcruntime:undname.obj
 0002:00006950       ??_C@_07NFANNNEC@UNKNOWN@  0000000180140950     libvcruntime:undname.obj
 0002:00006958       ??_C@_07EDHNAJHC@signed?5@ 0000000180140958     libvcruntime:undname.obj
 0002:00006960       ??_C@_05BNCCCJPP@const@    0000000180140960     libvcruntime:undname.obj
 0002:00006968       ??_C@_09EFNPDFFP@?5volatile@ 0000000180140968     libvcruntime:undname.obj
 0002:00006978       ??_C@_0P@GCIFDJCJ@?$GAunknown?5ecsu?8@ 0000000180140978     libvcruntime:undname.obj
 0002:00006988       ??_C@_06MOJHIBMG@union?5@  0000000180140988     libvcruntime:undname.obj
 0002:00006990       ??_C@_07DIBCDNGL@struct?5@ 0000000180140990     libvcruntime:undname.obj
 0002:00006998       ??_C@_06LJBABKPM@class?5@  0000000180140998     libvcruntime:undname.obj
 0002:000069a0       ??_C@_08KOFANOFK@coclass?5@ 00000001801409a0     libvcruntime:undname.obj
 0002:000069b0       ??_C@_0N@DLIEFKNA@cointerface?5@ 00000001801409b0     libvcruntime:undname.obj
 0002:000069c0       ??_C@_05LJGMCFOG@enum?5@   00000001801409c0     libvcruntime:undname.obj
 0002:000069c8       ??_C@_06LIJLOJAG@const?5@  00000001801409c8     libvcruntime:undname.obj
 0002:000069d0       ??_C@_02KJPKDIBN@?$CG?5@   00000001801409d0     libvcruntime:undname.obj
 0002:000069d4       ??_C@_03PCKGMOPB@?$CG?$CG?5@ 00000001801409d4     libvcruntime:undname.obj
 0002:000069d8       ??_C@_0M@EALIELKG@cli?3?3array?$DM@ 00000001801409d8     libvcruntime:undname.obj
 0002:000069e8       ??_C@_0O@GKABPPIF@cli?3?3pin_ptr?$DM@ 00000001801409e8     libvcruntime:undname.obj
 0002:000069f8       ??_C@_02GOGNNPBN@?$CJ?$FL@ 00000001801409f8     libvcruntime:undname.obj
 0002:000069fc       ??_C@_06EEGAIFAK@?$HLflat?$HN@ 00000001801409fc     libvcruntime:undname.obj
 0002:00006a04       ??_C@_05JIBOFOHK@?$HLfor?5@ 0000000180140a04     libvcruntime:undname.obj
 0002:00006a0c       ??_C@_02MDINNEEG@s?5@      0000000180140a0c     libvcruntime:undname.obj
 0002:00006a18       ??_7charNode@@6B@          0000000180140a18     libvcruntime:undname.obj
 0002:00006a40       ??_7pcharNode@@6B@         0000000180140a40     libvcruntime:undname.obj
 0002:00006a68       ??_7pDNameNode@@6B@        0000000180140a68     libvcruntime:undname.obj
 0002:00006a90       ??_7DNameStatusNode@@6B@   0000000180140a90     libvcruntime:undname.obj
 0002:00006ab8       ??_7pairNode@@6B@          0000000180140ab8     libvcruntime:undname.obj
 0002:00006be0       ??_C@_04OKOHEJBO@?5?$DP?$DP?5@ 0000000180140be0     libvcruntime:undname.obj
 0002:00006bf0       ?nodes@?1??make@DNameStatusNode@@SAPEBV2@W4DNameStatus@@@Z@4QBV2@B 0000000180140bf0     libvcruntime:undname.obj
 0002:00006c30       ?s_negLengthTab@FH4@@3QBCB 0000000180140c30     libvcruntime:risctrnsctrl.obj
 0002:00006c40       ?s_shiftTab@FH4@@3QBEB     0000000180140c40     libvcruntime:risctrnsctrl.obj
 0002:00006da0       ??_C@_1DM@KHCHBNEB@?$AAa?$AAp?$AAi?$AA?9?$AAm?$AAs?$AA?9?$AAw?$AAi?$AAn?$AA?9?$AAc?$AAo?$AAr?$AAe@ 0000000180140da0     libvcruntime:winapi_downlevel.obj
 0002:00006de0       ??_C@_1DK@LPPGFMPP@?$AAa?$AAp?$AAi?$AA?9?$AAm?$AAs?$AA?9?$AAw?$AAi?$AAn?$AA?9?$AAc?$AAo?$AAr?$AAe@ 0000000180140de0     libvcruntime:winapi_downlevel.obj
 0002:00006e20       ??_C@_1BC@GDMECMAK@?$AAk?$AAe?$AAr?$AAn?$AAe?$AAl?$AA3?$AA2@ 0000000180140e20     libvcruntime:winapi_downlevel.obj
 0002:00006e38       ??_C@_1BA@PFFKHIOG@?$AAa?$AAp?$AAi?$AA?9?$AAm?$AAs?$AA?9@ 0000000180140e38     libvcruntime:winapi_downlevel.obj
 0002:00006e50       ??_C@_08KNHFBNJ@FlsAlloc@  0000000180140e50     libvcruntime:winapi_downlevel.obj
 0002:00006e68       ??_C@_07PEJMOBNF@FlsFree@  0000000180140e68     libvcruntime:winapi_downlevel.obj
 0002:00006e78       ??_C@_0M@GDNOONDI@FlsGetValue@ 0000000180140e78     libvcruntime:winapi_downlevel.obj
 0002:00006e90       ??_C@_0M@JCPCPOEF@FlsSetValue@ 0000000180140e90     libvcruntime:winapi_downlevel.obj
 0002:00006ea8       ??_C@_0BM@HCFOFFN@InitializeCriticalSectionEx@ 0000000180140ea8     libvcruntime:winapi_downlevel.obj
 0002:00006ed0       ??_7exception@std@@6B@     0000000180140ed0     libvcruntime:frame.obj
 0002:00006ee0       ??_C@_0BC@EOODALEL@Unknown?5exception@ 0000000180140ee0     libvcruntime:frame.obj
 0002:00006f00       ??_7bad_exception@std@@6B@ 0000000180140f00     libvcruntime:frame.obj
 0002:00006f10       ??_C@_0O@DPKOEFFH@bad?5exception@ 0000000180140f10     libvcruntime:frame.obj
 0002:00007260       ??_C@_05FFFCHCED@acosf@    0000000180141260     libucrt:acosf.obj
 0002:00007268       __real@3b81ce6b            0000000180141268     libucrt:acosf.obj
 0002:00007270       __real@3c91a62633145c07    0000000180141270     libucrt:acosf.obj
 0002:00007278       __real@3d678bdd            0000000180141278     libucrt:acosf.obj
 0002:0000727c       __real@3e3c94dc            000000018014127c     libucrt:acosf.obj
 0002:00007280       __real@3f561f0d            0000000180141280     libucrt:acosf.obj
 0002:00007284       __real@3f8d6fa5            0000000180141284     libucrt:acosf.obj
 0002:00007288       __real@3ff921fb54442d18    0000000180141288     libucrt:acosf.obj
 0002:00007290       __real@400921fb54442d18    0000000180141290     libucrt:acosf.obj
 0002:00007298       __real@40490fdb            0000000180141298     libucrt:acosf.obj
 0002:0000729c       __real@bc5b3fe1            000000018014129c     libucrt:acosf.obj
 0002:000072a0       __acrt_exception_action_table 00000001801412a0     libucrt:exception_filter.obj
 0002:00007360       __acrt_signal_action_table_count 0000000180141360     libucrt:exception_filter.obj
 0002:00007368       __acrt_signal_action_first_fpe_index 0000000180141368     libucrt:exception_filter.obj
 0002:00007370       __acrt_signal_action_fpe_count 0000000180141370     libucrt:exception_filter.obj
 0002:000073c8       ??_C@_1BI@BGOHAHKC@?$AAm?$AAs?$AAc?$AAo?$AAr?$AAe?$AAe?$AA?4?$AAd?$AAl?$AAl@ 00000001801413c8     libucrt:exit.obj
 0002:000073e0       ??_C@_0P@MIGLKIOC@CorExitProcess@ 00000001801413e0     libucrt:exit.obj
 0002:00007540       ?format_validation_lookup_table_spectre@__crt_stdio_output@@3V?$spectre_mitigated_lookup_table@Ustate_transition_pair@__crt_stdio_output@@$0IA@@1@B 0000000180141540     libucrt:output.obj
 0002:00007640       ??_C@_1O@CEDCILHN@?$AA?$CI?$AAn?$AAu?$AAl?$AAl?$AA?$CJ@ 0000000180141640     libucrt:output.obj
 0002:00007650       ??_C@_06OJHGLDPL@?$CInull?$CJ@ 0000000180141650     libucrt:output.obj
 0002:000077d0       ??_C@_04LAGPAAHP@sinf@     00000001801417d0     libucrt:sincos_special.obj
 0002:000077d8       ??_C@_04OBBKPIAC@cosf@     00000001801417d8     libucrt:sincos_special.obj
 0002:000077e0       ??_C@_04MHPLPEIA@tanf@     00000001801417e0     libucrt:sincos_special.obj
 0002:000077f0       __Lcosfarray               00000001801417f0     libucrt:lsincosf_array.obj
 0002:00007820       __Lsinfarray               0000000180141820     libucrt:lsincosf_array.obj
 0002:00007840       __L_2_by_pi_bits           0000000180141840     libucrt:l2_by_pi_bits.obj
 0002:00007b18       ??_C@_1M@HPNHIDJI@?$AAj?$AAa?$AA?9?$AAJ?$AAP@ 0000000180141b18     libucrt:mbctype.obj
 0002:00007b28       ??_C@_1M@BIBDDEMK@?$AAz?$AAh?$AA?9?$AAC?$AAN@ 0000000180141b28     libucrt:mbctype.obj
 0002:00007b38       ??_C@_1M@JLOOOEGK@?$AAk?$AAo?$AA?9?$AAK?$AAR@ 0000000180141b38     libucrt:mbctype.obj
 0002:00007b48       ??_C@_1M@CLNBBOPM@?$AAz?$AAh?$AA?9?$AAT?$AAW@ 0000000180141b48     libucrt:mbctype.obj
 0002:00007c10       ??_C@_1EA@JGEFHKEI@?$AAa?$AAp?$AAi?$AA?9?$AAm?$AAs?$AA?9?$AAw?$AAi?$AAn?$AA?9?$AAc?$AAo?$AAr?$AAe@ 0000000180141c10     libucrt:winapi_thunks.obj
 0002:00007c50       ??_C@_1DI@KMEPCBPN@?$AAa?$AAp?$AAi?$AA?9?$AAm?$AAs?$AA?9?$AAw?$AAi?$AAn?$AA?9?$AAc?$AAo?$AAr?$AAe@ 0000000180141c50     libucrt:winapi_thunks.obj
 0002:00007c88       ??_C@_1DI@IJCEHOCB@?$AAa?$AAp?$AAi?$AA?9?$AAm?$AAs?$AA?9?$AAw?$AAi?$AAn?$AA?9?$AAc?$AAo?$AAr?$AAe@ 0000000180141c88     libucrt:winapi_thunks.obj
 0002:00007cc0       ??_C@_1EI@MPIAOHOC@?$AAa?$AAp?$AAi?$AA?9?$AAm?$AAs?$AA?9?$AAw?$AAi?$AAn?$AA?9?$AAc?$AAo?$AAr?$AAe@ 0000000180141cc0     libucrt:winapi_thunks.obj
 0002:00007d10       ??_C@_1FK@FPHCKFIE@?$AAa?$AAp?$AAi?$AA?9?$AAm?$AAs?$AA?9?$AAw?$AAi?$AAn?$AA?9?$AAc?$AAo?$AAr?$AAe@ 0000000180141d10     libucrt:winapi_thunks.obj
 0002:00007d70       ??_C@_1EM@DILCGIIO@?$AAa?$AAp?$AAi?$AA?9?$AAm?$AAs?$AA?9?$AAw?$AAi?$AAn?$AA?9?$AAc?$AAo?$AAr?$AAe@ 0000000180141d70     libucrt:winapi_thunks.obj
 0002:00007dc0       ??_C@_1DM@LNCGDDPN@?$AAa?$AAp?$AAi?$AA?9?$AAm?$AAs?$AA?9?$AAw?$AAi?$AAn?$AA?9?$AAc?$AAo?$AAr?$AAe@ 0000000180141dc0     libucrt:winapi_thunks.obj
 0002:00007e00       ??_C@_1DO@FPAPJEMD@?$AAa?$AAp?$AAi?$AA?9?$AAm?$AAs?$AA?9?$AAw?$AAi?$AAn?$AA?9?$AAc?$AAo?$AAr?$AAe@ 0000000180141e00     libucrt:winapi_thunks.obj
 0002:00007e40       ??_C@_1DK@NDHNAHIO@?$AAa?$AAp?$AAi?$AA?9?$AAm?$AAs?$AA?9?$AAw?$AAi?$AAn?$AA?9?$AAc?$AAo?$AAr?$AAe@ 0000000180141e40     libucrt:winapi_thunks.obj
 0002:00007e80       ??_C@_1DM@KGHDGBCM@?$AAa?$AAp?$AAi?$AA?9?$AAm?$AAs?$AA?9?$AAw?$AAi?$AAn?$AA?9?$AAc?$AAo?$AAr?$AAe@ 0000000180141e80     libucrt:winapi_thunks.obj
 0002:00007ec0       ??_C@_1EO@IJIOEFOH@?$AAa?$AAp?$AAi?$AA?9?$AAm?$AAs?$AA?9?$AAw?$AAi?$AAn?$AA?9?$AAr?$AAt?$AAc?$AAo@ 0000000180141ec0     libucrt:winapi_thunks.obj
 0002:00007f10       ??_C@_1FG@HHGEKANL@?$AAa?$AAp?$AAi?$AA?9?$AAm?$AAs?$AA?9?$AAw?$AAi?$AAn?$AA?9?$AAs?$AAe?$AAc?$AAu@ 0000000180141f10     libucrt:winapi_thunks.obj
 0002:00007f70       ??_C@_1EG@DBIOJECG@?$AAe?$AAx?$AAt?$AA?9?$AAm?$AAs?$AA?9?$AAw?$AAi?$AAn?$AA?9?$AAn?$AAt?$AAu?$AAs@ 0000000180141f70     libucrt:winapi_thunks.obj
 0002:00007fc0       ??_C@_1EO@FIHMJCLF@?$AAe?$AAx?$AAt?$AA?9?$AAm?$AAs?$AA?9?$AAw?$AAi?$AAn?$AA?9?$AAn?$AAt?$AAu?$AAs@ 0000000180141fc0     libucrt:winapi_thunks.obj
 0002:00008010       ??_C@_1BC@DNHGCMLG@?$AAa?$AAd?$AAv?$AAa?$AAp?$AAi?$AA3?$AA2@ 0000000180142010     libucrt:winapi_thunks.obj
 0002:00008028       ??_C@_1BG@CJPGBMEF@?$AAk?$AAe?$AAr?$AAn?$AAe?$AAl?$AAb?$AAa?$AAs?$AAe@ 0000000180142028     libucrt:winapi_thunks.obj
 0002:00008040       ??_C@_1M@OAIMIKLP@?$AAn?$AAt?$AAd?$AAl?$AAl@ 0000000180142040     libucrt:winapi_thunks.obj
 0002:00008050       ??_C@_1EG@DPGNFKGC@?$AAa?$AAp?$AAi?$AA?9?$AAm?$AAs?$AA?9?$AAw?$AAi?$AAn?$AA?9?$AAa?$AAp?$AAp?$AAm@ 0000000180142050     libucrt:winapi_thunks.obj
 0002:00008098       ??_C@_1O@BCCLBEOE@?$AAu?$AAs?$AAe?$AAr?$AA3?$AA2@ 0000000180142098     libucrt:winapi_thunks.obj
 0002:000080a8       ??_C@_1BA@IAIFMGEF@?$AAe?$AAx?$AAt?$AA?9?$AAm?$AAs?$AA?9@ 00000001801420a8     libucrt:winapi_thunks.obj
 0002:000080c0       ??_C@_0BA@FHFNEAED@AreFileApisANSI@ 00000001801420c0     libucrt:winapi_thunks.obj
 0002:000080e0       ??_C@_0O@KKBNKAPF@LCMapStringEx@ 00000001801420e0     libucrt:winapi_thunks.obj
 0002:000080f8       ??_C@_0BB@HBDEELFH@LocaleNameToLCID@ 00000001801420f8     libucrt:winapi_thunks.obj
 0002:00008110       ??_C@_0CF@OJOFEIGO@AppPolicyGetProcessTerminationM@ 0000000180142110     libucrt:winapi_thunks.obj
 0002:00008140       __lc_time_c                0000000180142140     libucrt:nlsdata.obj
 0002:00008400       ??_C@_03KOEHGMDN@Sun@      0000000180142400     libucrt:nlsdata.obj
 0002:00008404       ??_C@_03PDAGKDH@Mon@       0000000180142404     libucrt:nlsdata.obj
 0002:00008408       ??_C@_03NAGEINEP@Tue@      0000000180142408     libucrt:nlsdata.obj
 0002:0000840c       ??_C@_03MHOMLAJA@Wed@      000000018014240c     libucrt:nlsdata.obj
 0002:00008410       ??_C@_03IOFIKPDN@Thu@      0000000180142410     libucrt:nlsdata.obj
 0002:00008414       ??_C@_03IDIOELNC@Fri@      0000000180142414     libucrt:nlsdata.obj
 0002:00008418       ??_C@_03FEFJNEK@Sat@       0000000180142418     libucrt:nlsdata.obj
 0002:0000841c       ??_C@_06OOPIFAJ@Sunday@    000000018014241c     libucrt:nlsdata.obj
 0002:00008424       ??_C@_06JLEDEDGH@Monday@   0000000180142424     libucrt:nlsdata.obj
 0002:00008430       ??_C@_07BAAGCFCM@Tuesday@  0000000180142430     libucrt:nlsdata.obj
 0002:00008438       ??_C@_09DLIGFAKA@Wednesday@ 0000000180142438     libucrt:nlsdata.obj
 0002:00008448       ??_C@_08HACCIKIA@Thursday@ 0000000180142448     libucrt:nlsdata.obj
 0002:00008454       ??_C@_06JECMNKMI@Friday@   0000000180142454     libucrt:nlsdata.obj
 0002:00008460       ??_C@_08INBOOONO@Saturday@ 0000000180142460     libucrt:nlsdata.obj
 0002:0000846c       ??_C@_03JIHJHPIE@Jan@      000000018014246c     libucrt:nlsdata.obj
 0002:00008470       ??_C@_03HJBDCHOM@Feb@      0000000180142470     libucrt:nlsdata.obj
 0002:00008474       ??_C@_03ODNJBKGA@Mar@      0000000180142474     libucrt:nlsdata.obj
 0002:00008478       ??_C@_03LEOLGMJP@Apr@      0000000180142478     libucrt:nlsdata.obj
 0002:0000847c       ??_C@_03CNMDKL@May@        000000018014247c     libucrt:nlsdata.obj
 0002:00008480       ??_C@_03IDFGHECI@Jun@      0000000180142480     libucrt:nlsdata.obj
 0002:00008484       ??_C@_03LBGABGKK@Jul@      0000000180142484     libucrt:nlsdata.obj
 0002:00008488       ??_C@_03IFJFEIGA@Aug@      0000000180142488     libucrt:nlsdata.obj
 0002:0000848c       ??_C@_03GGCAPAJC@Sep@      000000018014248c     libucrt:nlsdata.obj
 0002:00008490       ??_C@_03BMAOKBAD@Oct@      0000000180142490     libucrt:nlsdata.obj
 0002:00008494       ??_C@_03JPJOFNIA@Nov@      0000000180142494     libucrt:nlsdata.obj
 0002:00008498       ??_C@_03MKABNOCG@Dec@      0000000180142498     libucrt:nlsdata.obj
 0002:000084a0       ??_C@_07CGJPFGJA@January@  00000001801424a0     libucrt:nlsdata.obj
 0002:000084a8       ??_C@_08GNJGEPFN@February@ 00000001801424a8     libucrt:nlsdata.obj
 0002:000084b4       ??_C@_05HPCKOFNC@March@    00000001801424b4     libucrt:nlsdata.obj
 0002:000084bc       ??_C@_05DMJDNLEJ@April@    00000001801424bc     libucrt:nlsdata.obj
 0002:000084c4       ??_C@_04CNLMGBGM@June@     00000001801424c4     libucrt:nlsdata.obj
 0002:000084cc       ??_C@_04MIEPOIFP@July@     00000001801424cc     libucrt:nlsdata.obj
 0002:000084d4       ??_C@_06LBBHFDDG@August@   00000001801424d4     libucrt:nlsdata.obj
 0002:000084e0       ??_C@_09BHHEALKD@September@ 00000001801424e0     libucrt:nlsdata.obj
 0002:000084f0       ??_C@_07JJNFCEND@October@  00000001801424f0     libucrt:nlsdata.obj
 0002:000084f8       ??_C@_08HCHEGEOA@November@ 00000001801424f8     libucrt:nlsdata.obj
 0002:00008508       ??_C@_08EDHMEBNP@December@ 0000000180142508     libucrt:nlsdata.obj
 0002:00008514       ??_C@_02DEDBPAFC@AM@       0000000180142514     libucrt:nlsdata.obj
 0002:00008518       ??_C@_02CJNFDJBF@PM@       0000000180142518     libucrt:nlsdata.obj
 0002:00008520       ??_C@_08BPBNCDIB@MM?1dd?1yy@ 0000000180142520     libucrt:nlsdata.obj
 0002:00008530       ??_C@_0BE@CKGJFCPC@dddd?0?5MMMM?5dd?0?5yyyy@ 0000000180142530     libucrt:nlsdata.obj
 0002:00008548       ??_C@_08JCCMCCIL@HH?3mm?3ss@ 0000000180142548     libucrt:nlsdata.obj
 0002:00008558       ??_C@_17MBGCMIPB@?$AAS?$AAu?$AAn@ 0000000180142558     libucrt:nlsdata.obj
 0002:00008560       ??_C@_17KBOMKBF@?$AAM?$AAo?$AAn@ 0000000180142560     libucrt:nlsdata.obj
 0002:00008568       ??_C@_17BMKGEGOJ@?$AAT?$AAu?$AAe@ 0000000180142568     libucrt:nlsdata.obj
 0002:00008570       ??_C@_17CJEDCEPE@?$AAW?$AAe?$AAd@ 0000000180142570     libucrt:nlsdata.obj
 0002:00008578       ??_C@_17PDPHAADD@?$AAT?$AAh?$AAu@ 0000000180142578     libucrt:nlsdata.obj
 0002:00008580       ??_C@_17HFOLPPLP@?$AAF?$AAr?$AAi@ 0000000180142580     libucrt:nlsdata.obj
 0002:00008588       ??_C@_17GGIBDPIH@?$AAS?$AAa?$AAt@ 0000000180142588     libucrt:nlsdata.obj
 0002:00008590       ??_C@_1O@IHNHDHPB@?$AAS?$AAu?$AAn?$AAd?$AAa?$AAy@ 0000000180142590     libucrt:nlsdata.obj
 0002:000085a0       ??_C@_1O@MMNBFLIA@?$AAM?$AAo?$AAn?$AAd?$AAa?$AAy@ 00000001801425a0     libucrt:nlsdata.obj
 0002:000085b0       ??_C@_1BA@ENFBFFEK@?$AAT?$AAu?$AAe?$AAs?$AAd?$AAa?$AAy@ 00000001801425b0     libucrt:nlsdata.obj
 0002:000085c0       ??_C@_1BE@EBOGMDOH@?$AAW?$AAe?$AAd?$AAn?$AAe?$AAs?$AAd?$AAa?$AAy@ 00000001801425c0     libucrt:nlsdata.obj
 0002:000085d8       ??_C@_1BC@HHMNLIHE@?$AAT?$AAh?$AAu?$AAr?$AAs?$AAd?$AAa?$AAy@ 00000001801425d8     libucrt:nlsdata.obj
 0002:000085f0       ??_C@_1O@PDICJHAG@?$AAF?$AAr?$AAi?$AAd?$AAa?$AAy@ 00000001801425f0     libucrt:nlsdata.obj
 0002:00008600       ??_C@_1BC@ENMNNPAJ@?$AAS?$AAa?$AAt?$AAu?$AAr?$AAd?$AAa?$AAy@ 0000000180142600     libucrt:nlsdata.obj
 0002:00008618       ??_C@_17DKNBKCHM@?$AAJ?$AAa?$AAn@ 0000000180142618     libucrt:nlsdata.obj
 0002:00008620       ??_C@_17LMDJEKJN@?$AAF?$AAe?$AAb@ 0000000180142620     libucrt:nlsdata.obj
 0002:00008628       ??_C@_17CKNLEDEC@?$AAM?$AAa?$AAr@ 0000000180142628     libucrt:nlsdata.obj
 0002:00008630       ??_C@_17LFPOIHDD@?$AAA?$AAp?$AAr@ 0000000180142630     libucrt:nlsdata.obj
 0002:00008638       ??_C@_17PNNKMEED@?$AAM?$AAa?$AAy@ 0000000180142638     libucrt:nlsdata.obj
 0002:00008640       ??_C@_17KCJGOCPB@?$AAJ?$AAu?$AAn@ 0000000180142640     libucrt:nlsdata.obj
 0002:00008648       ??_C@_17IJPCKHK@?$AAJ?$AAu?$AAl@ 0000000180142648     libucrt:nlsdata.obj
 0002:00008650       ??_C@_17ICPELBCN@?$AAA?$AAu?$AAg@ 0000000180142650     libucrt:nlsdata.obj
 0002:00008658       ??_C@_17HCHCOKMG@?$AAS?$AAe?$AAp@ 0000000180142658     libucrt:nlsdata.obj
 0002:00008660       ??_C@_17FNLKOI@?$AAO?$AAc?$AAt@ 0000000180142660     libucrt:nlsdata.obj
 0002:00008668       ??_C@_17BBDMLCIG@?$AAN?$AAo?$AAv@ 0000000180142668     libucrt:nlsdata.obj
 0002:00008670       ??_C@_17EGKACKIF@?$AAD?$AAe?$AAc@ 0000000180142670     libucrt:nlsdata.obj
 0002:00008678       ??_C@_1BA@EFMEIEBA@?$AAJ?$AAa?$AAn?$AAu?$AAa?$AAr?$AAy@ 0000000180142678     libucrt:nlsdata.obj
 0002:00008688       ??_C@_1BC@JGDDFFAM@?$AAF?$AAe?$AAb?$AAr?$AAu?$AAa?$AAr?$AAy@ 0000000180142688     libucrt:nlsdata.obj
 0002:000086a0       ??_C@_1M@IKEENEDF@?$AAM?$AAa?$AAr?$AAc?$AAh@ 00000001801426a0     libucrt:nlsdata.obj
 0002:000086b0       ??_C@_1M@GJNLMHFD@?$AAA?$AAp?$AAr?$AAi?$AAl@ 00000001801426b0     libucrt:nlsdata.obj
 0002:000086c0       ??_C@_19EPFLPGAP@?$AAJ?$AAu?$AAn?$AAe@ 00000001801426c0     libucrt:nlsdata.obj
 0002:000086d0       ??_C@_19BIFMLPCD@?$AAJ?$AAu?$AAl?$AAy@ 00000001801426d0     libucrt:nlsdata.obj
 0002:000086e0       ??_C@_1O@PAHLKOAC@?$AAA?$AAu?$AAg?$AAu?$AAs?$AAt@ 00000001801426e0     libucrt:nlsdata.obj
 0002:000086f0       ??_C@_1BE@DKAAMBJL@?$AAS?$AAe?$AAp?$AAt?$AAe?$AAm?$AAb?$AAe?$AAr@ 00000001801426f0     libucrt:nlsdata.obj
 0002:00008708       ??_C@_1BA@EPANDLNG@?$AAO?$AAc?$AAt?$AAo?$AAb?$AAe?$AAr@ 0000000180142708     libucrt:nlsdata.obj
 0002:00008718       ??_C@_1BC@BGLIFPF@?$AAN?$AAo?$AAv?$AAe?$AAm?$AAb?$AAe?$AAr@ 0000000180142718     libucrt:nlsdata.obj
 0002:00008730       ??_C@_1BC@FEMKIFH@?$AAD?$AAe?$AAc?$AAe?$AAm?$AAb?$AAe?$AAr@ 0000000180142730     libucrt:nlsdata.obj
 0002:00008744       ??_C@_15ODEHAHHF@?$AAA?$AAM@ 0000000180142744     libucrt:nlsdata.obj
 0002:0000874c       ??_C@_15CLMNNGEL@?$AAP?$AAM@ 000000018014274c     libucrt:nlsdata.obj
 0002:00008758       ??_C@_1BC@IEBCMHCM@?$AAM?$AAM?$AA?1?$AAd?$AAd?$AA?1?$AAy?$AAy@ 0000000180142758     libucrt:nlsdata.obj
 0002:00008770       ??_C@_1CI@KNAKOEBC@?$AAd?$AAd?$AAd?$AAd?$AA?0?$AA?5?$AAM?$AAM?$AAM?$AAM?$AA?5?$AAd?$AAd?$AA?0?$AA?5@ 0000000180142770     libucrt:nlsdata.obj
 0002:00008798       ??_C@_1BC@GDGBMEMK@?$AAH?$AAH?$AA?3?$AAm?$AAm?$AA?3?$AAs?$AAs@ 0000000180142798     libucrt:nlsdata.obj
 0002:000087b0       ??_C@_1M@BMHNFIME@?$AAe?$AAn?$AA?9?$AAU?$AAS@ 00000001801427b0     libucrt:nlsdata.obj
 0002:00008840       ??_C@_03OEIAHPBN@INF@      0000000180142840     libucrt:cvt.obj
 0002:00008844       ??_C@_03OJHLLCGB@inf@      0000000180142844     libucrt:cvt.obj
 0002:00008848       ??_C@_03LKNCIKJB@NAN@      0000000180142848     libucrt:cvt.obj
 0002:0000884c       ??_C@_03LHCJEHON@nan@      000000018014284c     libucrt:cvt.obj
 0002:00008850       ??_C@_09OFJJIMPC@NAN?$CISNAN?$CJ@ 0000000180142850     libucrt:cvt.obj
 0002:00008860       ??_C@_09IPFBKMDL@nan?$CIsnan?$CJ@ 0000000180142860     libucrt:cvt.obj
 0002:00008870       ??_C@_08IKHNHAJ@NAN?$CIIND?$CJ@ 0000000180142870     libucrt:cvt.obj
 0002:00008880       ??_C@_08OFCDMILK@nan?$CIind?$CJ@ 0000000180142880     libucrt:cvt.obj
 0002:0000888c       ??_C@_05KLBDPFGC@e?$CL000@ 000000018014288c     libucrt:cvt.obj
 0002:000088a0       __newctype                 00000001801428a0     libucrt:ctype.obj
 0002:00008ba0       __newclmap                 0000000180142ba0     libucrt:ctype.obj
 0002:00008d20       __newcumap                 0000000180142d20     libucrt:ctype.obj
 0002:00008eb0       ??_C@_05HGHHAHAP@log10@    0000000180142eb0     libucrt:fpexcept.obj
 0002:00009d00       ??_C@_15EMKDOKLE@?$AAa?$AAr@ 0000000180143d00     libucrt:lcidtoname_downlevel.obj
 0002:00009d08       ??_C@_15KNPADPLH@?$AAb?$AAg@ 0000000180143d08     libucrt:lcidtoname_downlevel.obj
 0002:00009d10       ??_C@_15EDMHLDMO@?$AAc?$AAa@ 0000000180143d10     libucrt:lcidtoname_downlevel.obj
 0002:00009d18       ??_C@_1O@BPEAJADD@?$AAz?$AAh?$AA?9?$AAC?$AAH?$AAS@ 0000000180143d18     libucrt:lcidtoname_downlevel.obj
 0002:00009d28       ??_C@_15LJNHCMNK@?$AAc?$AAs@ 0000000180143d28     libucrt:lcidtoname_downlevel.obj
 0002:00009d30       ??_C@_15FOMCIDHG@?$AAd?$AAa@ 0000000180143d30     libucrt:lcidtoname_downlevel.obj
 0002:00009d38       ??_C@_15NBKABECB@?$AAd?$AAe@ 0000000180143d38     libucrt:lcidtoname_downlevel.obj
 0002:00009d40       ??_C@_15GHPEIIAO@?$AAe?$AAl@ 0000000180143d40     libucrt:lcidtoname_downlevel.obj
 0002:00009d48       ??_C@_15MNPNEAIF@?$AAe?$AAn@ 0000000180143d48     libucrt:lcidtoname_downlevel.obj
 0002:00009d50       ??_C@_15GPIOMPMH@?$AAe?$AAs@ 0000000180143d50     libucrt:lcidtoname_downlevel.obj
 0002:00009d58       ??_C@_15NGLOAKJC@?$AAf?$AAi@ 0000000180143d58     libucrt:lcidtoname_downlevel.obj
 0002:00009d60       ??_C@_15FBKGNKAM@?$AAf?$AAr@ 0000000180143d60     libucrt:lcidtoname_downlevel.obj
 0002:00009d68       ??_C@_15KGGCNEFK@?$AAh?$AAe@ 0000000180143d68     libucrt:lcidtoname_downlevel.obj
 0002:00009d70       ??_C@_15PGHLIDMF@?$AAh?$AAu@ 0000000180143d70     libucrt:lcidtoname_downlevel.obj
 0002:00009d78       ??_C@_15BIEMAPLM@?$AAi?$AAs@ 0000000180143d78     libucrt:lcidtoname_downlevel.obj
 0002:00009d80       ??_C@_15IFJLDHAF@?$AAi?$AAt@ 0000000180143d80     libucrt:lcidtoname_downlevel.obj
 0002:00009d88       ??_C@_15GEMIOCAG@?$AAj?$AAa@ 0000000180143d88     libucrt:lcidtoname_downlevel.obj
 0002:00009d90       ??_C@_15EPELEGJA@?$AAk?$AAo@ 0000000180143d90     libucrt:lcidtoname_downlevel.obj
 0002:00009d98       ??_C@_15NDDHIMN@?$AAn?$AAl@ 0000000180143d98     libucrt:lcidtoname_downlevel.obj
 0002:00009da0       ??_C@_15BPIGNHCD@?$AAn?$AAo@ 0000000180143da0     libucrt:lcidtoname_downlevel.obj
 0002:00009da8       ??_C@_15DEOPBLCG@?$AAp?$AAl@ 0000000180143da8     libucrt:lcidtoname_downlevel.obj
 0002:00009db0       ??_C@_15KBECGEFG@?$AAp?$AAt@ 0000000180143db0     libucrt:lcidtoname_downlevel.obj
 0002:00009db8       ??_C@_15GLJCBFMD@?$AAr?$AAo@ 0000000180143db8     libucrt:lcidtoname_downlevel.obj
 0002:00009dc0       ??_C@_15FEDGKCDI@?$AAr?$AAu@ 0000000180143dc0     libucrt:lcidtoname_downlevel.obj
 0002:00009dc8       ??_C@_15GLKMLLHM@?$AAh?$AAr@ 0000000180143dc8     libucrt:lcidtoname_downlevel.obj
 0002:00009dd0       ??_C@_15CPKMFBDB@?$AAs?$AAk@ 0000000180143dd0     libucrt:lcidtoname_downlevel.obj
 0002:00009dd8       ??_C@_15BAAIOGMK@?$AAs?$AAq@ 0000000180143dd8     libucrt:lcidtoname_downlevel.obj
 0002:00009de0       ??_C@_15INNPNOHD@?$AAs?$AAv@ 0000000180143de0     libucrt:lcidtoname_downlevel.obj
 0002:00009de8       ??_C@_15CABMMOGH@?$AAt?$AAh@ 0000000180143de8     libucrt:lcidtoname_downlevel.obj
 0002:00009df0       ??_C@_15BPLIHJJM@?$AAt?$AAr@ 0000000180143df0     libucrt:lcidtoname_downlevel.obj
 0002:00009df8       ??_C@_15NEOEKKDJ@?$AAu?$AAr@ 0000000180143df8     libucrt:lcidtoname_downlevel.obj
 0002:00009e00       ??_C@_15NFICGAJK@?$AAi?$AAd@ 0000000180143e00     libucrt:lcidtoname_downlevel.obj
 0002:00009e08       ??_C@_15PJPFLCCM@?$AAu?$AAk@ 0000000180143e08     libucrt:lcidtoname_downlevel.obj
 0002:00009e10       ??_C@_15HPJPHDM@?$AAb?$AAe@ 0000000180143e10     libucrt:lcidtoname_downlevel.obj
 0002:00009e18       ??_C@_15LCHLGJII@?$AAs?$AAl@ 0000000180143e18     libucrt:lcidtoname_downlevel.obj
 0002:00009e20       ??_C@_15PCFJPHHO@?$AAe?$AAt@ 0000000180143e20     libucrt:lcidtoname_downlevel.obj
 0002:00009e28       ??_C@_15HPFPGODN@?$AAl?$AAv@ 0000000180143e28     libucrt:lcidtoname_downlevel.obj
 0002:00009e30       ??_C@_15NFFGKGLG@?$AAl?$AAt@ 0000000180143e30     libucrt:lcidtoname_downlevel.obj
 0002:00009e38       ??_C@_15BDAKCCHN@?$AAf?$AAa@ 0000000180143e38     libucrt:lcidtoname_downlevel.obj
 0002:00009e40       ??_C@_15NFGIAIAJ@?$AAv?$AAi@ 0000000180143e40     libucrt:lcidtoname_downlevel.obj
 0002:00009e48       ??_C@_15LMKNDMHN@?$AAh?$AAy@ 0000000180143e48     libucrt:lcidtoname_downlevel.obj
 0002:00009e50       ??_C@_15IJBHMCFL@?$AAa?$AAz@ 0000000180143e50     libucrt:lcidtoname_downlevel.obj
 0002:00009e58       ??_C@_15EKOFJABL@?$AAe?$AAu@ 0000000180143e58     libucrt:lcidtoname_downlevel.obj
 0002:00009e60       ??_C@_15BGHADCNK@?$AAm?$AAk@ 0000000180143e60     libucrt:lcidtoname_downlevel.obj
 0002:00009e68       ??_C@_15JDNICKHM@?$AAa?$AAf@ 0000000180143e68     libucrt:lcidtoname_downlevel.obj
 0002:00009e70       ??_C@_15KPJEDBKD@?$AAk?$AAa@ 0000000180143e70     libucrt:lcidtoname_downlevel.obj
 0002:00009e78       ??_C@_15PDNFFFEO@?$AAf?$AAo@ 0000000180143e78     libucrt:lcidtoname_downlevel.obj
 0002:00009e80       ??_C@_15OMLEGLOC@?$AAh?$AAi@ 0000000180143e80     libucrt:lcidtoname_downlevel.obj
 0002:00009e88       ??_C@_15IDNNENKK@?$AAm?$AAs@ 0000000180143e88     libucrt:lcidtoname_downlevel.obj
 0002:00009e90       ??_C@_15MACJNBMH@?$AAk?$AAk@ 0000000180143e90     libucrt:lcidtoname_downlevel.obj
 0002:00009e98       ??_C@_15DKDJEOND@?$AAk?$AAy@ 0000000180143e98     libucrt:lcidtoname_downlevel.obj
 0002:00009ea0       ??_C@_15DFGDLJBG@?$AAs?$AAw@ 0000000180143ea0     libucrt:lcidtoname_downlevel.obj
 0002:00009ea8       ??_C@_15BBFAICNG@?$AAu?$AAz@ 0000000180143ea8     libucrt:lcidtoname_downlevel.obj
 0002:00009eb0       ??_C@_15DKNDCGEA@?$AAt?$AAt@ 0000000180143eb0     libucrt:lcidtoname_downlevel.obj
 0002:00009eb8       ??_C@_15MGIFMDPL@?$AAp?$AAa@ 0000000180143eb8     libucrt:lcidtoname_downlevel.obj
 0002:00009ec0       ??_C@_15HCNDBBA@?$AAg?$AAu@ 0000000180143ec0     libucrt:lcidtoname_downlevel.obj
 0002:00009ec8       ??_C@_15FNBEIBON@?$AAt?$AAa@ 0000000180143ec8     libucrt:lcidtoname_downlevel.obj
 0002:00009ed0       ??_C@_15NCHGBGLK@?$AAt?$AAe@ 0000000180143ed0     libucrt:lcidtoname_downlevel.obj
 0002:00009ed8       ??_C@_15PHPHCBPF@?$AAk?$AAn@ 0000000180143ed8     libucrt:lcidtoname_downlevel.obj
 0002:00009ee0       ??_C@_15DLGBCKMP@?$AAm?$AAr@ 0000000180143ee0     libucrt:lcidtoname_downlevel.obj
 0002:00009ee8       ??_C@_15EABBLBFF@?$AAs?$AAa@ 0000000180143ee8     libucrt:lcidtoname_downlevel.obj
 0002:00009ef0       ??_C@_15CBKOMCOI@?$AAm?$AAn@ 0000000180143ef0     libucrt:lcidtoname_downlevel.obj
 0002:00009ef8       ??_C@_15CKDMCJAF@?$AAg?$AAl@ 0000000180143ef8     libucrt:lcidtoname_downlevel.obj
 0002:00009f00       ??_C@_17CNJFBPG@?$AAk?$AAo?$AAk@ 0000000180143f00     libucrt:lcidtoname_downlevel.obj
 0002:00009f08       ??_C@_17FFBJICPL@?$AAs?$AAy?$AAr@ 0000000180143f08     libucrt:lcidtoname_downlevel.obj
 0002:00009f10       ??_C@_17KPNDCPAF@?$AAd?$AAi?$AAv@ 0000000180143f10     libucrt:lcidtoname_downlevel.obj
 0002:00009f18       ??_C@_11LOCGONAA@@         0000000180143f18     libucrt:lcidtoname_downlevel.obj
 0002:00009f20       ??_C@_1M@OKAHONE@?$AAa?$AAr?$AA?9?$AAS?$AAA@ 0000000180143f20     libucrt:lcidtoname_downlevel.obj
 0002:00009f30       ??_C@_1M@FFFIGIGK@?$AAb?$AAg?$AA?9?$AAB?$AAG@ 0000000180143f30     libucrt:lcidtoname_downlevel.obj
 0002:00009f40       ??_C@_1M@BJNKEDC@?$AAc?$AAa?$AA?9?$AAE?$AAS@ 0000000180143f40     libucrt:lcidtoname_downlevel.obj
 0002:00009f50       ??_C@_1M@IJJHFJHA@?$AAc?$AAs?$AA?9?$AAC?$AAZ@ 0000000180143f50     libucrt:lcidtoname_downlevel.obj
 0002:00009f60       ??_C@_1M@CLPEOBGI@?$AAd?$AAa?$AA?9?$AAD?$AAK@ 0000000180143f60     libucrt:lcidtoname_downlevel.obj
 0002:00009f70       ??_C@_1M@MCMADGCB@?$AAd?$AAe?$AA?9?$AAD?$AAE@ 0000000180143f70     libucrt:lcidtoname_downlevel.obj
 0002:00009f80       ??_C@_1M@OOCKEMAM@?$AAe?$AAl?$AA?9?$AAG?$AAR@ 0000000180143f80     libucrt:lcidtoname_downlevel.obj
 0002:00009f90       ??_C@_1M@DDNJFGID@?$AAf?$AAi?$AA?9?$AAF?$AAI@ 0000000180143f90     libucrt:lcidtoname_downlevel.obj
 0002:00009fa0       ??_C@_1M@GLIPPMAC@?$AAf?$AAr?$AA?9?$AAF?$AAR@ 0000000180143fa0     libucrt:lcidtoname_downlevel.obj
 0002:00009fb0       ??_C@_1M@GFMCHPE@?$AAh?$AAe?$AA?9?$AAI?$AAL@ 0000000180143fb0     libucrt:lcidtoname_downlevel.obj
 0002:00009fc0       ??_C@_1M@MHLPGNKM@?$AAh?$AAu?$AA?9?$AAH?$AAU@ 0000000180143fc0     libucrt:lcidtoname_downlevel.obj
 0002:00009fd0       ??_C@_1M@LPDDNNPN@?$AAi?$AAs?$AA?9?$AAI?$AAS@ 0000000180143fd0     libucrt:lcidtoname_downlevel.obj
 0002:00009fe0       ??_C@_1M@MADIPODN@?$AAi?$AAt?$AA?9?$AAI?$AAT@ 0000000180143fe0     libucrt:lcidtoname_downlevel.obj
 0002:00009ff0       ??_C@_1M@IHBJJGG@?$AAn?$AAl?$AA?9?$AAN?$AAL@ 0000000180143ff0     libucrt:lcidtoname_downlevel.obj
 0002:0000a000       ??_C@_1M@EANAGDL@?$AAn?$AAb?$AA?9?$AAN?$AAO@ 0000000180144000     libucrt:lcidtoname_downlevel.obj
 0002:0000a010       ??_C@_1M@NEIEMEGP@?$AAp?$AAl?$AA?9?$AAP?$AAL@ 0000000180144010     libucrt:lcidtoname_downlevel.obj
 0002:0000a020       ??_C@_1M@BOCFIGEP@?$AAp?$AAt?$AA?9?$AAB?$AAR@ 0000000180144020     libucrt:lcidtoname_downlevel.obj
 0002:0000a030       ??_C@_1M@IMPFOPBG@?$AAr?$AAo?$AA?9?$AAR?$AAO@ 0000000180144030     libucrt:lcidtoname_downlevel.obj
 0002:0000a040       ??_C@_1M@IDNNEJMM@?$AAr?$AAu?$AA?9?$AAR?$AAU@ 0000000180144040     libucrt:lcidtoname_downlevel.obj
 0002:0000a050       ??_C@_1M@LILEEOGM@?$AAh?$AAr?$AA?9?$AAH?$AAR@ 0000000180144050     libucrt:lcidtoname_downlevel.obj
 0002:0000a060       ??_C@_1M@FKIFEHPB@?$AAs?$AAk?$AA?9?$AAS?$AAK@ 0000000180144060     libucrt:lcidtoname_downlevel.obj
 0002:0000a070       ??_C@_1M@LJMAMNPJ@?$AAs?$AAq?$AA?9?$AAA?$AAL@ 0000000180144070     libucrt:lcidtoname_downlevel.obj
 0002:0000a080       ??_C@_1M@GIAKDKJK@?$AAs?$AAv?$AA?9?$AAS?$AAE@ 0000000180144080     libucrt:lcidtoname_downlevel.obj
 0002:0000a090       ??_C@_1M@MKJKIKCL@?$AAt?$AAh?$AA?9?$AAT?$AAH@ 0000000180144090     libucrt:lcidtoname_downlevel.obj
 0002:0000a0a0       ??_C@_1M@MFLCCMPB@?$AAt?$AAr?$AA?9?$AAT?$AAR@ 00000001801440a0     libucrt:lcidtoname_downlevel.obj
 0002:0000a0b0       ??_C@_1M@OIJHDKJN@?$AAu?$AAr?$AA?9?$AAP?$AAK@ 00000001801440b0     libucrt:lcidtoname_downlevel.obj
 0002:0000a0c0       ??_C@_1M@LHIPCIEK@?$AAi?$AAd?$AA?9?$AAI?$AAD@ 00000001801440c0     libucrt:lcidtoname_downlevel.obj
 0002:0000a0d0       ??_C@_1M@MFMOBGI@?$AAu?$AAk?$AA?9?$AAU?$AAA@ 00000001801440d0     libucrt:lcidtoname_downlevel.obj
 0002:0000a0e0       ??_C@_1M@OBGLJIPL@?$AAb?$AAe?$AA?9?$AAB?$AAY@ 00000001801440e0     libucrt:lcidtoname_downlevel.obj
 0002:0000a0f0       ??_C@_1M@BCFAJEAD@?$AAs?$AAl?$AA?9?$AAS?$AAI@ 00000001801440f0     libucrt:lcidtoname_downlevel.obj
 0002:0000a100       ??_C@_1M@FKFFEDDN@?$AAe?$AAt?$AA?9?$AAE?$AAE@ 0000000180144100     libucrt:lcidtoname_downlevel.obj
 0002:0000a110       ??_C@_1M@KGKKAACI@?$AAl?$AAv?$AA?9?$AAL?$AAV@ 0000000180144110     libucrt:lcidtoname_downlevel.obj
 0002:0000a120       ??_C@_1M@IFGBIJO@?$AAl?$AAt?$AA?9?$AAL?$AAT@ 0000000180144120     libucrt:lcidtoname_downlevel.obj
 0002:0000a130       ??_C@_1M@FGEAHEDM@?$AAf?$AAa?$AA?9?$AAI?$AAR@ 0000000180144130     libucrt:lcidtoname_downlevel.obj
 0002:0000a140       ??_C@_1M@KBMAIBFN@?$AAv?$AAi?$AA?9?$AAV?$AAN@ 0000000180144140     libucrt:lcidtoname_downlevel.obj
 0002:0000a150       ??_C@_1M@GPCBKDJK@?$AAh?$AAy?$AA?9?$AAA?$AAM@ 0000000180144150     libucrt:lcidtoname_downlevel.obj
 0002:0000a160       ??_C@_1BG@BECMDDJB@?$AAa?$AAz?$AA?9?$AAA?$AAZ?$AA?9?$AAL?$AAa?$AAt?$AAn@ 0000000180144160     libucrt:lcidtoname_downlevel.obj
 0002:0000a178       ??_C@_1M@MAOFCAEA@?$AAe?$AAu?$AA?9?$AAE?$AAS@ 0000000180144178     libucrt:lcidtoname_downlevel.obj
 0002:0000a188       ??_C@_1M@IGHABKPI@?$AAm?$AAk?$AA?9?$AAM?$AAK@ 0000000180144188     libucrt:lcidtoname_downlevel.obj
 0002:0000a198       ??_C@_1M@IAIGNEJG@?$AAt?$AAn?$AA?9?$AAZ?$AAA@ 0000000180144198     libucrt:lcidtoname_downlevel.obj
 0002:0000a1a8       ??_C@_1M@IIJCOJFA@?$AAx?$AAh?$AA?9?$AAZ?$AAA@ 00000001801441a8     libucrt:lcidtoname_downlevel.obj
 0002:0000a1b8       ??_C@_1M@LGPJHNJH@?$AAz?$AAu?$AA?9?$AAZ?$AAA@ 00000001801441b8     libucrt:lcidtoname_downlevel.obj
 0002:0000a1c8       ??_C@_1M@HOKAOIO@?$AAa?$AAf?$AA?9?$AAZ?$AAA@ 00000001801441c8     libucrt:lcidtoname_downlevel.obj
 0002:0000a1d8       ??_C@_1M@DPCLHLIE@?$AAk?$AAa?$AA?9?$AAG?$AAE@ 00000001801441d8     libucrt:lcidtoname_downlevel.obj
 0002:0000a1e8       ??_C@_1M@BLKMHJBI@?$AAf?$AAo?$AA?9?$AAF?$AAO@ 00000001801441e8     libucrt:lcidtoname_downlevel.obj
 0002:0000a1f8       ??_C@_1M@LGGJAPPB@?$AAh?$AAi?$AA?9?$AAI?$AAN@ 00000001801441f8     libucrt:lcidtoname_downlevel.obj
 0002:0000a208       ??_C@_1M@FIKPIHFE@?$AAm?$AAt?$AA?9?$AAM?$AAT@ 0000000180144208     libucrt:lcidtoname_downlevel.obj
 0002:0000a218       ??_C@_1M@HEGGPBFA@?$AAs?$AAe?$AA?9?$AAN?$AAO@ 0000000180144218     libucrt:lcidtoname_downlevel.obj
 0002:0000a228       ??_C@_1M@EIBJEEPA@?$AAm?$AAs?$AA?9?$AAM?$AAY@ 0000000180144228     libucrt:lcidtoname_downlevel.obj
 0002:0000a238       ??_C@_1M@FHLBGMPP@?$AAk?$AAk?$AA?9?$AAK?$AAZ@ 0000000180144238     libucrt:lcidtoname_downlevel.obj
 0002:0000a248       ??_C@_1M@NGJJLCGI@?$AAk?$AAy?$AA?9?$AAK?$AAG@ 0000000180144248     libucrt:lcidtoname_downlevel.obj
 0002:0000a258       ??_C@_1M@GIENNBFC@?$AAs?$AAw?$AA?9?$AAK?$AAE@ 0000000180144258     libucrt:lcidtoname_downlevel.obj
 0002:0000a268       ??_C@_1BG@NDGMJIMJ@?$AAu?$AAz?$AA?9?$AAU?$AAZ?$AA?9?$AAL?$AAa?$AAt?$AAn@ 0000000180144268     libucrt:lcidtoname_downlevel.obj
 0002:0000a280       ??_C@_1M@IDCCIHBC@?$AAt?$AAt?$AA?9?$AAR?$AAU@ 0000000180144280     libucrt:lcidtoname_downlevel.obj
 0002:0000a290       ??_C@_1M@LOICPMOJ@?$AAb?$AAn?$AA?9?$AAI?$AAN@ 0000000180144290     libucrt:lcidtoname_downlevel.obj
 0002:0000a2a0       ??_C@_1M@KPKKNEAH@?$AAp?$AAa?$AA?9?$AAI?$AAN@ 00000001801442a0     libucrt:lcidtoname_downlevel.obj
 0002:0000a2b0       ??_C@_1M@PJGPPBOG@?$AAg?$AAu?$AA?9?$AAI?$AAN@ 00000001801442b0     libucrt:lcidtoname_downlevel.obj
 0002:0000a2c0       ??_C@_1M@KMKMOPHI@?$AAt?$AAa?$AA?9?$AAI?$AAN@ 00000001801442c0     libucrt:lcidtoname_downlevel.obj
 0002:0000a2d0       ??_C@_1M@KFEHEPAC@?$AAt?$AAe?$AA?9?$AAI?$AAN@ 00000001801442d0     libucrt:lcidtoname_downlevel.obj
 0002:0000a2e0       ??_C@_1M@CDCLMGHI@?$AAk?$AAn?$AA?9?$AAI?$AAN@ 00000001801442e0     libucrt:lcidtoname_downlevel.obj
 0002:0000a2f0       ??_C@_1M@MIODLDKF@?$AAm?$AAl?$AA?9?$AAI?$AAN@ 00000001801442f0     libucrt:lcidtoname_downlevel.obj
 0002:0000a300       ??_C@_1M@PBIEACPO@?$AAm?$AAr?$AA?9?$AAI?$AAN@ 0000000180144300     libucrt:lcidtoname_downlevel.obj
 0002:0000a310       ??_C@_1M@NIDEAGPH@?$AAs?$AAa?$AA?9?$AAI?$AAN@ 0000000180144310     libucrt:lcidtoname_downlevel.obj
 0002:0000a320       ??_C@_1M@FHIHCBIO@?$AAm?$AAn?$AA?9?$AAM?$AAN@ 0000000180144320     libucrt:lcidtoname_downlevel.obj
 0002:0000a330       ??_C@_1M@JAIJPENP@?$AAc?$AAy?$AA?9?$AAG?$AAB@ 0000000180144330     libucrt:lcidtoname_downlevel.obj
 0002:0000a340       ??_C@_1M@PHGFBEPN@?$AAg?$AAl?$AA?9?$AAE?$AAS@ 0000000180144340     libucrt:lcidtoname_downlevel.obj
 0002:0000a350       ??_C@_1O@KPIPDNCP@?$AAk?$AAo?$AAk?$AA?9?$AAI?$AAN@ 0000000180144350     libucrt:lcidtoname_downlevel.obj
 0002:0000a360       ??_C@_1O@KNHJLDJA@?$AAs?$AAy?$AAr?$AA?9?$AAS?$AAY@ 0000000180144360     libucrt:lcidtoname_downlevel.obj
 0002:0000a370       ??_C@_1O@MKEKBLAH@?$AAd?$AAi?$AAv?$AA?9?$AAM?$AAV@ 0000000180144370     libucrt:lcidtoname_downlevel.obj
 0002:0000a380       ??_C@_1O@OHDCKDDF@?$AAq?$AAu?$AAz?$AA?9?$AAB?$AAO@ 0000000180144380     libucrt:lcidtoname_downlevel.obj
 0002:0000a390       ??_C@_1M@LEPJNLFD@?$AAn?$AAs?$AA?9?$AAZ?$AAA@ 0000000180144390     libucrt:lcidtoname_downlevel.obj
 0002:0000a3a0       ??_C@_1M@OMLEIIJB@?$AAm?$AAi?$AA?9?$AAN?$AAZ@ 00000001801443a0     libucrt:lcidtoname_downlevel.obj
 0002:0000a3b0       ??_C@_1M@PMPEAILG@?$AAa?$AAr?$AA?9?$AAI?$AAQ@ 00000001801443b0     libucrt:lcidtoname_downlevel.obj
 0002:0000a3c0       ??_C@_1M@CNKPNOEE@?$AAd?$AAe?$AA?9?$AAC?$AAH@ 00000001801443c0     libucrt:lcidtoname_downlevel.obj
 0002:0000a3d0       ??_C@_1M@LKMGMLKO@?$AAe?$AAn?$AA?9?$AAG?$AAB@ 00000001801443d0     libucrt:lcidtoname_downlevel.obj
 0002:0000a3e0       ??_C@_1M@PGKJFFGL@?$AAe?$AAs?$AA?9?$AAM?$AAX@ 00000001801443e0     libucrt:lcidtoname_downlevel.obj
 0002:0000a3f0       ??_C@_1M@DNNANBDC@?$AAf?$AAr?$AA?9?$AAB?$AAE@ 00000001801443f0     libucrt:lcidtoname_downlevel.obj
 0002:0000a400       ??_C@_1M@HLGMDFHM@?$AAi?$AAt?$AA?9?$AAC?$AAH@ 0000000180144400     libucrt:lcidtoname_downlevel.obj
 0002:0000a410       ??_C@_1M@CLLBGJH@?$AAn?$AAl?$AA?9?$AAB?$AAE@ 0000000180144410     libucrt:lcidtoname_downlevel.obj
 0002:0000a420       ??_C@_1M@BODBOGLF@?$AAn?$AAn?$AA?9?$AAN?$AAO@ 0000000180144420     libucrt:lcidtoname_downlevel.obj
 0002:0000a430       ??_C@_1M@HFFAHKAD@?$AAp?$AAt?$AA?9?$AAP?$AAT@ 0000000180144430     libucrt:lcidtoname_downlevel.obj
 0002:0000a440       ??_C@_1BG@LNOAKHIE@?$AAs?$AAr?$AA?9?$AAS?$AAP?$AA?9?$AAL?$AAa?$AAt?$AAn@ 0000000180144440     libucrt:lcidtoname_downlevel.obj
 0002:0000a458       ??_C@_1M@HBMHBGAK@?$AAs?$AAv?$AA?9?$AAF?$AAI@ 0000000180144458     libucrt:lcidtoname_downlevel.obj
 0002:0000a468       ??_C@_1BG@DGCJGJBE@?$AAa?$AAz?$AA?9?$AAA?$AAZ?$AA?9?$AAC?$AAy?$AAr?$AAl@ 0000000180144468     libucrt:lcidtoname_downlevel.obj
 0002:0000a480       ??_C@_1M@KEJDAAHB@?$AAs?$AAe?$AA?9?$AAS?$AAE@ 0000000180144480     libucrt:lcidtoname_downlevel.obj
 0002:0000a490       ??_C@_1M@HEIBJJAD@?$AAm?$AAs?$AA?9?$AAB?$AAN@ 0000000180144490     libucrt:lcidtoname_downlevel.obj
 0002:0000a4a0       ??_C@_1BG@PBGJMCEM@?$AAu?$AAz?$AA?9?$AAU?$AAZ?$AA?9?$AAC?$AAy?$AAr?$AAl@ 00000001801444a0     libucrt:lcidtoname_downlevel.obj
 0002:0000a4b8       ??_C@_1O@LAOBCMDF@?$AAq?$AAu?$AAz?$AA?9?$AAE?$AAC@ 00000001801444b8     libucrt:lcidtoname_downlevel.obj
 0002:0000a4c8       ??_C@_1M@POEEMAIO@?$AAa?$AAr?$AA?9?$AAE?$AAG@ 00000001801444c8     libucrt:lcidtoname_downlevel.obj
 0002:0000a4d8       ??_C@_1M@EFAKDEDL@?$AAz?$AAh?$AA?9?$AAH?$AAK@ 00000001801444d8     libucrt:lcidtoname_downlevel.obj
 0002:0000a4e8       ??_C@_1M@HKKIJHGI@?$AAd?$AAe?$AA?9?$AAA?$AAT@ 00000001801444e8     libucrt:lcidtoname_downlevel.obj
 0002:0000a4f8       ??_C@_1M@KBFBEHJF@?$AAe?$AAn?$AA?9?$AAA?$AAU@ 00000001801444f8     libucrt:lcidtoname_downlevel.obj
 0002:0000a508       ??_C@_1M@MNPLFAAH@?$AAe?$AAs?$AA?9?$AAE?$AAS@ 0000000180144508     libucrt:lcidtoname_downlevel.obj
 0002:0000a518       ??_C@_1M@HJOOJFMA@?$AAf?$AAr?$AA?9?$AAC?$AAA@ 0000000180144518     libucrt:lcidtoname_downlevel.obj
 0002:0000a528       ??_C@_1BG@JPOFPNAB@?$AAs?$AAr?$AA?9?$AAS?$AAP?$AA?9?$AAC?$AAy?$AAr?$AAl@ 0000000180144528     libucrt:lcidtoname_downlevel.obj
 0002:0000a540       ??_C@_1M@LNFOCMOB@?$AAs?$AAe?$AA?9?$AAF?$AAI@ 0000000180144540     libucrt:lcidtoname_downlevel.obj
 0002:0000a550       ??_C@_1O@MGJBOAMB@?$AAq?$AAu?$AAz?$AA?9?$AAP?$AAE@ 0000000180144550     libucrt:lcidtoname_downlevel.obj
 0002:0000a560       ??_C@_1M@GJINLBOK@?$AAa?$AAr?$AA?9?$AAL?$AAY@ 0000000180144560     libucrt:lcidtoname_downlevel.obj
 0002:0000a570       ??_C@_1M@GGMNHJNL@?$AAz?$AAh?$AA?9?$AAS?$AAG@ 0000000180144570     libucrt:lcidtoname_downlevel.obj
 0002:0000a580       ??_C@_1M@HOIKODND@?$AAd?$AAe?$AA?9?$AAL?$AAU@ 0000000180144580     libucrt:lcidtoname_downlevel.obj
 0002:0000a590       ??_C@_1M@DDOCCGFG@?$AAe?$AAn?$AA?9?$AAC?$AAA@ 0000000180144590     libucrt:lcidtoname_downlevel.obj
 0002:0000a5a0       ??_C@_1M@BNOEMJLF@?$AAe?$AAs?$AA?9?$AAG?$AAT@ 00000001801445a0     libucrt:lcidtoname_downlevel.obj
 0002:0000a5b0       ??_C@_1M@EOGNKEK@?$AAf?$AAr?$AA?9?$AAC?$AAH@ 00000001801445b0     libucrt:lcidtoname_downlevel.obj
 0002:0000a5c0       ??_C@_1M@FLIDJFHL@?$AAh?$AAr?$AA?9?$AAB?$AAA@ 00000001801445c0     libucrt:lcidtoname_downlevel.obj
 0002:0000a5d0       ??_C@_1O@FMCELNAJ@?$AAs?$AAm?$AAj?$AA?9?$AAN?$AAO@ 00000001801445d0     libucrt:lcidtoname_downlevel.obj
 0002:0000a5e0       ??_C@_1M@JHGLJMGJ@?$AAa?$AAr?$AA?9?$AAD?$AAZ@ 00000001801445e0     libucrt:lcidtoname_downlevel.obj
 0002:0000a5f0       ??_C@_1M@JKKFDCNP@?$AAz?$AAh?$AA?9?$AAM?$AAO@ 00000001801445f0     libucrt:lcidtoname_downlevel.obj
 0002:0000a600       ??_C@_1M@GEEFALPE@?$AAd?$AAe?$AA?9?$AAL?$AAI@ 0000000180144600     libucrt:lcidtoname_downlevel.obj
 0002:0000a610       ??_C@_1M@IGEOFBG@?$AAe?$AAn?$AA?9?$AAN?$AAZ@ 0000000180144610     libucrt:lcidtoname_downlevel.obj
 0002:0000a620       ??_C@_1M@KDBONEHP@?$AAe?$AAs?$AA?9?$AAC?$AAR@ 0000000180144620     libucrt:lcidtoname_downlevel.obj
 0002:0000a630       ??_C@_1M@FHMDOHNN@?$AAf?$AAr?$AA?9?$AAL?$AAU@ 0000000180144630     libucrt:lcidtoname_downlevel.obj
 0002:0000a640       ??_C@_1BG@NFKKMAFG@?$AAb?$AAs?$AA?9?$AAB?$AAA?$AA?9?$AAL?$AAa?$AAt?$AAn@ 0000000180144640     libucrt:lcidtoname_downlevel.obj
 0002:0000a658       ??_C@_1O@IMNBEMCI@?$AAs?$AAm?$AAj?$AA?9?$AAS?$AAE@ 0000000180144658     libucrt:lcidtoname_downlevel.obj
 0002:0000a668       ??_C@_1M@DHHMBNDP@?$AAa?$AAr?$AA?9?$AAM?$AAA@ 0000000180144668     libucrt:lcidtoname_downlevel.obj
 0002:0000a678       ??_C@_1M@BNBLJCGH@?$AAe?$AAn?$AA?9?$AAI?$AAE@ 0000000180144678     libucrt:lcidtoname_downlevel.obj
 0002:0000a688       ??_C@_1M@GEPAFMDL@?$AAe?$AAs?$AA?9?$AAP?$AAA@ 0000000180144688     libucrt:lcidtoname_downlevel.obj
 0002:0000a698       ??_C@_1M@OJONDMDL@?$AAf?$AAr?$AA?9?$AAM?$AAC@ 0000000180144698     libucrt:lcidtoname_downlevel.obj
 0002:0000a6a8       ??_C@_1BG@OBCNFJB@?$AAs?$AAr?$AA?9?$AAB?$AAA?$AA?9?$AAL?$AAa?$AAt?$AAn@ 00000001801446a8     libucrt:lcidtoname_downlevel.obj
 0002:0000a6c0       ??_C@_1O@KEMEEGPO@?$AAs?$AAm?$AAa?$AA?9?$AAN?$AAO@ 00000001801446c0     libucrt:lcidtoname_downlevel.obj
 0002:0000a6d0       ??_C@_1M@ELMGFODK@?$AAa?$AAr?$AA?9?$AAT?$AAN@ 00000001801446d0     libucrt:lcidtoname_downlevel.obj
 0002:0000a6e0       ??_C@_1M@BHDLHFAF@?$AAe?$AAn?$AA?9?$AAZ?$AAA@ 00000001801446e0     libucrt:lcidtoname_downlevel.obj
 0002:0000a6f0       ??_C@_1M@BMGIGLIF@?$AAe?$AAs?$AA?9?$AAD?$AAO@ 00000001801446f0     libucrt:lcidtoname_downlevel.obj
 0002:0000a700       ??_C@_1BG@CMBHIPBE@?$AAs?$AAr?$AA?9?$AAB?$AAA?$AA?9?$AAC?$AAy?$AAr?$AAl@ 0000000180144700     libucrt:lcidtoname_downlevel.obj
 0002:0000a718       ??_C@_1O@HEDBLHNP@?$AAs?$AAm?$AAa?$AA?9?$AAS?$AAE@ 0000000180144718     libucrt:lcidtoname_downlevel.obj
 0002:0000a728       ??_C@_1M@DAGCADIM@?$AAa?$AAr?$AA?9?$AAO?$AAM@ 0000000180144728     libucrt:lcidtoname_downlevel.obj
 0002:0000a738       ??_C@_1M@FODLMICG@?$AAe?$AAn?$AA?9?$AAJ?$AAM@ 0000000180144738     libucrt:lcidtoname_downlevel.obj
 0002:0000a748       ??_C@_1M@DNMLCIHB@?$AAe?$AAs?$AA?9?$AAV?$AAE@ 0000000180144748     libucrt:lcidtoname_downlevel.obj
 0002:0000a758       ??_C@_1O@EOKHMKJK@?$AAs?$AAm?$AAs?$AA?9?$AAF?$AAI@ 0000000180144758     libucrt:lcidtoname_downlevel.obj
 0002:0000a768       ??_C@_1M@CAFJMKOF@?$AAa?$AAr?$AA?9?$AAY?$AAE@ 0000000180144768     libucrt:lcidtoname_downlevel.obj
 0002:0000a778       ??_C@_1M@CBFHIJLI@?$AAe?$AAn?$AA?9?$AAC?$AAB@ 0000000180144778     libucrt:lcidtoname_downlevel.obj
 0002:0000a788       ??_C@_1M@BGNFLDN@?$AAe?$AAs?$AA?9?$AAC?$AAO@ 0000000180144788     libucrt:lcidtoname_downlevel.obj
 0002:0000a798       ??_C@_1O@JMPHMAMC@?$AAs?$AAm?$AAn?$AA?9?$AAF?$AAI@ 0000000180144798     libucrt:lcidtoname_downlevel.obj
 0002:0000a7a8       ??_C@_1M@JLANABKE@?$AAa?$AAr?$AA?9?$AAS?$AAY@ 00000001801447a8     libucrt:lcidtoname_downlevel.obj
 0002:0000a7b8       ??_C@_1M@HPKGCFGN@?$AAe?$AAn?$AA?9?$AAB?$AAZ@ 00000001801447b8     libucrt:lcidtoname_downlevel.obj
 0002:0000a7c8       ??_C@_1M@OLJCMLGM@?$AAe?$AAs?$AA?9?$AAP?$AAE@ 00000001801447c8     libucrt:lcidtoname_downlevel.obj
 0002:0000a7d8       ??_C@_1M@MKKGFKLE@?$AAa?$AAr?$AA?9?$AAJ?$AAO@ 00000001801447d8     libucrt:lcidtoname_downlevel.obj
 0002:0000a7e8       ??_C@_1M@EKPGLDNI@?$AAe?$AAn?$AA?9?$AAT?$AAT@ 00000001801447e8     libucrt:lcidtoname_downlevel.obj
 0002:0000a7f8       ??_C@_1M@OONGHFHE@?$AAe?$AAs?$AA?9?$AAA?$AAR@ 00000001801447f8     libucrt:lcidtoname_downlevel.obj
 0002:0000a808       ??_C@_1M@OOJFGBHE@?$AAa?$AAr?$AA?9?$AAL?$AAB@ 0000000180144808     libucrt:lcidtoname_downlevel.obj
 0002:0000a818       ??_C@_1M@GCEJHNEG@?$AAe?$AAn?$AA?9?$AAZ?$AAW@ 0000000180144818     libucrt:lcidtoname_downlevel.obj
 0002:0000a828       ??_C@_1M@JNOCAHJI@?$AAe?$AAs?$AA?9?$AAE?$AAC@ 0000000180144828     libucrt:lcidtoname_downlevel.obj
 0002:0000a838       ??_C@_1M@JEFHPGGB@?$AAa?$AAr?$AA?9?$AAK?$AAW@ 0000000180144838     libucrt:lcidtoname_downlevel.obj
 0002:0000a848       ??_C@_1M@MLKIBJOJ@?$AAe?$AAn?$AA?9?$AAP?$AAH@ 0000000180144848     libucrt:lcidtoname_downlevel.obj
 0002:0000a858       ??_C@_1M@BDNIPEND@?$AAe?$AAs?$AA?9?$AAC?$AAL@ 0000000180144858     libucrt:lcidtoname_downlevel.obj
 0002:0000a868       ??_C@_1M@MPNMEKBD@?$AAa?$AAr?$AA?9?$AAA?$AAE@ 0000000180144868     libucrt:lcidtoname_downlevel.obj
 0002:0000a878       ??_C@_1M@KBJALCPI@?$AAe?$AAs?$AA?9?$AAU?$AAY@ 0000000180144878     libucrt:lcidtoname_downlevel.obj
 0002:0000a888       ??_C@_1M@LLCCOAGA@?$AAa?$AAr?$AA?9?$AAB?$AAH@ 0000000180144888     libucrt:lcidtoname_downlevel.obj
 0002:0000a898       ??_C@_1M@PBFNCDEL@?$AAe?$AAs?$AA?9?$AAP?$AAY@ 0000000180144898     libucrt:lcidtoname_downlevel.obj
 0002:0000a8a8       ??_C@_1M@EDGINPNP@?$AAa?$AAr?$AA?9?$AAQ?$AAA@ 00000001801448a8     libucrt:lcidtoname_downlevel.obj
 0002:0000a8b8       ??_C@_1M@MKDBIIJI@?$AAe?$AAs?$AA?9?$AAB?$AAO@ 00000001801448b8     libucrt:lcidtoname_downlevel.obj
 0002:0000a8c8       ??_C@_1M@CPKKEBLD@?$AAe?$AAs?$AA?9?$AAS?$AAV@ 00000001801448c8     libucrt:lcidtoname_downlevel.obj
 0002:0000a8d8       ??_C@_1M@NDBGMMJL@?$AAe?$AAs?$AA?9?$AAH?$AAN@ 00000001801448d8     libucrt:lcidtoname_downlevel.obj
 0002:0000a8e8       ??_C@_1M@JIJIBHDP@?$AAe?$AAs?$AA?9?$AAN?$AAI@ 00000001801448e8     libucrt:lcidtoname_downlevel.obj
 0002:0000a8f8       ??_C@_1M@CGFMKEEK@?$AAe?$AAs?$AA?9?$AAP?$AAR@ 00000001801448f8     libucrt:lcidtoname_downlevel.obj
 0002:0000a908       ??_C@_1O@ICJHKIIK@?$AAz?$AAh?$AA?9?$AAC?$AAH?$AAT@ 0000000180144908     libucrt:lcidtoname_downlevel.obj
 0002:0000a918       ??_C@_15CLNEJCE@?$AAs?$AAr@ 0000000180144918     libucrt:lcidtoname_downlevel.obj
 0002:0000b760       ??_C@_1M@KAHEKEIG@?$AAa?$AAf?$AA?9?$AAz?$AAa@ 0000000180145760     libucrt:lcidtoname_downlevel.obj
 0002:0000b770       ??_C@_1M@GIECOABL@?$AAa?$AAr?$AA?9?$AAa?$AAe@ 0000000180145770     libucrt:lcidtoname_downlevel.obj
 0002:0000b780       ??_C@_1M@BMLMEKGI@?$AAa?$AAr?$AA?9?$AAb?$AAh@ 0000000180145780     libucrt:lcidtoname_downlevel.obj
 0002:0000b790       ??_C@_1M@DAPFDGGB@?$AAa?$AAr?$AA?9?$AAd?$AAz@ 0000000180145790     libucrt:lcidtoname_downlevel.obj
 0002:0000b7a0       ??_C@_1M@FJNKGKIG@?$AAa?$AAr?$AA?9?$AAe?$AAg@ 00000001801457a0     libucrt:lcidtoname_downlevel.obj
 0002:0000b7b0       ??_C@_1M@FLGKKCLO@?$AAa?$AAr?$AA?9?$AAi?$AAq@ 00000001801457b0     libucrt:lcidtoname_downlevel.obj
 0002:0000b7c0       ??_C@_1M@GNDIPALM@?$AAa?$AAr?$AA?9?$AAj?$AAo@ 00000001801457c0     libucrt:lcidtoname_downlevel.obj
 0002:0000b7d0       ??_C@_1M@DDMJFMGJ@?$AAa?$AAr?$AA?9?$AAk?$AAw@ 00000001801457d0     libucrt:lcidtoname_downlevel.obj
 0002:0000b7e0       ??_C@_1M@EJALMLHM@?$AAa?$AAr?$AA?9?$AAl?$AAb@ 00000001801457e0     libucrt:lcidtoname_downlevel.obj
 0002:0000b7f0       ??_C@_1M@MOBDBLOC@?$AAa?$AAr?$AA?9?$AAl?$AAy@ 00000001801457f0     libucrt:lcidtoname_downlevel.obj
 0002:0000b800       ??_C@_1M@JAOCLHDH@?$AAa?$AAr?$AA?9?$AAm?$AAa@ 0000000180145800     libucrt:lcidtoname_downlevel.obj
 0002:0000b810       ??_C@_1M@JHPMKJIE@?$AAa?$AAr?$AA?9?$AAo?$AAm@ 0000000180145810     libucrt:lcidtoname_downlevel.obj
 0002:0000b820       ??_C@_1M@OEPGHFNH@?$AAa?$AAr?$AA?9?$AAq?$AAa@ 0000000180145820     libucrt:lcidtoname_downlevel.obj
 0002:0000b830       ??_C@_1M@KJDONENM@?$AAa?$AAr?$AA?9?$AAs?$AAa@ 0000000180145830     libucrt:lcidtoname_downlevel.obj
 0002:0000b840       ??_C@_1M@DMJDKLKM@?$AAa?$AAr?$AA?9?$AAs?$AAy@ 0000000180145840     libucrt:lcidtoname_downlevel.obj
 0002:0000b850       ??_C@_1M@OMFIPEDC@?$AAa?$AAr?$AA?9?$AAt?$AAn@ 0000000180145850     libucrt:lcidtoname_downlevel.obj
 0002:0000b860       ??_C@_1M@IHMHGAON@?$AAa?$AAr?$AA?9?$AAy?$AAe@ 0000000180145860     libucrt:lcidtoname_downlevel.obj
 0002:0000b870       ??_C@_1BG@KDCPGJGB@?$AAa?$AAz?$AA?9?$AAa?$AAz?$AA?9?$AAc?$AAy?$AAr?$AAl@ 0000000180145870     libucrt:lcidtoname_downlevel.obj
 0002:0000b888       ??_C@_1BG@IBCKDDOE@?$AAa?$AAz?$AA?9?$AAa?$AAz?$AA?9?$AAl?$AAa?$AAt?$AAn@ 0000000180145888     libucrt:lcidtoname_downlevel.obj
 0002:0000b8a0       ??_C@_1M@EGPFDCPD@?$AAb?$AAe?$AA?9?$AAb?$AAy@ 00000001801458a0     libucrt:lcidtoname_downlevel.obj
 0002:0000b8b0       ??_C@_1M@PCMGMCGC@?$AAb?$AAg?$AA?9?$AAb?$AAg@ 00000001801458b0     libucrt:lcidtoname_downlevel.obj
 0002:0000b8c0       ??_C@_1M@BJBMFGOB@?$AAb?$AAn?$AA?9?$AAi?$AAn@ 00000001801458c0     libucrt:lcidtoname_downlevel.obj
 0002:0000b8d0       ??_C@_1BG@EAKMMACD@?$AAb?$AAs?$AA?9?$AAb?$AAa?$AA?9?$AAl?$AAa?$AAt?$AAn@ 00000001801458d0     libucrt:lcidtoname_downlevel.obj
 0002:0000b8e8       ??_C@_1M@KGADAODK@?$AAc?$AAa?$AA?9?$AAe?$AAs@ 00000001801458e8     libucrt:lcidtoname_downlevel.obj
 0002:0000b8f8       ??_C@_1M@COAJPDHI@?$AAc?$AAs?$AA?9?$AAc?$AAz@ 00000001801458f8     libucrt:lcidtoname_downlevel.obj
 0002:0000b908       ??_C@_1M@DHBHFONH@?$AAc?$AAy?$AA?9?$AAg?$AAb@ 0000000180145908     libucrt:lcidtoname_downlevel.obj
 0002:0000b918       ??_C@_1M@IMGKELGA@?$AAd?$AAa?$AA?9?$AAd?$AAk@ 0000000180145918     libucrt:lcidtoname_downlevel.obj
 0002:0000b928       ??_C@_1M@NNDGDNGA@?$AAd?$AAe?$AA?9?$AAa?$AAt@ 0000000180145928     libucrt:lcidtoname_downlevel.obj
 0002:0000b938       ??_C@_1M@IKDBHEEM@?$AAd?$AAe?$AA?9?$AAc?$AAh@ 0000000180145938     libucrt:lcidtoname_downlevel.obj
 0002:0000b948       ??_C@_1M@GFFOJMCJ@?$AAd?$AAe?$AA?9?$AAd?$AAe@ 0000000180145948     libucrt:lcidtoname_downlevel.obj
 0002:0000b958       ??_C@_1M@MDNLKBPM@?$AAd?$AAe?$AA?9?$AAl?$AAi@ 0000000180145958     libucrt:lcidtoname_downlevel.obj
 0002:0000b968       ??_C@_1M@NJBEEJNL@?$AAd?$AAe?$AA?9?$AAl?$AAu@ 0000000180145968     libucrt:lcidtoname_downlevel.obj
 0002:0000b978       ??_C@_1O@GNNELBAP@?$AAd?$AAi?$AAv?$AA?9?$AAm?$AAv@ 0000000180145978     libucrt:lcidtoname_downlevel.obj
 0002:0000b988       ??_C@_1M@EJLEOGAE@?$AAe?$AAl?$AA?9?$AAg?$AAr@ 0000000180145988     libucrt:lcidtoname_downlevel.obj
 0002:0000b998       ??_C@_1M@GMPONJN@?$AAe?$AAn?$AA?9?$AAa?$AAu@ 0000000180145998     libucrt:lcidtoname_downlevel.obj
 0002:0000b9a8       ??_C@_1M@NIDIIPGF@?$AAe?$AAn?$AA?9?$AAb?$AAz@ 00000001801459a8     libucrt:lcidtoname_downlevel.obj
 0002:0000b9b8       ??_C@_1M@JEHMIMFO@?$AAe?$AAn?$AA?9?$AAc?$AAa@ 00000001801459b8     libucrt:lcidtoname_downlevel.obj
 0002:0000b9c8       ??_C@_1M@IGMJCDLA@?$AAe?$AAn?$AA?9?$AAc?$AAb@ 00000001801459c8     libucrt:lcidtoname_downlevel.obj
 0002:0000b9d8       ??_C@_1M@BNFIGBKG@?$AAe?$AAn?$AA?9?$AAg?$AAb@ 00000001801459d8     libucrt:lcidtoname_downlevel.obj
 0002:0000b9e8       ??_C@_1M@LKIFDIGP@?$AAe?$AAn?$AA?9?$AAi?$AAe@ 00000001801459e8     libucrt:lcidtoname_downlevel.obj
 0002:0000b9f8       ??_C@_1M@PJKFGCCO@?$AAe?$AAn?$AA?9?$AAj?$AAm@ 00000001801459f8     libucrt:lcidtoname_downlevel.obj
 0002:0000ba08       ??_C@_1M@KPPKEPBO@?$AAe?$AAn?$AA?9?$AAn?$AAz@ 0000000180145a08     libucrt:lcidtoname_downlevel.obj
 0002:0000ba18       ??_C@_1M@GMDGLDOB@?$AAe?$AAn?$AA?9?$AAp?$AAh@ 0000000180145a18     libucrt:lcidtoname_downlevel.obj
 0002:0000ba28       ??_C@_1M@ONGIBJNA@?$AAe?$AAn?$AA?9?$AAt?$AAt@ 0000000180145a28     libucrt:lcidtoname_downlevel.obj
 0002:0000ba38       ??_C@_1M@LLODPCMM@?$AAe?$AAn?$AA?9?$AAu?$AAs@ 0000000180145a38     libucrt:lcidtoname_downlevel.obj
 0002:0000ba48       ??_C@_1M@LAKFNPAN@?$AAe?$AAn?$AA?9?$AAz?$AAa@ 0000000180145a48     libucrt:lcidtoname_downlevel.obj
 0002:0000ba58       ??_C@_1M@MFNHNHEO@?$AAe?$AAn?$AA?9?$AAz?$AAw@ 0000000180145a58     libucrt:lcidtoname_downlevel.obj
 0002:0000ba68       ??_C@_1M@EJEINPHM@?$AAe?$AAs?$AA?9?$AAa?$AAr@ 0000000180145a68     libucrt:lcidtoname_downlevel.obj
 0002:0000ba78       ??_C@_1M@GNKPCCJA@?$AAe?$AAs?$AA?9?$AAb?$AAo@ 0000000180145a78     libucrt:lcidtoname_downlevel.obj
 0002:0000ba88       ??_C@_1M@LEEGFONL@?$AAe?$AAs?$AA?9?$AAc?$AAl@ 0000000180145a88     libucrt:lcidtoname_downlevel.obj
 0002:0000ba98       ??_C@_1M@KGPDPBDF@?$AAe?$AAs?$AA?9?$AAc?$AAo@ 0000000180145a98     libucrt:lcidtoname_downlevel.obj
 0002:0000baa8       ??_C@_1M@EIAHOHH@?$AAe?$AAs?$AA?9?$AAc?$AAr@ 0000000180145aa8     libucrt:lcidtoname_downlevel.obj
 0002:0000bab8       ??_C@_1M@LLPGMBIN@?$AAe?$AAs?$AA?9?$AAd?$AAo@ 0000000180145ab8     libucrt:lcidtoname_downlevel.obj
 0002:0000bac8       ??_C@_1M@DKHMKNJA@?$AAe?$AAs?$AA?9?$AAe?$AAc@ 0000000180145ac8     libucrt:lcidtoname_downlevel.obj
 0002:0000bad8       ??_C@_1M@GKGFPKAP@?$AAe?$AAs?$AA?9?$AAe?$AAs@ 0000000180145ad8     libucrt:lcidtoname_downlevel.obj
 0002:0000bae8       ??_C@_1M@LKHKGDLN@?$AAe?$AAs?$AA?9?$AAg?$AAt@ 0000000180145ae8     libucrt:lcidtoname_downlevel.obj
 0002:0000baf8       ??_C@_1M@HEIIGGJD@?$AAe?$AAs?$AA?9?$AAh?$AAn@ 0000000180145af8     libucrt:lcidtoname_downlevel.obj
 0002:0000bb08       ??_C@_1M@FBDHPPGD@?$AAe?$AAs?$AA?9?$AAm?$AAx@ 0000000180145b08     libucrt:lcidtoname_downlevel.obj
 0002:0000bb18       ??_C@_1M@DPAGLNDH@?$AAe?$AAs?$AA?9?$AAn?$AAi@ 0000000180145b18     libucrt:lcidtoname_downlevel.obj
 0002:0000bb28       ??_C@_1M@MDGOPGDD@?$AAe?$AAs?$AA?9?$AAp?$AAa@ 0000000180145b28     libucrt:lcidtoname_downlevel.obj
 0002:0000bb38       ??_C@_1M@EMAMGBGE@?$AAe?$AAs?$AA?9?$AAp?$AAe@ 0000000180145b38     libucrt:lcidtoname_downlevel.obj
 0002:0000bb48       ??_C@_1M@IBMCAOEC@?$AAe?$AAs?$AA?9?$AAp?$AAr@ 0000000180145b48     libucrt:lcidtoname_downlevel.obj
 0002:0000bb58       ??_C@_1M@FGMDIJED@?$AAe?$AAs?$AA?9?$AAp?$AAy@ 0000000180145b58     libucrt:lcidtoname_downlevel.obj
 0002:0000bb68       ??_C@_1M@IIDEOLLL@?$AAe?$AAs?$AA?9?$AAs?$AAv@ 0000000180145b68     libucrt:lcidtoname_downlevel.obj
 0002:0000bb78       ??_C@_1M@GAOBIPA@?$AAe?$AAs?$AA?9?$AAu?$AAy@ 0000000180145b78     libucrt:lcidtoname_downlevel.obj
 0002:0000bb88       ??_C@_1M@JKFFICHJ@?$AAe?$AAs?$AA?9?$AAv?$AAe@ 0000000180145b88     libucrt:lcidtoname_downlevel.obj
 0002:0000bb98       ??_C@_1M@PNMLOJDF@?$AAe?$AAt?$AA?9?$AAe?$AAe@ 0000000180145b98     libucrt:lcidtoname_downlevel.obj
 0002:0000bba8       ??_C@_1M@GHHLIKEI@?$AAe?$AAu?$AA?9?$AAe?$AAs@ 0000000180145ba8     libucrt:lcidtoname_downlevel.obj
 0002:0000bbb8       ??_C@_1M@PBNONODE@?$AAf?$AAa?$AA?9?$AAi?$AAr@ 0000000180145bb8     libucrt:lcidtoname_downlevel.obj
 0002:0000bbc8       ??_C@_1M@JEEHPMIL@?$AAf?$AAi?$AA?9?$AAf?$AAi@ 0000000180145bc8     libucrt:lcidtoname_downlevel.obj
 0002:0000bbd8       ??_C@_1M@LMDCNDBA@?$AAf?$AAo?$AA?9?$AAf?$AAo@ 0000000180145bd8     libucrt:lcidtoname_downlevel.obj
 0002:0000bbe8       ??_C@_1M@JKEOHLDK@?$AAf?$AAr?$AA?9?$AAb?$AAe@ 0000000180145be8     libucrt:lcidtoname_downlevel.obj
 0002:0000bbf8       ??_C@_1M@NOHADPMI@?$AAf?$AAr?$AA?9?$AAc?$AAa@ 0000000180145bf8     libucrt:lcidtoname_downlevel.obj
 0002:0000bc08       ??_C@_1M@KDHIHAEC@?$AAf?$AAr?$AA?9?$AAc?$AAh@ 0000000180145c08     libucrt:lcidtoname_downlevel.obj
 0002:0000bc18       ??_C@_1M@MMBBFGAK@?$AAf?$AAr?$AA?9?$AAf?$AAr@ 0000000180145c18     libucrt:lcidtoname_downlevel.obj
 0002:0000bc28       ??_C@_1M@PAFNENNF@?$AAf?$AAr?$AA?9?$AAl?$AAu@ 0000000180145c28     libucrt:lcidtoname_downlevel.obj
 0002:0000bc38       ??_C@_1M@EOHDJGDD@?$AAf?$AAr?$AA?9?$AAm?$AAc@ 0000000180145c38     libucrt:lcidtoname_downlevel.obj
 0002:0000bc48       ??_C@_1M@FAPLLOPF@?$AAg?$AAl?$AA?9?$AAe?$AAs@ 0000000180145c48     libucrt:lcidtoname_downlevel.obj
 0002:0000bc58       ??_C@_1M@FOPBFLOO@?$AAg?$AAu?$AA?9?$AAi?$AAn@ 0000000180145c58     libucrt:lcidtoname_downlevel.obj
 0002:0000bc68       ??_C@_1M@KBMCINPM@?$AAh?$AAe?$AA?9?$AAi?$AAl@ 0000000180145c68     libucrt:lcidtoname_downlevel.obj
 0002:0000bc78       ??_C@_1M@BBPHKFPJ@?$AAh?$AAi?$AA?9?$AAi?$AAn@ 0000000180145c78     libucrt:lcidtoname_downlevel.obj
 0002:0000bc88       ??_C@_1M@PMBNDPHD@?$AAh?$AAr?$AA?9?$AAb?$AAa@ 0000000180145c88     libucrt:lcidtoname_downlevel.obj
 0002:0000bc98       ??_C@_1M@BPCKOEGE@?$AAh?$AAr?$AA?9?$AAh?$AAr@ 0000000180145c98     libucrt:lcidtoname_downlevel.obj
 0002:0000bca8       ??_C@_1M@GACBMHKE@?$AAh?$AAu?$AA?9?$AAh?$AAu@ 0000000180145ca8     libucrt:lcidtoname_downlevel.obj
 0002:0000bcb8       ??_C@_1M@MILPAJJC@?$AAh?$AAy?$AA?9?$AAa?$AAm@ 0000000180145cb8     libucrt:lcidtoname_downlevel.obj
 0002:0000bcc8       ??_C@_1M@BABBICEC@?$AAi?$AAd?$AA?9?$AAi?$AAd@ 0000000180145cc8     libucrt:lcidtoname_downlevel.obj
 0002:0000bcd8       ??_C@_1M@BIKNHHPF@?$AAi?$AAs?$AA?9?$AAi?$AAs@ 0000000180145cd8     libucrt:lcidtoname_downlevel.obj
 0002:0000bce8       ??_C@_1M@NMPCJPHE@?$AAi?$AAt?$AA?9?$AAc?$AAh@ 0000000180145ce8     libucrt:lcidtoname_downlevel.obj
 0002:0000bcf8       ??_C@_1M@GHKGFEDF@?$AAi?$AAt?$AA?9?$AAi?$AAt@ 0000000180145cf8     libucrt:lcidtoname_downlevel.obj
 0002:0000bd08       ??_C@_1M@NIEJCJJA@?$AAj?$AAa?$AA?9?$AAj?$AAp@ 0000000180145d08     libucrt:lcidtoname_downlevel.obj
 0002:0000bd18       ??_C@_1M@JILFNBIM@?$AAk?$AAa?$AA?9?$AAg?$AAe@ 0000000180145d18     libucrt:lcidtoname_downlevel.obj
 0002:0000bd28       ??_C@_1M@PACPMGPH@?$AAk?$AAk?$AA?9?$AAk?$AAz@ 0000000180145d28     libucrt:lcidtoname_downlevel.obj
 0002:0000bd38       ??_C@_1M@IELFGMHA@?$AAk?$AAn?$AA?9?$AAi?$AAn@ 0000000180145d38     libucrt:lcidtoname_downlevel.obj
 0002:0000bd48       ??_C@_1O@IBBJHCH@?$AAk?$AAo?$AAk?$AA?9?$AAi?$AAn@ 0000000180145d48     libucrt:lcidtoname_downlevel.obj
 0002:0000bd58       ??_C@_1M@DMHAEOGC@?$AAk?$AAo?$AA?9?$AAk?$AAr@ 0000000180145d58     libucrt:lcidtoname_downlevel.obj
 0002:0000bd68       ??_C@_1M@HBAHBIGA@?$AAk?$AAy?$AA?9?$AAk?$AAg@ 0000000180145d68     libucrt:lcidtoname_downlevel.obj
 0002:0000bd78       ??_C@_1M@KPMILCJG@?$AAl?$AAt?$AA?9?$AAl?$AAt@ 0000000180145d78     libucrt:lcidtoname_downlevel.obj
 0002:0000bd88       ??_C@_1M@BDEKKCA@?$AAl?$AAv?$AA?9?$AAl?$AAv@ 0000000180145d88     libucrt:lcidtoname_downlevel.obj
 0002:0000bd98       ??_C@_1M@ELCKCCJJ@?$AAm?$AAi?$AA?9?$AAn?$AAz@ 0000000180145d98     libucrt:lcidtoname_downlevel.obj
 0002:0000bda8       ??_C@_1M@CBOOLAPA@?$AAm?$AAk?$AA?9?$AAm?$AAk@ 0000000180145da8     libucrt:lcidtoname_downlevel.obj
 0002:0000bdb8       ??_C@_1M@GPHNBJKN@?$AAm?$AAl?$AA?9?$AAi?$AAn@ 0000000180145db8     libucrt:lcidtoname_downlevel.obj
 0002:0000bdc8       ??_C@_1M@PABJILIG@?$AAm?$AAn?$AA?9?$AAm?$AAn@ 0000000180145dc8     libucrt:lcidtoname_downlevel.obj
 0002:0000bdd8       ??_C@_1M@FGBKKIPG@?$AAm?$AAr?$AA?9?$AAi?$AAn@ 0000000180145dd8     libucrt:lcidtoname_downlevel.obj
 0002:0000bde8       ??_C@_1M@NDBPDDAL@?$AAm?$AAs?$AA?9?$AAb?$AAn@ 0000000180145de8     libucrt:lcidtoname_downlevel.obj
 0002:0000bdf8       ??_C@_1M@OPIHOOPI@?$AAm?$AAs?$AA?9?$AAm?$AAy@ 0000000180145df8     libucrt:lcidtoname_downlevel.obj
 0002:0000be08       ??_C@_1M@PPDBCNFM@?$AAm?$AAt?$AA?9?$AAm?$AAt@ 0000000180145e08     libucrt:lcidtoname_downlevel.obj
 0002:0000be18       ??_C@_1M@KDJDKMDD@?$AAn?$AAb?$AA?9?$AAn?$AAo@ 0000000180145e18     libucrt:lcidtoname_downlevel.obj
 0002:0000be28       ??_C@_1M@KFCFLMJP@?$AAn?$AAl?$AA?9?$AAb?$AAe@ 0000000180145e28     libucrt:lcidtoname_downlevel.obj
 0002:0000be38       ??_C@_1M@KPOPDDGO@?$AAn?$AAl?$AA?9?$AAn?$AAl@ 0000000180145e38     libucrt:lcidtoname_downlevel.obj
 0002:0000be48       ??_C@_1M@LJKPEMLN@?$AAn?$AAn?$AA?9?$AAn?$AAo@ 0000000180145e48     libucrt:lcidtoname_downlevel.obj
 0002:0000be58       ??_C@_1M@BDGHHBFL@?$AAn?$AAs?$AA?9?$AAz?$AAa@ 0000000180145e58     libucrt:lcidtoname_downlevel.obj
 0002:0000be68       ??_C@_1M@IDEHOAP@?$AAp?$AAa?$AA?9?$AAi?$AAn@ 0000000180145e68     libucrt:lcidtoname_downlevel.obj
 0002:0000be78       ??_C@_1M@HDBKGOGH@?$AAp?$AAl?$AA?9?$AAp?$AAl@ 0000000180145e78     libucrt:lcidtoname_downlevel.obj
 0002:0000be88       ??_C@_1M@LJLLCMEH@?$AAp?$AAt?$AA?9?$AAb?$AAr@ 0000000180145e88     libucrt:lcidtoname_downlevel.obj
 0002:0000be98       ??_C@_1M@NCMONAAL@?$AAp?$AAt?$AA?9?$AAp?$AAt@ 0000000180145e98     libucrt:lcidtoname_downlevel.obj
 0002:0000bea8       ??_C@_1O@EAKMAJDN@?$AAq?$AAu?$AAz?$AA?9?$AAb?$AAo@ 0000000180145ea8     libucrt:lcidtoname_downlevel.obj
 0002:0000beb8       ??_C@_1O@BHHPIGDN@?$AAq?$AAu?$AAz?$AA?9?$AAe?$AAc@ 0000000180145eb8     libucrt:lcidtoname_downlevel.obj
 0002:0000bec8       ??_C@_1O@GBAPEKMJ@?$AAq?$AAu?$AAz?$AA?9?$AAp?$AAe@ 0000000180145ec8     libucrt:lcidtoname_downlevel.obj
 0002:0000bed8       ??_C@_1M@CLGLEFBO@?$AAr?$AAo?$AA?9?$AAr?$AAo@ 0000000180145ed8     libucrt:lcidtoname_downlevel.obj
 0002:0000bee8       ??_C@_1M@CEEDODME@?$AAr?$AAu?$AA?9?$AAr?$AAu@ 0000000180145ee8     libucrt:lcidtoname_downlevel.obj
 0002:0000bef8       ??_C@_1M@HPKKKMPP@?$AAs?$AAa?$AA?9?$AAi?$AAn@ 0000000180145ef8     libucrt:lcidtoname_downlevel.obj
 0002:0000bf08       ??_C@_1M@BKMAIGOJ@?$AAs?$AAe?$AA?9?$AAf?$AAi@ 0000000180145f08     libucrt:lcidtoname_downlevel.obj
 0002:0000bf18       ??_C@_1M@NDPIFLFI@?$AAs?$AAe?$AA?9?$AAn?$AAo@ 0000000180145f18     libucrt:lcidtoname_downlevel.obj
 0002:0000bf28       ??_C@_1M@DANKKHJ@?$AAs?$AAe?$AA?9?$AAs?$AAe@ 0000000180145f28     libucrt:lcidtoname_downlevel.obj
 0002:0000bf38       ??_C@_1M@PNBLONPJ@?$AAs?$AAk?$AA?9?$AAs?$AAk@ 0000000180145f38     libucrt:lcidtoname_downlevel.obj
 0002:0000bf48       ??_C@_1M@LFMODOAL@?$AAs?$AAl?$AA?9?$AAs?$AAi@ 0000000180145f48     libucrt:lcidtoname_downlevel.obj
 0002:0000bf58       ??_C@_1O@DFKOMPG@?$AAs?$AAm?$AAa?$AA?9?$AAn?$AAo@ 0000000180145f58     libucrt:lcidtoname_downlevel.obj
 0002:0000bf68       ??_C@_1O@NDKPBNNH@?$AAs?$AAm?$AAa?$AA?9?$AAs?$AAe@ 0000000180145f68     libucrt:lcidtoname_downlevel.obj
 0002:0000bf78       ??_C@_1O@PLLKBHAB@?$AAs?$AAm?$AAj?$AA?9?$AAn?$AAo@ 0000000180145f78     libucrt:lcidtoname_downlevel.obj
 0002:0000bf88       ??_C@_1O@CLEPOGCA@?$AAs?$AAm?$AAj?$AA?9?$AAs?$AAe@ 0000000180145f88     libucrt:lcidtoname_downlevel.obj
 0002:0000bf98       ??_C@_1O@DLGJGKMK@?$AAs?$AAm?$AAn?$AA?9?$AAf?$AAi@ 0000000180145f98     libucrt:lcidtoname_downlevel.obj
 0002:0000bfa8       ??_C@_1O@OJDJGAJC@?$AAs?$AAm?$AAs?$AA?9?$AAf?$AAi@ 0000000180145fa8     libucrt:lcidtoname_downlevel.obj
 0002:0000bfb8       ??_C@_1M@BOFOGHPB@?$AAs?$AAq?$AA?9?$AAa?$AAl@ 0000000180145fb8     libucrt:lcidtoname_downlevel.obj
 0002:0000bfc8       ??_C@_1BG@LJBBIPGB@?$AAs?$AAr?$AA?9?$AAb?$AAa?$AA?9?$AAc?$AAy?$AAr?$AAl@ 0000000180145fc8     libucrt:lcidtoname_downlevel.obj
 0002:0000bfe0       ??_C@_1BG@JLBENFOE@?$AAs?$AAr?$AA?9?$AAb?$AAa?$AA?9?$AAl?$AAa?$AAt?$AAn@ 0000000180145fe0     libucrt:lcidtoname_downlevel.obj
 0002:0000bff8       ??_C@_1BG@KODPNHE@?$AAs?$AAr?$AA?9?$AAs?$AAp?$AA?9?$AAc?$AAy?$AAr?$AAl@ 0000000180145ff8     libucrt:lcidtoname_downlevel.obj
 0002:0000c010       ??_C@_1BG@CIOGKHPB@?$AAs?$AAr?$AA?9?$AAs?$AAp?$AA?9?$AAl?$AAa?$AAt?$AAn@ 0000000180146010     libucrt:lcidtoname_downlevel.obj
 0002:0000c028       ??_C@_1M@NGFJLMAC@?$AAs?$AAv?$AA?9?$AAf?$AAi@ 0000000180146028     libucrt:lcidtoname_downlevel.obj
 0002:0000c038       ??_C@_1M@MPJEJAJC@?$AAs?$AAv?$AA?9?$AAs?$AAe@ 0000000180146038     libucrt:lcidtoname_downlevel.obj
 0002:0000c048       ??_C@_1M@MPNDHLFK@?$AAs?$AAw?$AA?9?$AAk?$AAe@ 0000000180146048     libucrt:lcidtoname_downlevel.obj
 0002:0000c058       ??_C@_1O@KOHBJJI@?$AAs?$AAy?$AAr?$AA?9?$AAs?$AAy@ 0000000180146058     libucrt:lcidtoname_downlevel.obj
 0002:0000c068       ??_C@_1M@LDCEFHA@?$AAt?$AAa?$AA?9?$AAi?$AAn@ 0000000180146068     libucrt:lcidtoname_downlevel.obj
 0002:0000c078       ??_C@_1M@CNJOFAK@?$AAt?$AAe?$AA?9?$AAi?$AAn@ 0000000180146078     libucrt:lcidtoname_downlevel.obj
 0002:0000c088       ??_C@_1M@GNAECACD@?$AAt?$AAh?$AA?9?$AAt?$AAh@ 0000000180146088     libucrt:lcidtoname_downlevel.obj
 0002:0000c098       ??_C@_1M@CHBIHOJO@?$AAt?$AAn?$AA?9?$AAz?$AAa@ 0000000180146098     libucrt:lcidtoname_downlevel.obj
 0002:0000c0a8       ??_C@_1M@GCCMIGPJ@?$AAt?$AAr?$AA?9?$AAt?$AAr@ 00000001801460a8     libucrt:lcidtoname_downlevel.obj
 0002:0000c0b8       ??_C@_1M@CELMCNBK@?$AAt?$AAt?$AA?9?$AAr?$AAu@ 00000001801460b8     libucrt:lcidtoname_downlevel.obj
 0002:0000c0c8       ??_C@_1M@KLMCELGA@?$AAu?$AAk?$AA?9?$AAu?$AAa@ 00000001801460c8     libucrt:lcidtoname_downlevel.obj
 0002:0000c0d8       ??_C@_1M@EPAJJAJF@?$AAu?$AAr?$AA?9?$AAp?$AAk@ 00000001801460d8     libucrt:lcidtoname_downlevel.obj
 0002:0000c0e8       ??_C@_1BG@GEGPMCDJ@?$AAu?$AAz?$AA?9?$AAu?$AAz?$AA?9?$AAc?$AAy?$AAr?$AAl@ 00000001801460e8     libucrt:lcidtoname_downlevel.obj
 0002:0000c100       ??_C@_1BG@EGGKJILM@?$AAu?$AAz?$AA?9?$AAu?$AAz?$AA?9?$AAl?$AAa?$AAt?$AAn@ 0000000180146100     libucrt:lcidtoname_downlevel.obj
 0002:0000c118       ??_C@_1M@GFOCLFF@?$AAv?$AAi?$AA?9?$AAv?$AAn@ 0000000180146118     libucrt:lcidtoname_downlevel.obj
 0002:0000c128       ??_C@_1M@CPAMEDFI@?$AAx?$AAh?$AA?9?$AAz?$AAa@ 0000000180146128     libucrt:lcidtoname_downlevel.obj
 0002:0000c138       ??_C@_1O@EBKIFIGN@?$AAz?$AAh?$AA?9?$AAc?$AAh?$AAs@ 0000000180146138     libucrt:lcidtoname_downlevel.obj
 0002:0000c148       ??_C@_1O@NMHPGANE@?$AAz?$AAh?$AA?9?$AAc?$AAh?$AAt@ 0000000180146148     libucrt:lcidtoname_downlevel.obj
 0002:0000c158       ??_C@_1M@LPINJOMC@?$AAz?$AAh?$AA?9?$AAc?$AAn@ 0000000180146158     libucrt:lcidtoname_downlevel.obj
 0002:0000c168       ??_C@_1M@OCJEJODD@?$AAz?$AAh?$AA?9?$AAh?$AAk@ 0000000180146168     libucrt:lcidtoname_downlevel.obj
 0002:0000c178       ??_C@_1M@DNDLJINH@?$AAz?$AAh?$AA?9?$AAm?$AAo@ 0000000180146178     libucrt:lcidtoname_downlevel.obj
 0002:0000c188       ??_C@_1M@MBFDNDND@?$AAz?$AAh?$AA?9?$AAs?$AAg@ 0000000180146188     libucrt:lcidtoname_downlevel.obj
 0002:0000c198       ??_C@_1M@IMEPLEPE@?$AAz?$AAh?$AA?9?$AAt?$AAw@ 0000000180146198     libucrt:lcidtoname_downlevel.obj
 0002:0000c1a8       ??_C@_1M@BBGHNHJP@?$AAz?$AAu?$AA?9?$AAz?$AAa@ 00000001801461a8     libucrt:lcidtoname_downlevel.obj
 0002:0000c1e0       ?large_power_data@?1??multiply_by_power_of_ten@__crt_strtox@@YA_NAEAUbig_integer@2@I@Z@4QBIB 00000001801461e0     libucrt:cfout.obj
 0002:0000caf0       ?large_power_indices@?1??multiply_by_power_of_ten@__crt_strtox@@YA_NAEAUbig_integer@2@I@Z@4QBUunpack_index@?1??12@YA_N0I@Z@B 0000000180146af0     libucrt:cfout.obj
 0002:0000cb88       ?small_powers_of_ten@?1??multiply_by_power_of_ten@__crt_strtox@@YA_NAEAUbig_integer@2@I@Z@4QBIB 0000000180146b88     libucrt:cfout.obj
 0002:0000cbac       ??_C@_01GBGANLPD@0@        0000000180146bac     libucrt:cfout.obj
 0002:0000cbb0       ??_C@_05DNEBIAHO@1?$CDINF@ 0000000180146bb0     libucrt:cfout.obj
 0002:0000cbb8       ??_C@_06IMKFLFPG@1?$CDQNAN@ 0000000180146bb8     libucrt:cfout.obj
 0002:0000cbc0       ??_C@_06PGGFOGJG@1?$CDSNAN@ 0000000180146bc0     libucrt:cfout.obj
 0002:0000cbc8       ??_C@_05PHHOCPM@1?$CDIND@  0000000180146bc8     libucrt:cfout.obj
 0002:0000cbd0       __real@3ff0000000000000    0000000180146bd0     libucrt:ceil.obj
 0002:0000ce30       ??_C@_1BA@BALFACEM@?$AAC?$AAO?$AAN?$AAO?$AAU?$AAT?$AA$@ 0000000180146e30     libucrt:initcon.obj
 0002:0000ce40       __log10_256_lead           0000000180146e40     libucrt:log10_256_lead_tail_table.obj
 0002:0000d650       __log10_256_tail           0000000180147650     libucrt:log10_256_lead_tail_table.obj
 0002:0000de60       __log_F_inv_qword          0000000180147e60     libucrt:log_f_inv_qword_table.obj
 0002:0000e700       ??_R4type_info@@6B@        0000000180148700     LIBCMT:std_type_info_static.obj
 0002:0000e728       ??_R3type_info@@8          0000000180148728     LIBCMT:std_type_info_static.obj
 0002:0000e740       ??_R2type_info@@8          0000000180148740     LIBCMT:std_type_info_static.obj
 0002:0000e750       ??_R1A@?0A@EA@type_info@@8 0000000180148750     LIBCMT:std_type_info_static.obj
 0002:0000e778       ??_R3DNameNode@@8          0000000180148778     libvcruntime:undname.obj
 0002:0000e790       ??_R2DNameNode@@8          0000000180148790     libvcruntime:undname.obj
 0002:0000e7a0       ??_R1A@?0A@EA@DNameNode@@8 00000001801487a0     libvcruntime:undname.obj
 0002:0000e7c8       ??_R4charNode@@6B@         00000001801487c8     libvcruntime:undname.obj
 0002:0000e7f0       ??_R3charNode@@8           00000001801487f0     libvcruntime:undname.obj
 0002:0000e808       ??_R2charNode@@8           0000000180148808     libvcruntime:undname.obj
 0002:0000e820       ??_R1A@?0A@EA@charNode@@8  0000000180148820     libvcruntime:undname.obj
 0002:0000e848       ??_R4pcharNode@@6B@        0000000180148848     libvcruntime:undname.obj
 0002:0000e870       ??_R3pcharNode@@8          0000000180148870     libvcruntime:undname.obj
 0002:0000e888       ??_R2pcharNode@@8          0000000180148888     libvcruntime:undname.obj
 0002:0000e8a0       ??_R1A@?0A@EA@pcharNode@@8 00000001801488a0     libvcruntime:undname.obj
 0002:0000e8c8       ??_R4pDNameNode@@6B@       00000001801488c8     libvcruntime:undname.obj
 0002:0000e8f0       ??_R3pDNameNode@@8         00000001801488f0     libvcruntime:undname.obj
 0002:0000e908       ??_R2pDNameNode@@8         0000000180148908     libvcruntime:undname.obj
 0002:0000e920       ??_R1A@?0A@EA@pDNameNode@@8 0000000180148920     libvcruntime:undname.obj
 0002:0000e948       ??_R4DNameStatusNode@@6B@  0000000180148948     libvcruntime:undname.obj
 0002:0000e970       ??_R3DNameStatusNode@@8    0000000180148970     libvcruntime:undname.obj
 0002:0000e988       ??_R2DNameStatusNode@@8    0000000180148988     libvcruntime:undname.obj
 0002:0000e9a0       ??_R1A@?0A@EA@DNameStatusNode@@8 00000001801489a0     libvcruntime:undname.obj
 0002:0000e9c8       ??_R4pairNode@@6B@         00000001801489c8     libvcruntime:undname.obj
 0002:0000e9f0       ??_R3pairNode@@8           00000001801489f0     libvcruntime:undname.obj
 0002:0000ea08       ??_R2pairNode@@8           0000000180148a08     libvcruntime:undname.obj
 0002:0000ea20       ??_R1A@?0A@EA@pairNode@@8  0000000180148a20     libvcruntime:undname.obj
 0002:0000ea48       ??_R4exception@std@@6B@    0000000180148a48     libvcruntime:frame.obj
 0002:0000ea70       ??_R3exception@std@@8      0000000180148a70     libvcruntime:frame.obj
 0002:0000ea88       ??_R2exception@std@@8      0000000180148a88     libvcruntime:frame.obj
 0002:0000ea98       ??_R1A@?0A@EA@exception@std@@8 0000000180148a98     libvcruntime:frame.obj
 0002:0000eac0       ??_R4bad_exception@std@@6B@ 0000000180148ac0     libvcruntime:frame.obj
 0002:0000eae8       ??_R3bad_exception@std@@8  0000000180148ae8     libvcruntime:frame.obj
 0002:0000eb00       ??_R2bad_exception@std@@8  0000000180148b00     libvcruntime:frame.obj
 0002:0000eb18       ??_R1A@?0A@EA@bad_exception@std@@8 0000000180148b18     libvcruntime:frame.obj
 0002:0000eb3c       __volatile_metadata        0000000180148b3c     <linker-defined>
 0002:0000f178       __rtc_iaa                  0000000180149178     LIBCMT:initsect.obj
 0002:0000f180       __rtc_izz                  0000000180149180     LIBCMT:initsect.obj
 0002:0000f188       __rtc_taa                  0000000180149188     LIBCMT:initsect.obj
 0002:0000f190       __rtc_tzz                  0000000180149190     LIBCMT:initsect.obj
 0002:0001ba58       _TI2?AVbad_exception@std@@ 0000000180155a58     libvcruntime:frame.obj
 0002:0001ba78       _CTA2?AVbad_exception@std@@ 0000000180155a78     libvcruntime:frame.obj
 0002:0001ba90       _CT??_R0?AVbad_exception@std@@@8??0bad_exception@std@@QEAA@AEBV01@@Z24 0000000180155a90     libvcruntime:frame.obj
 0002:0001bab8       _CT??_R0?AVexception@std@@@8??0exception@std@@QEAA@AEBV01@@Z24 0000000180155ab8     libvcruntime:frame.obj
 0002:0001badc       __DELAY_IMPORT_DESCRIPTOR_physxfoundation_64_dll 0000000180155adc     PhysXFoundation_64:PhysXFoundation_64.dll
 0002:0001bafc       __NULL_DELAY_IMPORT_DESCRIPTOR 0000000180155afc     PhysXFoundation_64:PhysXFoundation_64.dll
 0002:0001bba0       \177PhysXFoundation_64_NULL_THUNK_DATA_DLN 0000000180155ba0     PhysXFoundation_64:PhysXFoundation_64.dll
 0002:0001bec8       \177PhysXFoundation_64_NULL_THUNK_DATA_DLB 0000000180155ec8     PhysXFoundation_64:PhysXFoundation_64.dll
 0002:0002602c       __IMPORT_DESCRIPTOR_KERNEL32 000000018016002c     kernel32:KERNEL32.dll
 0002:00026040       __NULL_IMPORT_DESCRIPTOR   0000000180160040     kernel32:KERNEL32.dll
 0003:00000000       __pfnDliNotifyHook2        0000000180161000     CmWindowsDelayLoadHook.obj
 0003:00000020       ?gGeomMTDMethodTable@@3PAY06P6A_NAEAVPxVec3@physx@@AEAMAEBVPxGeometry@2@AEBVPxTransform@2@23@ZA 0000000180161020     GuMTD.obj
 0003:000001b0       ?gGeomOverlapMethodTable@@3PAY06P6A_NAEBVPxGeometry@physx@@AEBVPxTransform@2@01PEAUTriggerCache@Gu@2@@ZA 00000001801611b0     GuOverlapTests.obj
 0003:00000338       ?gRaycastMap@@3PAP6AIAEBVPxGeometry@physx@@AEBVPxTransform@2@AEBVPxVec3@2@2MV?$PxFlags@W4Enum@PxHitFlag@physx@@G@2@IPEIAUPxRaycastHit@2@@ZA 0000000180161338     GuRaycastTests.obj
 0003:00000370       ?gGeomSweepFuncs@@3UGeomSweepFuncs@Gu@physx@@A 0000000180161370     GuSweepTests.obj
 0003:00000490       ?g_SweepMethodTable@Gu@physx@@3PAY06P6AMAEBUCCDShape@12@0AEBVPxTransform@2@111MAEAVPxVec3@2@2MAEAIM@ZA 0000000180161490     GuCCDSweepPrimitives.obj
 0003:00000618       ?g_TriangleSweepMethodTable@Gu@physx@@3PAP6AMAEBVGeometryUnion@12@0AEBVPxTransform@2@111MAEAVPxVec3@2@2AEBVFastVertex2ShapeScaling@Cm@2@AEAVTriangleV@12@M@ZA 0000000180161618     GuCCDSweepPrimitives.obj
 0003:00000a14       _fltused                   0000000180161a14     LIBCMT:fltused.obj
 0003:00000a20       __isa_available            0000000180161a20     LIBCMT:cpu_disp.obj
 0003:00000a24       __isa_enabled              0000000180161a24     LIBCMT:cpu_disp.obj
 0003:00000a28       __memcpy_nt_iters          0000000180161a28     LIBCMT:cpu_disp.obj
 0003:00000a30       __memset_nt_iters          0000000180161a30     LIBCMT:cpu_disp.obj
 0003:00000a40       __scrt_native_dllmain_reason 0000000180161a40     LIBCMT:utility.obj
 0003:00000a48       __security_cookie_complement 0000000180161a48     LIBCMT:gs_cookie.obj
 0003:00000a50       __security_cookie          0000000180161a50     LIBCMT:gs_cookie.obj
 0003:00000a80       __abort_behavior           0000000180161a80     libucrt:abort.obj
 0003:00000ab0       __acrt_initial_multibyte_data 0000000180161ab0     libucrt:mbctype.obj
 0003:00000ff0       __acrt_initial_locale_data 0000000180161ff0     libucrt:nlsdata.obj
 0003:00001148       __acrt_initial_locale_pointers 0000000180162148     libucrt:nlsdata.obj
 0003:00001158       __acrt_wide_c_locale_string 0000000180162158     libucrt:nlsdata.obj
 0003:00001160       _iob                       0000000180162160     libucrt:_file.obj
 0003:00001270       __globallocalestatus       0000000180162270     libucrt:glstatus.obj
 0003:00001280       __acrt_lconv_c             0000000180162280     libucrt:localeconv.obj
 0003:00001318       __acrt_lconv_static_decimal 0000000180162318     libucrt:localeconv.obj
 0003:0000131c       __acrt_lconv_static_W_decimal 000000018016231c     libucrt:localeconv.obj
 0003:00001320       _lookuptrailbytes          0000000180162320     libucrt:read.obj
 0003:00001430       ??_R0?AVCollection@Cm@physx@@@8 0000000180162430     CmCollection.obj
 0003:00001460       ??_R0D@8                   0000000180162460     CmRenderOutput.obj
 0003:00001478       ??_R0?AUPxDebugText@physx@@@8 0000000180162478     CmRenderOutput.obj
 0003:000014a0       ??_R0?AUPxDebugTriangle@physx@@@8 00000001801624a0     CmRenderOutput.obj
 0003:000014d0       ??_R0?AUPxDebugLine@physx@@@8 00000001801624d0     CmRenderOutput.obj
 0003:000014f8       ??_R0?AUPxDebugPoint@physx@@@8 00000001801624f8     CmRenderOutput.obj
 0003:00001528       ??_R0?AVMutexImpl@shdfnd@physx@@@8 0000000180162528     GuMeshFactory.obj
 0003:00001558       ??_R0?AVBVHStructure@Gu@physx@@@8 0000000180162558     GuMeshFactory.obj
 0003:00001588       ??_R0?AVHeightField@Gu@physx@@@8 0000000180162588     GuMeshFactory.obj
 0003:000015b8       ??_R0?AVConvexMesh@Gu@physx@@@8 00000001801625b8     GuMeshFactory.obj
 0003:000015e8       ??_R0?AVBV32Tree@Gu@physx@@@8 00000001801625e8     GuMeshFactory.obj
 0003:00001610       ??_R0?AVBV4TriangleData@Gu@physx@@@8 0000000180162610     GuMeshFactory.obj
 0003:00001640       ??_R0?AVRTreeTriangleData@Gu@physx@@@8 0000000180162640     GuMeshFactory.obj
 0003:00001678       ??_R0?AVBV4TriangleMesh@Gu@physx@@@8 0000000180162678     GuMeshFactory.obj
 0003:000016a8       ??_R0?AVRTreeTriangleMesh@Gu@physx@@@8 00000001801626a8     GuMeshFactory.obj
 0003:000016e0       ??_R0E@8                   00000001801626e0     GuMeshFactory.obj
 0003:000016f8       ??_R0G@8                   00000001801626f8     GuMeshFactory.obj
 0003:00001710       ??_R0I@8                   0000000180162710     GuMeshFactory.obj
 0003:00001728       ??_R0PEAVGuMeshFactoryListener@physx@@@8 0000000180162728     GuMeshFactory.obj
 0003:00001760       ??_R0?AVAABBTreeBuildNode@Gu@physx@@@8 0000000180162760     GuAABBTreeBuild.obj
 0003:00001798       ??_R0?AUSlab@NodeAllocator@Gu@physx@@@8 0000000180162798     GuAABBTreeBuild.obj
 0003:000017d0       ??_R0PEBUBVHNode@Gu@physx@@@8 00000001801627d0     GuBVHStructure.obj
 0003:000017f8       ??_R0?AVBigConvexData@physx@@@8 00000001801627f8     GuConvexMesh.obj
 0003:00001828       ??_R0?AVIndTri16@Gu@physx@@@8 0000000180162828     GuBV4.obj
 0003:00001850       ??_R0?AVIndTri32@Gu@physx@@@8 0000000180162850     GuBV4.obj
 0003:00001880       ??_R0?AU?$BVDataPackedT@VQuantizedAABB@Gu@physx@@@Gu@physx@@@8 0000000180162880     GuBV4Build.obj
 0003:000018d0       ??_R0?AUSlab@BV4BuildParams@@@8 00000001801628d0     GuBV4Build.obj
 0003:00001900       ??_R0?AVAABBTreeNode@Gu@physx@@@8 0000000180162900     GuBV4Build.obj
 0003:00001930       ??_R0?AUBV32Data@Gu@physx@@@8 0000000180162930     GuBV32Build.obj
 0003:00001958       ??_R0?AUBV32Node@@@8       0000000180162958     GuBV32Build.obj
 0003:00001978       ??_R0?AUSortedTriangle@Gu@physx@@@8 0000000180162978     GuPCMContactConvexCommon.obj
 0003:000019a8       ??_R0?AVbad_exception@std@@@8 00000001801629a8     libvcruntime:frame.obj
 0003:000019d0       ??_R0?AVexception@std@@@8  00000001801629d0     libvcruntime:frame.obj
 0003:000019f8       ??_R0?AVtype_info@@@8      00000001801629f8     LIBCMT:std_type_info_static.obj
 0003:00001a18       ??_R0?AVDNameNode@@@8      0000000180162a18     libvcruntime:undname.obj
 0003:00001a38       ??_R0?AVcharNode@@@8       0000000180162a38     libvcruntime:undname.obj
 0003:00001a58       ??_R0?AVpcharNode@@@8      0000000180162a58     libvcruntime:undname.obj
 0003:00001a78       ??_R0?AVpDNameNode@@@8     0000000180162a78     libvcruntime:undname.obj
 0003:00001aa0       ??_R0?AVDNameStatusNode@@@8 0000000180162aa0     libvcruntime:undname.obj
 0003:00001ac8       ??_R0?AVpairNode@@@8       0000000180162ac8     libvcruntime:undname.obj
 0003:00001ae8       __imp_PxGetFoundation      0000000180162ae8     PhysXFoundation_64:PhysXFoundation_64.dll
 0003:00001af0       __imp_?deallocate@TempAllocator@shdfnd@physx@@QEAAXPEAX@Z 0000000180162af0     PhysXFoundation_64:PhysXFoundation_64.dll
 0003:00001af8       __imp_?getAllocator@shdfnd@physx@@YAAEAVPxAllocatorCallback@2@XZ 0000000180162af8     PhysXFoundation_64:PhysXFoundation_64.dll
 0003:00001b00       __imp_?getInstance@Foundation@shdfnd@physx@@SAAEAV123@XZ 0000000180162b00     PhysXFoundation_64:PhysXFoundation_64.dll
 0003:00001b08       __imp_?error@Foundation@shdfnd@physx@@QEAAXW4Enum@PxErrorCode@3@PEBDH1ZZ 0000000180162b08     PhysXFoundation_64:PhysXFoundation_64.dll
 0003:00001b10       __imp_?vsnprintf@shdfnd@physx@@YAHPEAD_KPEBD0@Z 0000000180162b10     PhysXFoundation_64:PhysXFoundation_64.dll
 0003:00001b18       __imp_??0MutexImpl@shdfnd@physx@@QEAA@XZ 0000000180162b18     PhysXFoundation_64:PhysXFoundation_64.dll
 0003:00001b20       __imp_??1MutexImpl@shdfnd@physx@@QEAA@XZ 0000000180162b20     PhysXFoundation_64:PhysXFoundation_64.dll
 0003:00001b28       __imp_?lock@MutexImpl@shdfnd@physx@@QEAAXXZ 0000000180162b28     PhysXFoundation_64:PhysXFoundation_64.dll
 0003:00001b30       __imp_?unlock@MutexImpl@shdfnd@physx@@QEAAXXZ 0000000180162b30     PhysXFoundation_64:PhysXFoundation_64.dll
 0003:00001b38       __imp_?getSize@MutexImpl@shdfnd@physx@@SAIXZ 0000000180162b38     PhysXFoundation_64:PhysXFoundation_64.dll
 0003:00001b40       __imp_?atomicDecrement@shdfnd@physx@@YAHPECH@Z 0000000180162b40     PhysXFoundation_64:PhysXFoundation_64.dll
 0003:00001b48       __imp_?PxTransformFromSegment@physx@@YA?AVPxTransform@1@AEBVPxVec3@1@0PEAM@Z 0000000180162b48     PhysXFoundation_64:PhysXFoundation_64.dll
 0003:00001b50       __imp_?optimizeBoundingBox@shdfnd@physx@@YA?AVPxVec3@2@AEAVPxMat33@2@@Z 0000000180162b50     PhysXFoundation_64:PhysXFoundation_64.dll
 0003:00001b58       __imp_?allocate@TempAllocator@shdfnd@physx@@QEAAPEAX_KPEBDH@Z 0000000180162b58     PhysXFoundation_64:PhysXFoundation_64.dll
 0003:00001b60       __imp_?atomicIncrement@shdfnd@physx@@YAHPECH@Z 0000000180162b60     PhysXFoundation_64:PhysXFoundation_64.dll
 0003:00001b68       \177PhysXFoundation_64_NULL_THUNK_DATA_DLA 0000000180162b68     PhysXFoundation_64:PhysXFoundation_64.dll
 0003:00002900       ?boxVertexTable@physx@@3QBT__m128@@B 0000000180163900     GuConvexSupportTable.obj
 0003:00004450       __hmod__PhysXFoundation_64_dll 0000000180165450     PhysXFoundation_64:PhysXFoundation_64.dll
 0003:00004458       ?DloadKernel32@@3PEAUHINSTANCE__@@EA 0000000180165458     Delayimp:delayhlp.obj
 0003:00004460       ?DloadAcquireSRWLockExclusive@@3P6AXPEA_K@ZEA 0000000180165460     Delayimp:delayhlp.obj
 0003:00004468       ?DloadReleaseSRWLockExclusive@@3P6AXPEA_K@ZEA 0000000180165468     Delayimp:delayhlp.obj
 0003:00004470       ?DloadSrwLock@@3_KA        0000000180165470     Delayimp:delayhlp.obj
 0003:00004478       ?DloadSectionLockCount@@3KA 0000000180165478     Delayimp:delayhlp.obj
 0003:0000447c       ?DloadSectionOldProtection@@3KA 000000018016547c     Delayimp:delayhlp.obj
 0003:00004480       ?DloadSectionCommitPermanent@@3KA 0000000180165480     Delayimp:delayhlp.obj
 0003:00004490       ?__type_info_root_node@@3U__type_info_node@@A 0000000180165490     LIBCMT:tncleanup.obj
 0003:000044a8       __castguard_check_failure_os_handled_fptr 00000001801654a8     LIBCMT:guard_support.obj
 0003:000044b0       __favor                    00000001801654b0     LIBCMT:cpu_disp.obj
 0003:000044b8       ?_OptionsStorage@?1??__local_stdio_printf_options@@9@4_KA 00000001801654b8     LIBCMT:default_local_stdio_options.obj
 0003:000044c0       ?_OptionsStorage@?1??__local_stdio_scanf_options@@9@4_KA 00000001801654c0     LIBCMT:default_local_stdio_options.obj
 0003:000044c8       __scrt_current_native_startup_state 00000001801654c8     LIBCMT:utility.obj
 0003:000044d0       __scrt_native_startup_lock 00000001801654d0     LIBCMT:utility.obj
 0003:00004510       __scrt_debugger_hook_flag  0000000180165510     LIBCMT:utility_desktop.obj
 0003:00004518       ?__WinRTOutOfMemoryExceptionCallback@@3P6APEAXXZEA 0000000180165518     libvcruntime:ehhelpers.obj
 0003:00004520       __pPurecall                0000000180165520     libvcruntime:purevirt_data.obj
 0003:00004528       ?pArgList@UnDecorator@@0PEAVReplicator@@EA 0000000180165528     libvcruntime:undname.obj
 0003:00004530       ?pZNameList@UnDecorator@@0PEAVReplicator@@EA 0000000180165530     libvcruntime:undname.obj
 0003:00004538       ?pTemplateArgList@UnDecorator@@0PEAVReplicator@@EA 0000000180165538     libvcruntime:undname.obj
 0003:00004540       ?gName@UnDecorator@@0PEBDEB 0000000180165540     libvcruntime:undname.obj
 0003:00004548       ?name@UnDecorator@@0PEBDEB 0000000180165548     libvcruntime:undname.obj
 0003:00004550       ?disableFlags@UnDecorator@@0KA 0000000180165550     libvcruntime:undname.obj
 0003:00004554       ?fExplicitTemplateParams@UnDecorator@@0_NA 0000000180165554     libvcruntime:undname.obj
 0003:00004555       ?fGetTemplateArgumentList@UnDecorator@@0_NA 0000000180165555     libvcruntime:undname.obj
 0003:00004558       ?m_pGetParameter@UnDecorator@@0P6APEADJ@ZEA 0000000180165558     libvcruntime:undname.obj
 0003:00004560       ?m_CHPENameOffset@UnDecorator@@0KA 0000000180165560     libvcruntime:undname.obj
 0003:00004564       ?m_recursionLevel@UnDecorator@@0KA 0000000180165564     libvcruntime:undname.obj
 0003:000047a8       _environ_table             00000001801657a8     libucrt:environment_initialization.obj
 0003:000047b0       _wenviron_table            00000001801657b0     libucrt:environment_initialization.obj
 0003:000047b8       __dcrt_initial_wide_environment 00000001801657b8     libucrt:environment_initialization.obj
 0003:000047c0       __dcrt_initial_narrow_environment 00000001801657c0     libucrt:environment_initialization.obj
 0003:000047c8       __acrt_atexit_table        00000001801657c8     libucrt:onexit.obj
 0003:000047e0       __acrt_at_quick_exit_table 00000001801657e0     libucrt:onexit.obj
 0003:000047f8       __fma3_is_available        00000001801657f8     libucrt:fma3_available.obj
 0003:000047fc       __use_fma3_lib             00000001801657fc     libucrt:fma3_available.obj
 0003:00004a40       _mbctype                   0000000180165a40     libucrt:mbctype.obj
 0003:00004a48       _mbcasemap                 0000000180165a48     libucrt:mbctype.obj
 0003:00004a50       __acrt_current_multibyte_data 0000000180165a50     libucrt:mbctype.obj
 0003:00004a60       _pgmptr                    0000000180165a60     libucrt:argv_data.obj
 0003:00004a68       __argc                     0000000180165a68     libucrt:argv_data.obj
 0003:00004a70       __argv                     0000000180165a70     libucrt:argv_data.obj
 0003:00004a78       __wargv                    0000000180165a78     libucrt:argv_data.obj
 0003:00004a80       _acmdln                    0000000180165a80     libucrt:argv_data.obj
 0003:00004a88       _wcmdln                    0000000180165a88     libucrt:argv_data.obj
 0003:00004c38       __acrt_heap                0000000180165c38     libucrt:heap_handle.obj
 0003:00004c40       __pioinfo                  0000000180165c40     libucrt:ioinit.obj
 0003:00005040       _nhandle                   0000000180166040     libucrt:ioinit.obj
 0003:00005078       __acrt_current_locale_data 0000000180166078     libucrt:nlsdata.obj
 0003:00005080       _nstream                   0000000180166080     libucrt:_file.obj
 0003:00005088       __piob                     0000000180166088     libucrt:_file.obj
 0003:00005090       __acrt_stdout_buffer       0000000180166090     libucrt:_sftbuf.obj
 0003:00005098       __acrt_stderr_buffer       0000000180166098     libucrt:_sftbuf.obj
 0003:000050b0       __acrt_locale_changed_data 00000001801660b0     libucrt:wsetlocale.obj
 0003:000050b8       __acrt_lconv_static_null   00000001801660b8     libucrt:localeconv.obj
 0003:000050bc       __acrt_lconv_static_W_null 00000001801660bc     libucrt:localeconv.obj
 0003:00005640       __scrt_ucrt_dll_is_in_use  0000000180166640     <common>
 0003:00005648       __dyn_tls_init_callback    0000000180166648     <common>
 0005:00000100       __common_ssin_reduction_data 000000018016f100     LIBCMT:svml_s_sin_data.obj
 0005:00000d00       __common_ssin_data         000000018016fd00     LIBCMT:svml_s_sin_data.obj

 entry point at        0001:001184b8

 Static symbols

 0000:ffe8b000       .debug$S                   0000000180000000     PhysXCommon_64.exp
 0000:ffe8b000       .debug$S                   0000000180000000     kernel32:KERNEL32.dll
 0000:ffe8b000       .debug$S                   0000000180000000     kernel32:KERNEL32.dll
 0000:ffe8b000       .debug$S                   0000000180000000     kernel32:KERNEL32.dll
 0000:ffe8b000       .debug$S                   0000000180000000     kernel32:KERNEL32.dll
 0000:ffe8b000       .debug$S                   0000000180000000     kernel32:KERNEL32.dll
 0000:ffe8b000       .debug$S                   0000000180000000     kernel32:KERNEL32.dll
 0000:ffe8b000       .debug$S                   0000000180000000     kernel32:KERNEL32.dll
 0000:ffe8b000       .debug$S                   0000000180000000     kernel32:KERNEL32.dll
 0000:ffe8b000       .debug$S                   0000000180000000     kernel32:KERNEL32.dll
 0000:ffe8b000       .debug$S                   0000000180000000     kernel32:KERNEL32.dll
 0000:ffe8b000       .debug$S                   0000000180000000     kernel32:KERNEL32.dll
 0000:ffe8b000       .debug$S                   0000000180000000     kernel32:KERNEL32.dll
 0000:ffe8b000       .debug$S                   0000000180000000     kernel32:KERNEL32.dll
 0000:ffe8b000       .debug$S                   0000000180000000     kernel32:KERNEL32.dll
 0000:ffe8b000       .debug$S                   0000000180000000     kernel32:KERNEL32.dll
 0000:ffe8b000       .debug$S                   0000000180000000     kernel32:KERNEL32.dll
 0000:ffe8b000       .debug$S                   0000000180000000     kernel32:KERNEL32.dll
 0000:ffe8b000       .debug$S                   0000000180000000     kernel32:KERNEL32.dll
 0000:ffe8b000       .debug$S                   0000000180000000     kernel32:KERNEL32.dll
 0000:ffe8b000       .debug$S                   0000000180000000     kernel32:KERNEL32.dll
 0000:ffe8b000       .debug$S                   0000000180000000     kernel32:KERNEL32.dll
 0000:ffe8b000       .debug$S                   0000000180000000     kernel32:KERNEL32.dll
 0000:ffe8b000       .debug$S                   0000000180000000     kernel32:KERNEL32.dll
 0000:ffe8b000       .debug$S                   0000000180000000     kernel32:KERNEL32.dll
 0000:ffe8b000       .debug$S                   0000000180000000     kernel32:KERNEL32.dll
 0000:ffe8b000       .debug$S                   0000000180000000     kernel32:KERNEL32.dll
 0000:ffe8b000       .debug$S                   0000000180000000     kernel32:KERNEL32.dll
 0000:ffe8b000       .debug$S                   0000000180000000     kernel32:KERNEL32.dll
 0000:ffe8b000       .debug$S                   0000000180000000     kernel32:KERNEL32.dll
 0000:ffe8b000       .debug$S                   0000000180000000     kernel32:KERNEL32.dll
 0000:ffe8b000       .debug$S                   0000000180000000     kernel32:KERNEL32.dll
 0000:ffe8b000       .debug$S                   0000000180000000     kernel32:KERNEL32.dll
 0000:ffe8b000       .debug$S                   0000000180000000     kernel32:KERNEL32.dll
 0000:ffe8b000       .debug$S                   0000000180000000     kernel32:KERNEL32.dll
 0000:ffe8b000       .debug$S                   0000000180000000     kernel32:KERNEL32.dll
 0000:ffe8b000       .debug$S                   0000000180000000     kernel32:KERNEL32.dll
 0000:ffe8b000       .debug$S                   0000000180000000     kernel32:KERNEL32.dll
 0000:ffe8b000       .debug$S                   0000000180000000     kernel32:KERNEL32.dll
 0000:ffe8b000       .debug$S                   0000000180000000     kernel32:KERNEL32.dll
 0000:ffe8b000       .debug$S                   0000000180000000     kernel32:KERNEL32.dll
 0000:ffe8b000       .debug$S                   0000000180000000     kernel32:KERNEL32.dll
 0000:ffe8b000       .debug$S                   0000000180000000     kernel32:KERNEL32.dll
 0000:ffe8b000       .debug$S                   0000000180000000     kernel32:KERNEL32.dll
 0000:ffe8b000       .debug$S                   0000000180000000     kernel32:KERNEL32.dll
 0000:ffe8b000       .debug$S                   0000000180000000     kernel32:KERNEL32.dll
 0000:ffe8b000       .debug$S                   0000000180000000     kernel32:KERNEL32.dll
 0000:ffe8b000       .debug$S                   0000000180000000     kernel32:KERNEL32.dll
 0000:ffe8b000       .debug$S                   0000000180000000     kernel32:KERNEL32.dll
 0000:ffe8b000       .debug$S                   0000000180000000     kernel32:KERNEL32.dll
 0000:ffe8b000       .debug$S                   0000000180000000     kernel32:KERNEL32.dll
 0000:ffe8b000       .debug$S                   0000000180000000     kernel32:KERNEL32.dll
 0000:ffe8b000       .debug$S                   0000000180000000     kernel32:KERNEL32.dll
 0000:ffe8b000       .debug$S                   0000000180000000     kernel32:KERNEL32.dll
 0000:ffe8b000       .debug$S                   0000000180000000     kernel32:KERNEL32.dll
 0000:ffe8b000       .debug$S                   0000000180000000     kernel32:KERNEL32.dll
 0000:ffe8b000       .debug$S                   0000000180000000     kernel32:KERNEL32.dll
 0000:ffe8b000       .debug$S                   0000000180000000     kernel32:KERNEL32.dll
 0000:ffe8b000       .debug$S                   0000000180000000     kernel32:KERNEL32.dll
 0000:ffe8b000       .debug$S                   0000000180000000     kernel32:KERNEL32.dll
 0000:ffe8b000       .debug$S                   0000000180000000     kernel32:KERNEL32.dll
 0000:ffe8b000       .debug$S                   0000000180000000     kernel32:KERNEL32.dll
 0000:ffe8b000       .debug$S                   0000000180000000     kernel32:KERNEL32.dll
 0000:ffe8b000       .debug$S                   0000000180000000     kernel32:KERNEL32.dll
 0000:ffe8b000       .debug$S                   0000000180000000     kernel32:KERNEL32.dll
 0000:ffe8b000       .debug$S                   0000000180000000     kernel32:KERNEL32.dll
 0000:ffe8b000       .debug$S                   0000000180000000     kernel32:KERNEL32.dll
 0000:ffe8b000       .debug$S                   0000000180000000     kernel32:KERNEL32.dll
 0000:ffe8b000       .debug$S                   0000000180000000     kernel32:KERNEL32.dll
 0000:ffe8b000       .debug$S                   0000000180000000     kernel32:KERNEL32.dll
 0000:ffe8b000       .debug$S                   0000000180000000     kernel32:KERNEL32.dll
 0000:ffe8b000       .debug$S                   0000000180000000     kernel32:KERNEL32.dll
 0000:ffe8b000       .debug$S                   0000000180000000     kernel32:KERNEL32.dll
 0000:ffe8b000       .debug$S                   0000000180000000     kernel32:KERNEL32.dll
 0000:ffe8b000       .debug$S                   0000000180000000     kernel32:KERNEL32.dll
 0000:ffe8b000       .debug$S                   0000000180000000     kernel32:KERNEL32.dll
 0000:ffe8b000       .debug$S                   0000000180000000     kernel32:KERNEL32.dll
 0000:ffe8b000       .debug$S                   0000000180000000     kernel32:KERNEL32.dll
 0000:ffe8b000       .debug$S                   0000000180000000     kernel32:KERNEL32.dll
 0000:ffe8b000       .debug$S                   0000000180000000     kernel32:KERNEL32.dll
 0000:ffe8b000       .debug$S                   0000000180000000     kernel32:KERNEL32.dll
 0000:ffe8b000       .debug$S                   0000000180000000     kernel32:KERNEL32.dll
 0000:ffe8b000       .debug$S                   0000000180000000     kernel32:KERNEL32.dll
 0000:ffe8b000       .debug$S                   0000000180000000     kernel32:KERNEL32.dll
 0000:ffe8b000       .debug$S                   0000000180000000     kernel32:KERNEL32.dll
 0000:ffe8b000       .debug$S                   0000000180000000     kernel32:KERNEL32.dll
 0000:ffe8b000       .debug$S                   0000000180000000     kernel32:KERNEL32.dll
 0000:ffe8b000       .debug$S                   0000000180000000     kernel32:KERNEL32.dll
 0000:ffe8b000       .debug$S                   0000000180000000     kernel32:KERNEL32.dll
 0000:ffe8b000       .debug$S                   0000000180000000     kernel32:KERNEL32.dll
 0000:ffe8b000       .debug$S                   0000000180000000     kernel32:KERNEL32.dll
 0000:ffe8b000       .debug$S                   0000000180000000     kernel32:KERNEL32.dll
 0000:ffe8b000       .debug$S                   0000000180000000     kernel32:KERNEL32.dll
 0000:ffe8b000       .debug$S                   0000000180000000     kernel32:KERNEL32.dll
 0000:ffe8b000       .debug$S                   0000000180000000     kernel32:KERNEL32.dll
 0000:ffe8b000       .debug$S                   0000000180000000     PhysXFoundation_64:PhysXFoundation_64.dll
 0000:ffe8b000       .debug$S                   0000000180000000     PhysXFoundation_64:PhysXFoundation_64.dll
 0000:ffe8b000       .debug$S                   0000000180000000     PhysXFoundation_64:PhysXFoundation_64.dll
 0000:ffe8b000       .debug$S                   0000000180000000     PhysXFoundation_64:PhysXFoundation_64.dll
 0000:ffe8b000       .debug$S                   0000000180000000     PhysXFoundation_64:PhysXFoundation_64.dll
 0000:ffe8b000       .debug$S                   0000000180000000     PhysXFoundation_64:PhysXFoundation_64.dll
 0000:ffe8b000       .debug$S                   0000000180000000     PhysXFoundation_64:PhysXFoundation_64.dll
 0000:ffe8b000       .debug$S                   0000000180000000     PhysXFoundation_64:PhysXFoundation_64.dll
 0000:ffe8b000       .debug$S                   0000000180000000     PhysXFoundation_64:PhysXFoundation_64.dll
 0000:ffe8b000       .debug$S                   0000000180000000     PhysXFoundation_64:PhysXFoundation_64.dll
 0000:ffe8b000       .debug$S                   0000000180000000     PhysXFoundation_64:PhysXFoundation_64.dll
 0000:ffe8b000       .debug$S                   0000000180000000     PhysXFoundation_64:PhysXFoundation_64.dll
 0000:ffe8b000       .debug$S                   0000000180000000     PhysXFoundation_64:PhysXFoundation_64.dll
 0000:ffe8b000       .debug$S                   0000000180000000     PhysXFoundation_64:PhysXFoundation_64.dll
 0000:ffe8b000       .debug$S                   0000000180000000     PhysXFoundation_64:PhysXFoundation_64.dll
 0000:ffe8b000       .debug$S                   0000000180000000     PhysXFoundation_64:PhysXFoundation_64.dll
 0001:00000000       ??__EmaxFError@_VecMathTests@aos@shdfnd@physx@@YAXXZ 0000000180001000 f   GuBounds.obj
 0001:00000010       ??__EmaxV3Error@_VecMathTests@aos@shdfnd@physx@@YAXXZ 0000000180001010 f   GuBounds.obj
 0001:00000020       ??__EmaxV4Error@_VecMathTests@aos@shdfnd@physx@@YAXXZ 0000000180001020 f   GuBounds.obj
 0001:00000030       ??__EminFError@_VecMathTests@aos@shdfnd@physx@@YAXXZ 0000000180001030 f   GuBounds.obj
 0001:00000040       ??__EminV3Error@_VecMathTests@aos@shdfnd@physx@@YAXXZ 0000000180001040 f   GuBounds.obj
 0001:00000050       ??__EminV4Error@_VecMathTests@aos@shdfnd@physx@@YAXXZ 0000000180001050 f   GuBounds.obj
 0001:00000060       ??__EmaxFError@_VecMathTests@aos@shdfnd@physx@@YAXXZ 0000000180001060 f   GuBox.obj
 0001:00000070       ??__EmaxV3Error@_VecMathTests@aos@shdfnd@physx@@YAXXZ 0000000180001070 f   GuBox.obj
 0001:00000080       ??__EmaxV4Error@_VecMathTests@aos@shdfnd@physx@@YAXXZ 0000000180001080 f   GuBox.obj
 0001:00000090       ??__EminFError@_VecMathTests@aos@shdfnd@physx@@YAXXZ 0000000180001090 f   GuBox.obj
 0001:000000a0       ??__EminV3Error@_VecMathTests@aos@shdfnd@physx@@YAXXZ 00000001800010a0 f   GuBox.obj
 0001:000000b0       ??__EminV4Error@_VecMathTests@aos@shdfnd@physx@@YAXXZ 00000001800010b0 f   GuBox.obj
 0001:000000c0       ??__EmaxFError@_VecMathTests@aos@shdfnd@physx@@YAXXZ 00000001800010c0 f   GuCCTSweepTests.obj
 0001:000000d0       ??__EmaxV3Error@_VecMathTests@aos@shdfnd@physx@@YAXXZ 00000001800010d0 f   GuCCTSweepTests.obj
 0001:000000e0       ??__EmaxV4Error@_VecMathTests@aos@shdfnd@physx@@YAXXZ 00000001800010e0 f   GuCCTSweepTests.obj
 0001:000000f0       ??__EminFError@_VecMathTests@aos@shdfnd@physx@@YAXXZ 00000001800010f0 f   GuCCTSweepTests.obj
 0001:00000100       ??__EminV3Error@_VecMathTests@aos@shdfnd@physx@@YAXXZ 0000000180001100 f   GuCCTSweepTests.obj
 0001:00000110       ??__EminV4Error@_VecMathTests@aos@shdfnd@physx@@YAXXZ 0000000180001110 f   GuCCTSweepTests.obj
 0001:00000120       ??__EmaxFError@_VecMathTests@aos@shdfnd@physx@@YAXXZ 0000000180001120 f   GuGeometryQuery.obj
 0001:00000130       ??__EmaxV3Error@_VecMathTests@aos@shdfnd@physx@@YAXXZ 0000000180001130 f   GuGeometryQuery.obj
 0001:00000140       ??__EmaxV4Error@_VecMathTests@aos@shdfnd@physx@@YAXXZ 0000000180001140 f   GuGeometryQuery.obj
 0001:00000150       ??__EminFError@_VecMathTests@aos@shdfnd@physx@@YAXXZ 0000000180001150 f   GuGeometryQuery.obj
 0001:00000160       ??__EminV3Error@_VecMathTests@aos@shdfnd@physx@@YAXXZ 0000000180001160 f   GuGeometryQuery.obj
 0001:00000170       ??__EminV4Error@_VecMathTests@aos@shdfnd@physx@@YAXXZ 0000000180001170 f   GuGeometryQuery.obj
 0001:00000180       ??__EmaxFError@_VecMathTests@aos@shdfnd@physx@@YAXXZ 0000000180001180 f   GuGeometryUnion.obj
 0001:00000190       ??__EmaxV3Error@_VecMathTests@aos@shdfnd@physx@@YAXXZ 0000000180001190 f   GuGeometryUnion.obj
 0001:000001a0       ??__EmaxV4Error@_VecMathTests@aos@shdfnd@physx@@YAXXZ 00000001800011a0 f   GuGeometryUnion.obj
 0001:000001b0       ??__EminFError@_VecMathTests@aos@shdfnd@physx@@YAXXZ 00000001800011b0 f   GuGeometryUnion.obj
 0001:000001c0       ??__EminV3Error@_VecMathTests@aos@shdfnd@physx@@YAXXZ 00000001800011c0 f   GuGeometryUnion.obj
 0001:000001d0       ??__EminV4Error@_VecMathTests@aos@shdfnd@physx@@YAXXZ 00000001800011d0 f   GuGeometryUnion.obj
 0001:000001e0       ??__EmaxFError@_VecMathTests@aos@shdfnd@physx@@YAXXZ 00000001800011e0 f   GuInternal.obj
 0001:000001f0       ??__EmaxV3Error@_VecMathTests@aos@shdfnd@physx@@YAXXZ 00000001800011f0 f   GuInternal.obj
 0001:00000200       ??__EmaxV4Error@_VecMathTests@aos@shdfnd@physx@@YAXXZ 0000000180001200 f   GuInternal.obj
 0001:00000210       ??__EminFError@_VecMathTests@aos@shdfnd@physx@@YAXXZ 0000000180001210 f   GuInternal.obj
 0001:00000220       ??__EminV3Error@_VecMathTests@aos@shdfnd@physx@@YAXXZ 0000000180001220 f   GuInternal.obj
 0001:00000230       ??__EminV4Error@_VecMathTests@aos@shdfnd@physx@@YAXXZ 0000000180001230 f   GuInternal.obj
 0001:00000240       ??__EmaxFError@_VecMathTests@aos@shdfnd@physx@@YAXXZ 0000000180001240 f   GuMeshFactory.obj
 0001:00000250       ??__EmaxV3Error@_VecMathTests@aos@shdfnd@physx@@YAXXZ 0000000180001250 f   GuMeshFactory.obj
 0001:00000260       ??__EmaxV4Error@_VecMathTests@aos@shdfnd@physx@@YAXXZ 0000000180001260 f   GuMeshFactory.obj
 0001:00000270       ??__EminFError@_VecMathTests@aos@shdfnd@physx@@YAXXZ 0000000180001270 f   GuMeshFactory.obj
 0001:00000280       ??__EminV3Error@_VecMathTests@aos@shdfnd@physx@@YAXXZ 0000000180001280 f   GuMeshFactory.obj
 0001:00000290       ??__EminV4Error@_VecMathTests@aos@shdfnd@physx@@YAXXZ 0000000180001290 f   GuMeshFactory.obj
 0001:000002a0       ??__EmaxFError@_VecMathTests@aos@shdfnd@physx@@YAXXZ 00000001800012a0 f   GuMetaData.obj
 0001:000002b0       ??__EmaxV3Error@_VecMathTests@aos@shdfnd@physx@@YAXXZ 00000001800012b0 f   GuMetaData.obj
 0001:000002c0       ??__EmaxV4Error@_VecMathTests@aos@shdfnd@physx@@YAXXZ 00000001800012c0 f   GuMetaData.obj
 0001:000002d0       ??__EminFError@_VecMathTests@aos@shdfnd@physx@@YAXXZ 00000001800012d0 f   GuMetaData.obj
 0001:000002e0       ??__EminV3Error@_VecMathTests@aos@shdfnd@physx@@YAXXZ 00000001800012e0 f   GuMetaData.obj
 0001:000002f0       ??__EminV4Error@_VecMathTests@aos@shdfnd@physx@@YAXXZ 00000001800012f0 f   GuMetaData.obj
 0001:00000300       ??__EmaxFError@_VecMathTests@aos@shdfnd@physx@@YAXXZ 0000000180001300 f   GuMTD.obj
 0001:00000310       ??__EmaxV3Error@_VecMathTests@aos@shdfnd@physx@@YAXXZ 0000000180001310 f   GuMTD.obj
 0001:00000320       ??__EmaxV4Error@_VecMathTests@aos@shdfnd@physx@@YAXXZ 0000000180001320 f   GuMTD.obj
 0001:00000330       ??__EminFError@_VecMathTests@aos@shdfnd@physx@@YAXXZ 0000000180001330 f   GuMTD.obj
 0001:00000340       ??__EminV3Error@_VecMathTests@aos@shdfnd@physx@@YAXXZ 0000000180001340 f   GuMTD.obj
 0001:00000350       ??__EminV4Error@_VecMathTests@aos@shdfnd@physx@@YAXXZ 0000000180001350 f   GuMTD.obj
 0001:00000360       ??__EmaxFError@_VecMathTests@aos@shdfnd@physx@@YAXXZ 0000000180001360 f   GuOverlapTests.obj
 0001:00000370       ??__EmaxV3Error@_VecMathTests@aos@shdfnd@physx@@YAXXZ 0000000180001370 f   GuOverlapTests.obj
 0001:00000380       ??__EmaxV4Error@_VecMathTests@aos@shdfnd@physx@@YAXXZ 0000000180001380 f   GuOverlapTests.obj
 0001:00000390       ??__EminFError@_VecMathTests@aos@shdfnd@physx@@YAXXZ 0000000180001390 f   GuOverlapTests.obj
 0001:000003a0       ??__EminV3Error@_VecMathTests@aos@shdfnd@physx@@YAXXZ 00000001800013a0 f   GuOverlapTests.obj
 0001:000003b0       ??__EminV4Error@_VecMathTests@aos@shdfnd@physx@@YAXXZ 00000001800013b0 f   GuOverlapTests.obj
 0001:000003c0       ??__EmaxFError@_VecMathTests@aos@shdfnd@physx@@YAXXZ 00000001800013c0 f   GuRaycastTests.obj
 0001:000003d0       ??__EmaxV3Error@_VecMathTests@aos@shdfnd@physx@@YAXXZ 00000001800013d0 f   GuRaycastTests.obj
 0001:000003e0       ??__EmaxV4Error@_VecMathTests@aos@shdfnd@physx@@YAXXZ 00000001800013e0 f   GuRaycastTests.obj
 0001:000003f0       ??__EminFError@_VecMathTests@aos@shdfnd@physx@@YAXXZ 00000001800013f0 f   GuRaycastTests.obj
 0001:00000400       ??__EminV3Error@_VecMathTests@aos@shdfnd@physx@@YAXXZ 0000000180001400 f   GuRaycastTests.obj
 0001:00000410       ??__EminV4Error@_VecMathTests@aos@shdfnd@physx@@YAXXZ 0000000180001410 f   GuRaycastTests.obj
 0001:00000420       ??__EmaxFError@_VecMathTests@aos@shdfnd@physx@@YAXXZ 0000000180001420 f   GuSweepMTD.obj
 0001:00000430       ??__EmaxV3Error@_VecMathTests@aos@shdfnd@physx@@YAXXZ 0000000180001430 f   GuSweepMTD.obj
 0001:00000440       ??__EmaxV4Error@_VecMathTests@aos@shdfnd@physx@@YAXXZ 0000000180001440 f   GuSweepMTD.obj
 0001:00000450       ??__EminFError@_VecMathTests@aos@shdfnd@physx@@YAXXZ 0000000180001450 f   GuSweepMTD.obj
 0001:00000460       ??__EminV3Error@_VecMathTests@aos@shdfnd@physx@@YAXXZ 0000000180001460 f   GuSweepMTD.obj
 0001:00000470       ??__EminV4Error@_VecMathTests@aos@shdfnd@physx@@YAXXZ 0000000180001470 f   GuSweepMTD.obj
 0001:00000480       ??__EmaxFError@_VecMathTests@aos@shdfnd@physx@@YAXXZ 0000000180001480 f   GuSweepSharedTests.obj
 0001:00000490       ??__EmaxV3Error@_VecMathTests@aos@shdfnd@physx@@YAXXZ 0000000180001490 f   GuSweepSharedTests.obj
 0001:000004a0       ??__EmaxV4Error@_VecMathTests@aos@shdfnd@physx@@YAXXZ 00000001800014a0 f   GuSweepSharedTests.obj
 0001:000004b0       ??__EminFError@_VecMathTests@aos@shdfnd@physx@@YAXXZ 00000001800014b0 f   GuSweepSharedTests.obj
 0001:000004c0       ??__EminV3Error@_VecMathTests@aos@shdfnd@physx@@YAXXZ 00000001800014c0 f   GuSweepSharedTests.obj
 0001:000004d0       ??__EminV4Error@_VecMathTests@aos@shdfnd@physx@@YAXXZ 00000001800014d0 f   GuSweepSharedTests.obj
 0001:000004e0       ??__EmaxFError@_VecMathTests@aos@shdfnd@physx@@YAXXZ 00000001800014e0 f   GuSweepTests.obj
 0001:000004f0       ??__EmaxV3Error@_VecMathTests@aos@shdfnd@physx@@YAXXZ 00000001800014f0 f   GuSweepTests.obj
 0001:00000500       ??__EmaxV4Error@_VecMathTests@aos@shdfnd@physx@@YAXXZ 0000000180001500 f   GuSweepTests.obj
 0001:00000510       ??__EminFError@_VecMathTests@aos@shdfnd@physx@@YAXXZ 0000000180001510 f   GuSweepTests.obj
 0001:00000520       ??__EminV3Error@_VecMathTests@aos@shdfnd@physx@@YAXXZ 0000000180001520 f   GuSweepTests.obj
 0001:00000530       ??__EminV4Error@_VecMathTests@aos@shdfnd@physx@@YAXXZ 0000000180001530 f   GuSweepTests.obj
 0001:00000540       ??__EmaxFError@_VecMathTests@aos@shdfnd@physx@@YAXXZ 0000000180001540 f   GuAABBTreeBuild.obj
 0001:00000550       ??__EmaxV3Error@_VecMathTests@aos@shdfnd@physx@@YAXXZ 0000000180001550 f   GuAABBTreeBuild.obj
 0001:00000560       ??__EmaxV4Error@_VecMathTests@aos@shdfnd@physx@@YAXXZ 0000000180001560 f   GuAABBTreeBuild.obj
 0001:00000570       ??__EminFError@_VecMathTests@aos@shdfnd@physx@@YAXXZ 0000000180001570 f   GuAABBTreeBuild.obj
 0001:00000580       ??__EminV3Error@_VecMathTests@aos@shdfnd@physx@@YAXXZ 0000000180001580 f   GuAABBTreeBuild.obj
 0001:00000590       ??__EminV4Error@_VecMathTests@aos@shdfnd@physx@@YAXXZ 0000000180001590 f   GuAABBTreeBuild.obj
 0001:000005a0       ??__EmaxFError@_VecMathTests@aos@shdfnd@physx@@YAXXZ 00000001800015a0 f   GuBVHStructure.obj
 0001:000005b0       ??__EmaxV3Error@_VecMathTests@aos@shdfnd@physx@@YAXXZ 00000001800015b0 f   GuBVHStructure.obj
 0001:000005c0       ??__EmaxV4Error@_VecMathTests@aos@shdfnd@physx@@YAXXZ 00000001800015c0 f   GuBVHStructure.obj
 0001:000005d0       ??__EminFError@_VecMathTests@aos@shdfnd@physx@@YAXXZ 00000001800015d0 f   GuBVHStructure.obj
 0001:000005e0       ??__EminV3Error@_VecMathTests@aos@shdfnd@physx@@YAXXZ 00000001800015e0 f   GuBVHStructure.obj
 0001:000005f0       ??__EminV4Error@_VecMathTests@aos@shdfnd@physx@@YAXXZ 00000001800015f0 f   GuBVHStructure.obj
 0001:00000600       ??__EmaxFError@_VecMathTests@aos@shdfnd@physx@@YAXXZ 0000000180001600 f   GuCCDSweepConvexMesh.obj
 0001:00000610       ??__EmaxV3Error@_VecMathTests@aos@shdfnd@physx@@YAXXZ 0000000180001610 f   GuCCDSweepConvexMesh.obj
 0001:00000620       ??__EmaxV4Error@_VecMathTests@aos@shdfnd@physx@@YAXXZ 0000000180001620 f   GuCCDSweepConvexMesh.obj
 0001:00000630       ??__EminFError@_VecMathTests@aos@shdfnd@physx@@YAXXZ 0000000180001630 f   GuCCDSweepConvexMesh.obj
 0001:00000640       ??__EminV3Error@_VecMathTests@aos@shdfnd@physx@@YAXXZ 0000000180001640 f   GuCCDSweepConvexMesh.obj
 0001:00000650       ??__EminV4Error@_VecMathTests@aos@shdfnd@physx@@YAXXZ 0000000180001650 f   GuCCDSweepConvexMesh.obj
 0001:00000660       ??__EmaxFError@_VecMathTests@aos@shdfnd@physx@@YAXXZ 0000000180001660 f   GuCCDSweepPrimitives.obj
 0001:00000670       ??__EmaxV3Error@_VecMathTests@aos@shdfnd@physx@@YAXXZ 0000000180001670 f   GuCCDSweepPrimitives.obj
 0001:00000680       ??__EmaxV4Error@_VecMathTests@aos@shdfnd@physx@@YAXXZ 0000000180001680 f   GuCCDSweepPrimitives.obj
 0001:00000690       ??__EminFError@_VecMathTests@aos@shdfnd@physx@@YAXXZ 0000000180001690 f   GuCCDSweepPrimitives.obj
 0001:000006a0       ??__EminV3Error@_VecMathTests@aos@shdfnd@physx@@YAXXZ 00000001800016a0 f   GuCCDSweepPrimitives.obj
 0001:000006b0       ??__EminV4Error@_VecMathTests@aos@shdfnd@physx@@YAXXZ 00000001800016b0 f   GuCCDSweepPrimitives.obj
 0001:000006c0       ??__EmaxFError@_VecMathTests@aos@shdfnd@physx@@YAXXZ 00000001800016c0 f   GuBarycentricCoordinates.obj
 0001:000006d0       ??__EmaxV3Error@_VecMathTests@aos@shdfnd@physx@@YAXXZ 00000001800016d0 f   GuBarycentricCoordinates.obj
 0001:000006e0       ??__EmaxV4Error@_VecMathTests@aos@shdfnd@physx@@YAXXZ 00000001800016e0 f   GuBarycentricCoordinates.obj
 0001:000006f0       ??__EminFError@_VecMathTests@aos@shdfnd@physx@@YAXXZ 00000001800016f0 f   GuBarycentricCoordinates.obj
 0001:00000700       ??__EminV3Error@_VecMathTests@aos@shdfnd@physx@@YAXXZ 0000000180001700 f   GuBarycentricCoordinates.obj
 0001:00000710       ??__EminV4Error@_VecMathTests@aos@shdfnd@physx@@YAXXZ 0000000180001710 f   GuBarycentricCoordinates.obj
 0001:00000720       ??__EmaxFError@_VecMathTests@aos@shdfnd@physx@@YAXXZ 0000000180001720 f   GuContactBoxBox.obj
 0001:00000730       ??__EmaxV3Error@_VecMathTests@aos@shdfnd@physx@@YAXXZ 0000000180001730 f   GuContactBoxBox.obj
 0001:00000740       ??__EmaxV4Error@_VecMathTests@aos@shdfnd@physx@@YAXXZ 0000000180001740 f   GuContactBoxBox.obj
 0001:00000750       ??__EminFError@_VecMathTests@aos@shdfnd@physx@@YAXXZ 0000000180001750 f   GuContactBoxBox.obj
 0001:00000760       ??__EminV3Error@_VecMathTests@aos@shdfnd@physx@@YAXXZ 0000000180001760 f   GuContactBoxBox.obj
 0001:00000770       ??__EminV4Error@_VecMathTests@aos@shdfnd@physx@@YAXXZ 0000000180001770 f   GuContactBoxBox.obj
 0001:00000780       ??__EmaxFError@_VecMathTests@aos@shdfnd@physx@@YAXXZ 0000000180001780 f   GuContactCapsuleBox.obj
 0001:00000790       ??__EmaxV3Error@_VecMathTests@aos@shdfnd@physx@@YAXXZ 0000000180001790 f   GuContactCapsuleBox.obj
 0001:000007a0       ??__EmaxV4Error@_VecMathTests@aos@shdfnd@physx@@YAXXZ 00000001800017a0 f   GuContactCapsuleBox.obj
 0001:000007b0       ??__EminFError@_VecMathTests@aos@shdfnd@physx@@YAXXZ 00000001800017b0 f   GuContactCapsuleBox.obj
 0001:000007c0       ??__EminV3Error@_VecMathTests@aos@shdfnd@physx@@YAXXZ 00000001800017c0 f   GuContactCapsuleBox.obj
 0001:000007d0       ??__EminV4Error@_VecMathTests@aos@shdfnd@physx@@YAXXZ 00000001800017d0 f   GuContactCapsuleBox.obj
 0001:000007e0       ??__EmaxFError@_VecMathTests@aos@shdfnd@physx@@YAXXZ 00000001800017e0 f   GuContactCapsuleCapsule.obj
 0001:000007f0       ??__EmaxV3Error@_VecMathTests@aos@shdfnd@physx@@YAXXZ 00000001800017f0 f   GuContactCapsuleCapsule.obj
 0001:00000800       ??__EmaxV4Error@_VecMathTests@aos@shdfnd@physx@@YAXXZ 0000000180001800 f   GuContactCapsuleCapsule.obj
 0001:00000810       ??__EminFError@_VecMathTests@aos@shdfnd@physx@@YAXXZ 0000000180001810 f   GuContactCapsuleCapsule.obj
 0001:00000820       ??__EminV3Error@_VecMathTests@aos@shdfnd@physx@@YAXXZ 0000000180001820 f   GuContactCapsuleCapsule.obj
 0001:00000830       ??__EminV4Error@_VecMathTests@aos@shdfnd@physx@@YAXXZ 0000000180001830 f   GuContactCapsuleCapsule.obj
 0001:00000840       ??__EmaxFError@_VecMathTests@aos@shdfnd@physx@@YAXXZ 0000000180001840 f   GuContactCapsuleConvex.obj
 0001:00000850       ??__EmaxV3Error@_VecMathTests@aos@shdfnd@physx@@YAXXZ 0000000180001850 f   GuContactCapsuleConvex.obj
 0001:00000860       ??__EmaxV4Error@_VecMathTests@aos@shdfnd@physx@@YAXXZ 0000000180001860 f   GuContactCapsuleConvex.obj
 0001:00000870       ??__EminFError@_VecMathTests@aos@shdfnd@physx@@YAXXZ 0000000180001870 f   GuContactCapsuleConvex.obj
 0001:00000880       ??__EminV3Error@_VecMathTests@aos@shdfnd@physx@@YAXXZ 0000000180001880 f   GuContactCapsuleConvex.obj
 0001:00000890       ??__EminV4Error@_VecMathTests@aos@shdfnd@physx@@YAXXZ 0000000180001890 f   GuContactCapsuleConvex.obj
 0001:000008a0       ??__EmaxFError@_VecMathTests@aos@shdfnd@physx@@YAXXZ 00000001800018a0 f   GuContactCapsuleMesh.obj
 0001:000008b0       ??__EmaxV3Error@_VecMathTests@aos@shdfnd@physx@@YAXXZ 00000001800018b0 f   GuContactCapsuleMesh.obj
 0001:000008c0       ??__EmaxV4Error@_VecMathTests@aos@shdfnd@physx@@YAXXZ 00000001800018c0 f   GuContactCapsuleMesh.obj
 0001:000008d0       ??__EminFError@_VecMathTests@aos@shdfnd@physx@@YAXXZ 00000001800018d0 f   GuContactCapsuleMesh.obj
 0001:000008e0       ??__EminV3Error@_VecMathTests@aos@shdfnd@physx@@YAXXZ 00000001800018e0 f   GuContactCapsuleMesh.obj
 0001:000008f0       ??__EminV4Error@_VecMathTests@aos@shdfnd@physx@@YAXXZ 00000001800018f0 f   GuContactCapsuleMesh.obj
 0001:00000900       ??__EmaxFError@_VecMathTests@aos@shdfnd@physx@@YAXXZ 0000000180001900 f   GuContactConvexConvex.obj
 0001:00000910       ??__EmaxV3Error@_VecMathTests@aos@shdfnd@physx@@YAXXZ 0000000180001910 f   GuContactConvexConvex.obj
 0001:00000920       ??__EmaxV4Error@_VecMathTests@aos@shdfnd@physx@@YAXXZ 0000000180001920 f   GuContactConvexConvex.obj
 0001:00000930       ??__EminFError@_VecMathTests@aos@shdfnd@physx@@YAXXZ 0000000180001930 f   GuContactConvexConvex.obj
 0001:00000940       ??__EminV3Error@_VecMathTests@aos@shdfnd@physx@@YAXXZ 0000000180001940 f   GuContactConvexConvex.obj
 0001:00000950       ??__EminV4Error@_VecMathTests@aos@shdfnd@physx@@YAXXZ 0000000180001950 f   GuContactConvexConvex.obj
 0001:00000960       ??__EmaxFError@_VecMathTests@aos@shdfnd@physx@@YAXXZ 0000000180001960 f   GuContactConvexMesh.obj
 0001:00000970       ??__EmaxV3Error@_VecMathTests@aos@shdfnd@physx@@YAXXZ 0000000180001970 f   GuContactConvexMesh.obj
 0001:00000980       ??__EmaxV4Error@_VecMathTests@aos@shdfnd@physx@@YAXXZ 0000000180001980 f   GuContactConvexMesh.obj
 0001:00000990       ??__EminFError@_VecMathTests@aos@shdfnd@physx@@YAXXZ 0000000180001990 f   GuContactConvexMesh.obj
 0001:000009a0       ??__EminV3Error@_VecMathTests@aos@shdfnd@physx@@YAXXZ 00000001800019a0 f   GuContactConvexMesh.obj
 0001:000009b0       ??__EminV4Error@_VecMathTests@aos@shdfnd@physx@@YAXXZ 00000001800019b0 f   GuContactConvexMesh.obj
 0001:000009c0       ??__EmaxFError@_VecMathTests@aos@shdfnd@physx@@YAXXZ 00000001800019c0 f   GuContactPlaneBox.obj
 0001:000009d0       ??__EmaxV3Error@_VecMathTests@aos@shdfnd@physx@@YAXXZ 00000001800019d0 f   GuContactPlaneBox.obj
 0001:000009e0       ??__EmaxV4Error@_VecMathTests@aos@shdfnd@physx@@YAXXZ 00000001800019e0 f   GuContactPlaneBox.obj
 0001:000009f0       ??__EminFError@_VecMathTests@aos@shdfnd@physx@@YAXXZ 00000001800019f0 f   GuContactPlaneBox.obj
 0001:00000a00       ??__EminV3Error@_VecMathTests@aos@shdfnd@physx@@YAXXZ 0000000180001a00 f   GuContactPlaneBox.obj
 0001:00000a10       ??__EminV4Error@_VecMathTests@aos@shdfnd@physx@@YAXXZ 0000000180001a10 f   GuContactPlaneBox.obj
 0001:00000a20       ??__EmaxFError@_VecMathTests@aos@shdfnd@physx@@YAXXZ 0000000180001a20 f   GuContactPlaneCapsule.obj
 0001:00000a30       ??__EmaxV3Error@_VecMathTests@aos@shdfnd@physx@@YAXXZ 0000000180001a30 f   GuContactPlaneCapsule.obj
 0001:00000a40       ??__EmaxV4Error@_VecMathTests@aos@shdfnd@physx@@YAXXZ 0000000180001a40 f   GuContactPlaneCapsule.obj
 0001:00000a50       ??__EminFError@_VecMathTests@aos@shdfnd@physx@@YAXXZ 0000000180001a50 f   GuContactPlaneCapsule.obj
 0001:00000a60       ??__EminV3Error@_VecMathTests@aos@shdfnd@physx@@YAXXZ 0000000180001a60 f   GuContactPlaneCapsule.obj
 0001:00000a70       ??__EminV4Error@_VecMathTests@aos@shdfnd@physx@@YAXXZ 0000000180001a70 f   GuContactPlaneCapsule.obj
 0001:00000a80       ??__EmaxFError@_VecMathTests@aos@shdfnd@physx@@YAXXZ 0000000180001a80 f   GuContactPlaneConvex.obj
 0001:00000a90       ??__EmaxV3Error@_VecMathTests@aos@shdfnd@physx@@YAXXZ 0000000180001a90 f   GuContactPlaneConvex.obj
 0001:00000aa0       ??__EmaxV4Error@_VecMathTests@aos@shdfnd@physx@@YAXXZ 0000000180001aa0 f   GuContactPlaneConvex.obj
 0001:00000ab0       ??__EminFError@_VecMathTests@aos@shdfnd@physx@@YAXXZ 0000000180001ab0 f   GuContactPlaneConvex.obj
 0001:00000ac0       ??__EminV3Error@_VecMathTests@aos@shdfnd@physx@@YAXXZ 0000000180001ac0 f   GuContactPlaneConvex.obj
 0001:00000ad0       ??__EminV4Error@_VecMathTests@aos@shdfnd@physx@@YAXXZ 0000000180001ad0 f   GuContactPlaneConvex.obj
 0001:00000ae0       ??__EmaxFError@_VecMathTests@aos@shdfnd@physx@@YAXXZ 0000000180001ae0 f   GuContactSphereBox.obj
 0001:00000af0       ??__EmaxV3Error@_VecMathTests@aos@shdfnd@physx@@YAXXZ 0000000180001af0 f   GuContactSphereBox.obj
 0001:00000b00       ??__EmaxV4Error@_VecMathTests@aos@shdfnd@physx@@YAXXZ 0000000180001b00 f   GuContactSphereBox.obj
 0001:00000b10       ??__EminFError@_VecMathTests@aos@shdfnd@physx@@YAXXZ 0000000180001b10 f   GuContactSphereBox.obj
 0001:00000b20       ??__EminV3Error@_VecMathTests@aos@shdfnd@physx@@YAXXZ 0000000180001b20 f   GuContactSphereBox.obj
 0001:00000b30       ??__EminV4Error@_VecMathTests@aos@shdfnd@physx@@YAXXZ 0000000180001b30 f   GuContactSphereBox.obj
 0001:00000b40       ??__EmaxFError@_VecMathTests@aos@shdfnd@physx@@YAXXZ 0000000180001b40 f   GuContactSphereCapsule.obj
 0001:00000b50       ??__EmaxV3Error@_VecMathTests@aos@shdfnd@physx@@YAXXZ 0000000180001b50 f   GuContactSphereCapsule.obj
 0001:00000b60       ??__EmaxV4Error@_VecMathTests@aos@shdfnd@physx@@YAXXZ 0000000180001b60 f   GuContactSphereCapsule.obj
 0001:00000b70       ??__EminFError@_VecMathTests@aos@shdfnd@physx@@YAXXZ 0000000180001b70 f   GuContactSphereCapsule.obj
 0001:00000b80       ??__EminV3Error@_VecMathTests@aos@shdfnd@physx@@YAXXZ 0000000180001b80 f   GuContactSphereCapsule.obj
 0001:00000b90       ??__EminV4Error@_VecMathTests@aos@shdfnd@physx@@YAXXZ 0000000180001b90 f   GuContactSphereCapsule.obj
 0001:00000ba0       ??__EmaxFError@_VecMathTests@aos@shdfnd@physx@@YAXXZ 0000000180001ba0 f   GuContactSphereMesh.obj
 0001:00000bb0       ??__EmaxV3Error@_VecMathTests@aos@shdfnd@physx@@YAXXZ 0000000180001bb0 f   GuContactSphereMesh.obj
 0001:00000bc0       ??__EmaxV4Error@_VecMathTests@aos@shdfnd@physx@@YAXXZ 0000000180001bc0 f   GuContactSphereMesh.obj
 0001:00000bd0       ??__EminFError@_VecMathTests@aos@shdfnd@physx@@YAXXZ 0000000180001bd0 f   GuContactSphereMesh.obj
 0001:00000be0       ??__EminV3Error@_VecMathTests@aos@shdfnd@physx@@YAXXZ 0000000180001be0 f   GuContactSphereMesh.obj
 0001:00000bf0       ??__EminV4Error@_VecMathTests@aos@shdfnd@physx@@YAXXZ 0000000180001bf0 f   GuContactSphereMesh.obj
 0001:00000c00       ??__EmaxFError@_VecMathTests@aos@shdfnd@physx@@YAXXZ 0000000180001c00 f   GuContactSpherePlane.obj
 0001:00000c10       ??__EmaxV3Error@_VecMathTests@aos@shdfnd@physx@@YAXXZ 0000000180001c10 f   GuContactSpherePlane.obj
 0001:00000c20       ??__EmaxV4Error@_VecMathTests@aos@shdfnd@physx@@YAXXZ 0000000180001c20 f   GuContactSpherePlane.obj
 0001:00000c30       ??__EminFError@_VecMathTests@aos@shdfnd@physx@@YAXXZ 0000000180001c30 f   GuContactSpherePlane.obj
 0001:00000c40       ??__EminV3Error@_VecMathTests@aos@shdfnd@physx@@YAXXZ 0000000180001c40 f   GuContactSpherePlane.obj
 0001:00000c50       ??__EminV4Error@_VecMathTests@aos@shdfnd@physx@@YAXXZ 0000000180001c50 f   GuContactSpherePlane.obj
 0001:00000c60       ??__EmaxFError@_VecMathTests@aos@shdfnd@physx@@YAXXZ 0000000180001c60 f   GuContactSphereSphere.obj
 0001:00000c70       ??__EmaxV3Error@_VecMathTests@aos@shdfnd@physx@@YAXXZ 0000000180001c70 f   GuContactSphereSphere.obj
 0001:00000c80       ??__EmaxV4Error@_VecMathTests@aos@shdfnd@physx@@YAXXZ 0000000180001c80 f   GuContactSphereSphere.obj
 0001:00000c90       ??__EminFError@_VecMathTests@aos@shdfnd@physx@@YAXXZ 0000000180001c90 f   GuContactSphereSphere.obj
 0001:00000ca0       ??__EminV3Error@_VecMathTests@aos@shdfnd@physx@@YAXXZ 0000000180001ca0 f   GuContactSphereSphere.obj
 0001:00000cb0       ??__EminV4Error@_VecMathTests@aos@shdfnd@physx@@YAXXZ 0000000180001cb0 f   GuContactSphereSphere.obj
 0001:00000cc0       ??__EmaxFError@_VecMathTests@aos@shdfnd@physx@@YAXXZ 0000000180001cc0 f   GuConvexHelper.obj
 0001:00000cd0       ??__EmaxV3Error@_VecMathTests@aos@shdfnd@physx@@YAXXZ 0000000180001cd0 f   GuConvexHelper.obj
 0001:00000ce0       ??__EmaxV4Error@_VecMathTests@aos@shdfnd@physx@@YAXXZ 0000000180001ce0 f   GuConvexHelper.obj
 0001:00000cf0       ??__EminFError@_VecMathTests@aos@shdfnd@physx@@YAXXZ 0000000180001cf0 f   GuConvexHelper.obj
 0001:00000d00       ??__EminV3Error@_VecMathTests@aos@shdfnd@physx@@YAXXZ 0000000180001d00 f   GuConvexHelper.obj
 0001:00000d10       ??__EminV4Error@_VecMathTests@aos@shdfnd@physx@@YAXXZ 0000000180001d10 f   GuConvexHelper.obj
 0001:00000d20       ??__EboxVertexTable@physx@@YAXXZ 0000000180001d20 f   GuConvexSupportTable.obj
 0001:00000da0       ??__EmaxFError@_VecMathTests@aos@shdfnd@physx@@YAXXZ 0000000180001da0 f   GuConvexSupportTable.obj
 0001:00000db0       ??__EmaxV3Error@_VecMathTests@aos@shdfnd@physx@@YAXXZ 0000000180001db0 f   GuConvexSupportTable.obj
 0001:00000dc0       ??__EmaxV4Error@_VecMathTests@aos@shdfnd@physx@@YAXXZ 0000000180001dc0 f   GuConvexSupportTable.obj
 0001:00000dd0       ??__EminFError@_VecMathTests@aos@shdfnd@physx@@YAXXZ 0000000180001dd0 f   GuConvexSupportTable.obj
 0001:00000de0       ??__EminV3Error@_VecMathTests@aos@shdfnd@physx@@YAXXZ 0000000180001de0 f   GuConvexSupportTable.obj
 0001:00000df0       ??__EminV4Error@_VecMathTests@aos@shdfnd@physx@@YAXXZ 0000000180001df0 f   GuConvexSupportTable.obj
 0001:00000e00       ??__EmaxFError@_VecMathTests@aos@shdfnd@physx@@YAXXZ 0000000180001e00 f   GuConvexUtilsInternal.obj
 0001:00000e10       ??__EmaxV3Error@_VecMathTests@aos@shdfnd@physx@@YAXXZ 0000000180001e10 f   GuConvexUtilsInternal.obj
 0001:00000e20       ??__EmaxV4Error@_VecMathTests@aos@shdfnd@physx@@YAXXZ 0000000180001e20 f   GuConvexUtilsInternal.obj
 0001:00000e30       ??__EminFError@_VecMathTests@aos@shdfnd@physx@@YAXXZ 0000000180001e30 f   GuConvexUtilsInternal.obj
 0001:00000e40       ??__EminV3Error@_VecMathTests@aos@shdfnd@physx@@YAXXZ 0000000180001e40 f   GuConvexUtilsInternal.obj
 0001:00000e50       ??__EminV4Error@_VecMathTests@aos@shdfnd@physx@@YAXXZ 0000000180001e50 f   GuConvexUtilsInternal.obj
 0001:00000e60       ??__EmaxFError@_VecMathTests@aos@shdfnd@physx@@YAXXZ 0000000180001e60 f   GuDistancePointTriangle.obj
 0001:00000e70       ??__EmaxV3Error@_VecMathTests@aos@shdfnd@physx@@YAXXZ 0000000180001e70 f   GuDistancePointTriangle.obj
 0001:00000e80       ??__EmaxV4Error@_VecMathTests@aos@shdfnd@physx@@YAXXZ 0000000180001e80 f   GuDistancePointTriangle.obj
 0001:00000e90       ??__EminFError@_VecMathTests@aos@shdfnd@physx@@YAXXZ 0000000180001e90 f   GuDistancePointTriangle.obj
 0001:00000ea0       ??__EminV3Error@_VecMathTests@aos@shdfnd@physx@@YAXXZ 0000000180001ea0 f   GuDistancePointTriangle.obj
 0001:00000eb0       ??__EminV4Error@_VecMathTests@aos@shdfnd@physx@@YAXXZ 0000000180001eb0 f   GuDistancePointTriangle.obj
 0001:00000ec0       ??__EmaxFError@_VecMathTests@aos@shdfnd@physx@@YAXXZ 0000000180001ec0 f   GuDistanceSegmentSegment.obj
 0001:00000ed0       ??__EmaxV3Error@_VecMathTests@aos@shdfnd@physx@@YAXXZ 0000000180001ed0 f   GuDistanceSegmentSegment.obj
 0001:00000ee0       ??__EmaxV4Error@_VecMathTests@aos@shdfnd@physx@@YAXXZ 0000000180001ee0 f   GuDistanceSegmentSegment.obj
 0001:00000ef0       ??__EminFError@_VecMathTests@aos@shdfnd@physx@@YAXXZ 0000000180001ef0 f   GuDistanceSegmentSegment.obj
 0001:00000f00       ??__EminV3Error@_VecMathTests@aos@shdfnd@physx@@YAXXZ 0000000180001f00 f   GuDistanceSegmentSegment.obj
 0001:00000f10       ??__EminV4Error@_VecMathTests@aos@shdfnd@physx@@YAXXZ 0000000180001f10 f   GuDistanceSegmentSegment.obj
 0001:00000f20       ??__EmaxFError@_VecMathTests@aos@shdfnd@physx@@YAXXZ 0000000180001f20 f   GuDistanceSegmentTriangle.obj
 0001:00000f30       ??__EmaxV3Error@_VecMathTests@aos@shdfnd@physx@@YAXXZ 0000000180001f30 f   GuDistanceSegmentTriangle.obj
 0001:00000f40       ??__EmaxV4Error@_VecMathTests@aos@shdfnd@physx@@YAXXZ 0000000180001f40 f   GuDistanceSegmentTriangle.obj
 0001:00000f50       ??__EminFError@_VecMathTests@aos@shdfnd@physx@@YAXXZ 0000000180001f50 f   GuDistanceSegmentTriangle.obj
 0001:00000f60       ??__EminV3Error@_VecMathTests@aos@shdfnd@physx@@YAXXZ 0000000180001f60 f   GuDistanceSegmentTriangle.obj
 0001:00000f70       ??__EminV4Error@_VecMathTests@aos@shdfnd@physx@@YAXXZ 0000000180001f70 f   GuDistanceSegmentTriangle.obj
 0001:00000f80       ??__EmaxFError@_VecMathTests@aos@shdfnd@physx@@YAXXZ 0000000180001f80 f   GuEPA.obj
 0001:00000f90       ??__EmaxV3Error@_VecMathTests@aos@shdfnd@physx@@YAXXZ 0000000180001f90 f   GuEPA.obj
 0001:00000fa0       ??__EmaxV4Error@_VecMathTests@aos@shdfnd@physx@@YAXXZ 0000000180001fa0 f   GuEPA.obj
 0001:00000fb0       ??__EminFError@_VecMathTests@aos@shdfnd@physx@@YAXXZ 0000000180001fb0 f   GuEPA.obj
 0001:00000fc0       ??__EminV3Error@_VecMathTests@aos@shdfnd@physx@@YAXXZ 0000000180001fc0 f   GuEPA.obj
 0001:00000fd0       ??__EminV4Error@_VecMathTests@aos@shdfnd@physx@@YAXXZ 0000000180001fd0 f   GuEPA.obj
 0001:00000fe0       ??__EmaxFError@_VecMathTests@aos@shdfnd@physx@@YAXXZ 0000000180001fe0 f   GuGJKSimplex.obj
 0001:00000ff0       ??__EmaxV3Error@_VecMathTests@aos@shdfnd@physx@@YAXXZ 0000000180001ff0 f   GuGJKSimplex.obj
 0001:00001000       ??__EmaxV4Error@_VecMathTests@aos@shdfnd@physx@@YAXXZ 0000000180002000 f   GuGJKSimplex.obj
 0001:00001010       ??__EminFError@_VecMathTests@aos@shdfnd@physx@@YAXXZ 0000000180002010 f   GuGJKSimplex.obj
 0001:00001020       ??__EminV3Error@_VecMathTests@aos@shdfnd@physx@@YAXXZ 0000000180002020 f   GuGJKSimplex.obj
 0001:00001030       ??__EminV4Error@_VecMathTests@aos@shdfnd@physx@@YAXXZ 0000000180002030 f   GuGJKSimplex.obj
 0001:00001040       ??__EmaxFError@_VecMathTests@aos@shdfnd@physx@@YAXXZ 0000000180002040 f   GuGJKTest.obj
 0001:00001050       ??__EmaxV3Error@_VecMathTests@aos@shdfnd@physx@@YAXXZ 0000000180002050 f   GuGJKTest.obj
 0001:00001060       ??__EmaxV4Error@_VecMathTests@aos@shdfnd@physx@@YAXXZ 0000000180002060 f   GuGJKTest.obj
 0001:00001070       ??__EminFError@_VecMathTests@aos@shdfnd@physx@@YAXXZ 0000000180002070 f   GuGJKTest.obj
 0001:00001080       ??__EminV3Error@_VecMathTests@aos@shdfnd@physx@@YAXXZ 0000000180002080 f   GuGJKTest.obj
 0001:00001090       ??__EminV4Error@_VecMathTests@aos@shdfnd@physx@@YAXXZ 0000000180002090 f   GuGJKTest.obj
 0001:000010a0       ??__EmaxFError@_VecMathTests@aos@shdfnd@physx@@YAXXZ 00000001800020a0 f   GuHeightFieldUtil.obj
 0001:000010b0       ??__EmaxV3Error@_VecMathTests@aos@shdfnd@physx@@YAXXZ 00000001800020b0 f   GuHeightFieldUtil.obj
 0001:000010c0       ??__EmaxV4Error@_VecMathTests@aos@shdfnd@physx@@YAXXZ 00000001800020c0 f   GuHeightFieldUtil.obj
 0001:000010d0       ??__EminFError@_VecMathTests@aos@shdfnd@physx@@YAXXZ 00000001800020d0 f   GuHeightFieldUtil.obj
 0001:000010e0       ??__EminV3Error@_VecMathTests@aos@shdfnd@physx@@YAXXZ 00000001800020e0 f   GuHeightFieldUtil.obj
 0001:000010f0       ??__EminV4Error@_VecMathTests@aos@shdfnd@physx@@YAXXZ 00000001800020f0 f   GuHeightFieldUtil.obj
 0001:00001100       ??__EmaxFError@_VecMathTests@aos@shdfnd@physx@@YAXXZ 0000000180002100 f   GuOverlapTestsHF.obj
 0001:00001110       ??__EmaxV3Error@_VecMathTests@aos@shdfnd@physx@@YAXXZ 0000000180002110 f   GuOverlapTestsHF.obj
 0001:00001120       ??__EmaxV4Error@_VecMathTests@aos@shdfnd@physx@@YAXXZ 0000000180002120 f   GuOverlapTestsHF.obj
 0001:00001130       ??__EminFError@_VecMathTests@aos@shdfnd@physx@@YAXXZ 0000000180002130 f   GuOverlapTestsHF.obj
 0001:00001140       ??__EminV3Error@_VecMathTests@aos@shdfnd@physx@@YAXXZ 0000000180002140 f   GuOverlapTestsHF.obj
 0001:00001150       ??__EminV4Error@_VecMathTests@aos@shdfnd@physx@@YAXXZ 0000000180002150 f   GuOverlapTestsHF.obj
 0001:00001160       ??__EmaxFError@_VecMathTests@aos@shdfnd@physx@@YAXXZ 0000000180002160 f   GuSweepsHF.obj
 0001:00001170       ??__EmaxV3Error@_VecMathTests@aos@shdfnd@physx@@YAXXZ 0000000180002170 f   GuSweepsHF.obj
 0001:00001180       ??__EmaxV4Error@_VecMathTests@aos@shdfnd@physx@@YAXXZ 0000000180002180 f   GuSweepsHF.obj
 0001:00001190       ??__EminFError@_VecMathTests@aos@shdfnd@physx@@YAXXZ 0000000180002190 f   GuSweepsHF.obj
 0001:000011a0       ??__EminV3Error@_VecMathTests@aos@shdfnd@physx@@YAXXZ 00000001800021a0 f   GuSweepsHF.obj
 0001:000011b0       ??__EminV4Error@_VecMathTests@aos@shdfnd@physx@@YAXXZ 00000001800021b0 f   GuSweepsHF.obj
 0001:000011c0       ??__EmaxFError@_VecMathTests@aos@shdfnd@physx@@YAXXZ 00000001800021c0 f   GuIntersectionRayBox.obj
 0001:000011d0       ??__EmaxV3Error@_VecMathTests@aos@shdfnd@physx@@YAXXZ 00000001800021d0 f   GuIntersectionRayBox.obj
 0001:000011e0       ??__EmaxV4Error@_VecMathTests@aos@shdfnd@physx@@YAXXZ 00000001800021e0 f   GuIntersectionRayBox.obj
 0001:000011f0       ??__EminFError@_VecMathTests@aos@shdfnd@physx@@YAXXZ 00000001800021f0 f   GuIntersectionRayBox.obj
 0001:00001200       ??__EminV3Error@_VecMathTests@aos@shdfnd@physx@@YAXXZ 0000000180002200 f   GuIntersectionRayBox.obj
 0001:00001210       ??__EminV4Error@_VecMathTests@aos@shdfnd@physx@@YAXXZ 0000000180002210 f   GuIntersectionRayBox.obj
 0001:00001220       ??__EmaxFError@_VecMathTests@aos@shdfnd@physx@@YAXXZ 0000000180002220 f   GuIntersectionTriangleBox.obj
 0001:00001230       ??__EmaxV3Error@_VecMathTests@aos@shdfnd@physx@@YAXXZ 0000000180002230 f   GuIntersectionTriangleBox.obj
 0001:00001240       ??__EmaxV4Error@_VecMathTests@aos@shdfnd@physx@@YAXXZ 0000000180002240 f   GuIntersectionTriangleBox.obj
 0001:00001250       ??__EminFError@_VecMathTests@aos@shdfnd@physx@@YAXXZ 0000000180002250 f   GuIntersectionTriangleBox.obj
 0001:00001260       ??__EminV3Error@_VecMathTests@aos@shdfnd@physx@@YAXXZ 0000000180002260 f   GuIntersectionTriangleBox.obj
 0001:00001270       ??__EminV4Error@_VecMathTests@aos@shdfnd@physx@@YAXXZ 0000000180002270 f   GuIntersectionTriangleBox.obj
 0001:00001280       ??__EsignV@@YAXXZ          0000000180002280 f   GuIntersectionTriangleBox.obj
 0001:00001290       ??__EmaxFError@_VecMathTests@aos@shdfnd@physx@@YAXXZ 0000000180002290 f   GuBV4.obj
 0001:000012a0       ??__EmaxV3Error@_VecMathTests@aos@shdfnd@physx@@YAXXZ 00000001800022a0 f   GuBV4.obj
 0001:000012b0       ??__EmaxV4Error@_VecMathTests@aos@shdfnd@physx@@YAXXZ 00000001800022b0 f   GuBV4.obj
 0001:000012c0       ??__EminFError@_VecMathTests@aos@shdfnd@physx@@YAXXZ 00000001800022c0 f   GuBV4.obj
 0001:000012d0       ??__EminV3Error@_VecMathTests@aos@shdfnd@physx@@YAXXZ 00000001800022d0 f   GuBV4.obj
 0001:000012e0       ??__EminV4Error@_VecMathTests@aos@shdfnd@physx@@YAXXZ 00000001800022e0 f   GuBV4.obj
 0001:000012f0       ??__EmaxFError@_VecMathTests@aos@shdfnd@physx@@YAXXZ 00000001800022f0 f   GuBV4Build.obj
 0001:00001300       ??__EmaxV3Error@_VecMathTests@aos@shdfnd@physx@@YAXXZ 0000000180002300 f   GuBV4Build.obj
 0001:00001310       ??__EmaxV4Error@_VecMathTests@aos@shdfnd@physx@@YAXXZ 0000000180002310 f   GuBV4Build.obj
 0001:00001320       ??__EminFError@_VecMathTests@aos@shdfnd@physx@@YAXXZ 0000000180002320 f   GuBV4Build.obj
 0001:00001330       ??__EminV3Error@_VecMathTests@aos@shdfnd@physx@@YAXXZ 0000000180002330 f   GuBV4Build.obj
 0001:00001340       ??__EminV4Error@_VecMathTests@aos@shdfnd@physx@@YAXXZ 0000000180002340 f   GuBV4Build.obj
 0001:00001350       ??__EepsFloat4@?A0x0084323d@@YAXXZ 0000000180002350 f   GuBV4_AABBSweep.obj
 0001:00001360       ??__EepsInflateFloat4@?A0x0084323d@@YAXXZ 0000000180002360 f   GuBV4_AABBSweep.obj
 0001:00001370       ??__EmaxFError@_VecMathTests@aos@shdfnd@physx@@YAXXZ 0000000180002370 f   GuBV4_AABBSweep.obj
 0001:00001380       ??__EmaxV3Error@_VecMathTests@aos@shdfnd@physx@@YAXXZ 0000000180002380 f   GuBV4_AABBSweep.obj
 0001:00001390       ??__EmaxV4Error@_VecMathTests@aos@shdfnd@physx@@YAXXZ 0000000180002390 f   GuBV4_AABBSweep.obj
 0001:000013a0       ??__EminFError@_VecMathTests@aos@shdfnd@physx@@YAXXZ 00000001800023a0 f   GuBV4_AABBSweep.obj
 0001:000013b0       ??__EminV3Error@_VecMathTests@aos@shdfnd@physx@@YAXXZ 00000001800023b0 f   GuBV4_AABBSweep.obj
 0001:000013c0       ??__EminV4Error@_VecMathTests@aos@shdfnd@physx@@YAXXZ 00000001800023c0 f   GuBV4_AABBSweep.obj
 0001:000013d0       ??__EsignMask@?A0x0084323d@@YAXXZ 00000001800023d0 f   GuBV4_AABBSweep.obj
 0001:000013e0       ??__Etwos@?A0x0084323d@@YAXXZ 00000001800023e0 f   GuBV4_AABBSweep.obj
 0001:000013f0       ??__Ezeroes@?A0x0084323d@@YAXXZ 00000001800023f0 f   GuBV4_AABBSweep.obj
 0001:00001400       ??__EmaxFError@_VecMathTests@aos@shdfnd@physx@@YAXXZ 0000000180002400 f   GuBV4_BoxOverlap.obj
 0001:00001410       ??__EmaxV3Error@_VecMathTests@aos@shdfnd@physx@@YAXXZ 0000000180002410 f   GuBV4_BoxOverlap.obj
 0001:00001420       ??__EmaxV4Error@_VecMathTests@aos@shdfnd@physx@@YAXXZ 0000000180002420 f   GuBV4_BoxOverlap.obj
 0001:00001430       ??__EminFError@_VecMathTests@aos@shdfnd@physx@@YAXXZ 0000000180002430 f   GuBV4_BoxOverlap.obj
 0001:00001440       ??__EminV3Error@_VecMathTests@aos@shdfnd@physx@@YAXXZ 0000000180002440 f   GuBV4_BoxOverlap.obj
 0001:00001450       ??__EminV4Error@_VecMathTests@aos@shdfnd@physx@@YAXXZ 0000000180002450 f   GuBV4_BoxOverlap.obj
 0001:00001460       ??__EmaxFError@_VecMathTests@aos@shdfnd@physx@@YAXXZ 0000000180002460 f   GuBV4_CapsuleSweep.obj
 0001:00001470       ??__EmaxV3Error@_VecMathTests@aos@shdfnd@physx@@YAXXZ 0000000180002470 f   GuBV4_CapsuleSweep.obj
 0001:00001480       ??__EmaxV4Error@_VecMathTests@aos@shdfnd@physx@@YAXXZ 0000000180002480 f   GuBV4_CapsuleSweep.obj
 0001:00001490       ??__EminFError@_VecMathTests@aos@shdfnd@physx@@YAXXZ 0000000180002490 f   GuBV4_CapsuleSweep.obj
 0001:000014a0       ??__EminV3Error@_VecMathTests@aos@shdfnd@physx@@YAXXZ 00000001800024a0 f   GuBV4_CapsuleSweep.obj
 0001:000014b0       ??__EminV4Error@_VecMathTests@aos@shdfnd@physx@@YAXXZ 00000001800024b0 f   GuBV4_CapsuleSweep.obj
 0001:000014c0       ??__EepsFloat4@?A0xe0bac79f@@YAXXZ 00000001800024c0 f   GuBV4_CapsuleSweepAA.obj
 0001:000014d0       ??__EepsInflateFloat4@?A0xe0bac79f@@YAXXZ 00000001800024d0 f   GuBV4_CapsuleSweepAA.obj
 0001:000014e0       ??__EmaxFError@_VecMathTests@aos@shdfnd@physx@@YAXXZ 00000001800024e0 f   GuBV4_CapsuleSweepAA.obj
 0001:000014f0       ??__EmaxV3Error@_VecMathTests@aos@shdfnd@physx@@YAXXZ 00000001800024f0 f   GuBV4_CapsuleSweepAA.obj
 0001:00001500       ??__EmaxV4Error@_VecMathTests@aos@shdfnd@physx@@YAXXZ 0000000180002500 f   GuBV4_CapsuleSweepAA.obj
 0001:00001510       ??__EminFError@_VecMathTests@aos@shdfnd@physx@@YAXXZ 0000000180002510 f   GuBV4_CapsuleSweepAA.obj
 0001:00001520       ??__EminV3Error@_VecMathTests@aos@shdfnd@physx@@YAXXZ 0000000180002520 f   GuBV4_CapsuleSweepAA.obj
 0001:00001530       ??__EminV4Error@_VecMathTests@aos@shdfnd@physx@@YAXXZ 0000000180002530 f   GuBV4_CapsuleSweepAA.obj
 0001:00001540       ??__EsignMask@?A0xe0bac79f@@YAXXZ 0000000180002540 f   GuBV4_CapsuleSweepAA.obj
 0001:00001550       ??__Etwos@?A0xe0bac79f@@YAXXZ 0000000180002550 f   GuBV4_CapsuleSweepAA.obj
 0001:00001560       ??__Ezeroes@?A0xe0bac79f@@YAXXZ 0000000180002560 f   GuBV4_CapsuleSweepAA.obj
 0001:00001570       ??__EmaxFError@_VecMathTests@aos@shdfnd@physx@@YAXXZ 0000000180002570 f   GuBV4_OBBSweep.obj
 0001:00001580       ??__EmaxV3Error@_VecMathTests@aos@shdfnd@physx@@YAXXZ 0000000180002580 f   GuBV4_OBBSweep.obj
 0001:00001590       ??__EmaxV4Error@_VecMathTests@aos@shdfnd@physx@@YAXXZ 0000000180002590 f   GuBV4_OBBSweep.obj
 0001:000015a0       ??__EminFError@_VecMathTests@aos@shdfnd@physx@@YAXXZ 00000001800025a0 f   GuBV4_OBBSweep.obj
 0001:000015b0       ??__EminV3Error@_VecMathTests@aos@shdfnd@physx@@YAXXZ 00000001800025b0 f   GuBV4_OBBSweep.obj
 0001:000015c0       ??__EminV4Error@_VecMathTests@aos@shdfnd@physx@@YAXXZ 00000001800025c0 f   GuBV4_OBBSweep.obj
 0001:000015d0       ??__EepsFloat4@?A0x07d3ee75@@YAXXZ 00000001800025d0 f   GuBV4_Raycast.obj
 0001:000015e0       ??__EepsInflateFloat4@?A0x07d3ee75@@YAXXZ 00000001800025e0 f   GuBV4_Raycast.obj
 0001:000015f0       ??__EmaxFError@_VecMathTests@aos@shdfnd@physx@@YAXXZ 00000001800025f0 f   GuBV4_Raycast.obj
 0001:00001600       ??__EmaxV3Error@_VecMathTests@aos@shdfnd@physx@@YAXXZ 0000000180002600 f   GuBV4_Raycast.obj
 0001:00001610       ??__EmaxV4Error@_VecMathTests@aos@shdfnd@physx@@YAXXZ 0000000180002610 f   GuBV4_Raycast.obj
 0001:00001620       ??__EminFError@_VecMathTests@aos@shdfnd@physx@@YAXXZ 0000000180002620 f   GuBV4_Raycast.obj
 0001:00001630       ??__EminV3Error@_VecMathTests@aos@shdfnd@physx@@YAXXZ 0000000180002630 f   GuBV4_Raycast.obj
 0001:00001640       ??__EminV4Error@_VecMathTests@aos@shdfnd@physx@@YAXXZ 0000000180002640 f   GuBV4_Raycast.obj
 0001:00001650       ??__EsignMask@?A0x07d3ee75@@YAXXZ 0000000180002650 f   GuBV4_Raycast.obj
 0001:00001660       ??__Etwos@?A0x07d3ee75@@YAXXZ 0000000180002660 f   GuBV4_Raycast.obj
 0001:00001670       ??__Ezeroes@?A0x07d3ee75@@YAXXZ 0000000180002670 f   GuBV4_Raycast.obj
 0001:00001680       ??__EmaxFError@_VecMathTests@aos@shdfnd@physx@@YAXXZ 0000000180002680 f   GuBV4_SphereOverlap.obj
 0001:00001690       ??__EmaxV3Error@_VecMathTests@aos@shdfnd@physx@@YAXXZ 0000000180002690 f   GuBV4_SphereOverlap.obj
 0001:000016a0       ??__EmaxV4Error@_VecMathTests@aos@shdfnd@physx@@YAXXZ 00000001800026a0 f   GuBV4_SphereOverlap.obj
 0001:000016b0       ??__EminFError@_VecMathTests@aos@shdfnd@physx@@YAXXZ 00000001800026b0 f   GuBV4_SphereOverlap.obj
 0001:000016c0       ??__EminV3Error@_VecMathTests@aos@shdfnd@physx@@YAXXZ 00000001800026c0 f   GuBV4_SphereOverlap.obj
 0001:000016d0       ??__EminV4Error@_VecMathTests@aos@shdfnd@physx@@YAXXZ 00000001800026d0 f   GuBV4_SphereOverlap.obj
 0001:000016e0       ??__EepsFloat4@?A0x1d88c69a@@YAXXZ 00000001800026e0 f   GuBV4_SphereSweep.obj
 0001:000016f0       ??__EepsInflateFloat4@?A0x1d88c69a@@YAXXZ 00000001800026f0 f   GuBV4_SphereSweep.obj
 0001:00001700       ??__EmaxFError@_VecMathTests@aos@shdfnd@physx@@YAXXZ 0000000180002700 f   GuBV4_SphereSweep.obj
 0001:00001710       ??__EmaxV3Error@_VecMathTests@aos@shdfnd@physx@@YAXXZ 0000000180002710 f   GuBV4_SphereSweep.obj
 0001:00001720       ??__EmaxV4Error@_VecMathTests@aos@shdfnd@physx@@YAXXZ 0000000180002720 f   GuBV4_SphereSweep.obj
 0001:00001730       ??__EminFError@_VecMathTests@aos@shdfnd@physx@@YAXXZ 0000000180002730 f   GuBV4_SphereSweep.obj
 0001:00001740       ??__EminV3Error@_VecMathTests@aos@shdfnd@physx@@YAXXZ 0000000180002740 f   GuBV4_SphereSweep.obj
 0001:00001750       ??__EminV4Error@_VecMathTests@aos@shdfnd@physx@@YAXXZ 0000000180002750 f   GuBV4_SphereSweep.obj
 0001:00001760       ??__EsignMask@?A0x1d88c69a@@YAXXZ 0000000180002760 f   GuBV4_SphereSweep.obj
 0001:00001770       ??__Etwos@?A0x1d88c69a@@YAXXZ 0000000180002770 f   GuBV4_SphereSweep.obj
 0001:00001780       ??__Ezeroes@?A0x1d88c69a@@YAXXZ 0000000180002780 f   GuBV4_SphereSweep.obj
 0001:00001790       ??__EmaxFError@_VecMathTests@aos@shdfnd@physx@@YAXXZ 0000000180002790 f   GuMidphaseBV4.obj
 0001:000017a0       ??__EmaxV3Error@_VecMathTests@aos@shdfnd@physx@@YAXXZ 00000001800027a0 f   GuMidphaseBV4.obj
 0001:000017b0       ??__EmaxV4Error@_VecMathTests@aos@shdfnd@physx@@YAXXZ 00000001800027b0 f   GuMidphaseBV4.obj
 0001:000017c0       ??__EminFError@_VecMathTests@aos@shdfnd@physx@@YAXXZ 00000001800027c0 f   GuMidphaseBV4.obj
 0001:000017d0       ??__EminV3Error@_VecMathTests@aos@shdfnd@physx@@YAXXZ 00000001800027d0 f   GuMidphaseBV4.obj
 0001:000017e0       ??__EminV4Error@_VecMathTests@aos@shdfnd@physx@@YAXXZ 00000001800027e0 f   GuMidphaseBV4.obj
 0001:000017f0       ??__EmaxFError@_VecMathTests@aos@shdfnd@physx@@YAXXZ 00000001800027f0 f   GuMeshQuery.obj
 0001:00001800       ??__EmaxV3Error@_VecMathTests@aos@shdfnd@physx@@YAXXZ 0000000180002800 f   GuMeshQuery.obj
 0001:00001810       ??__EmaxV4Error@_VecMathTests@aos@shdfnd@physx@@YAXXZ 0000000180002810 f   GuMeshQuery.obj
 0001:00001820       ??__EminFError@_VecMathTests@aos@shdfnd@physx@@YAXXZ 0000000180002820 f   GuMeshQuery.obj
 0001:00001830       ??__EminV3Error@_VecMathTests@aos@shdfnd@physx@@YAXXZ 0000000180002830 f   GuMeshQuery.obj
 0001:00001840       ??__EminV4Error@_VecMathTests@aos@shdfnd@physx@@YAXXZ 0000000180002840 f   GuMeshQuery.obj
 0001:00001850       ??__EmaxFError@_VecMathTests@aos@shdfnd@physx@@YAXXZ 0000000180002850 f   GuMidphaseRTree.obj
 0001:00001860       ??__EmaxV3Error@_VecMathTests@aos@shdfnd@physx@@YAXXZ 0000000180002860 f   GuMidphaseRTree.obj
 0001:00001870       ??__EmaxV4Error@_VecMathTests@aos@shdfnd@physx@@YAXXZ 0000000180002870 f   GuMidphaseRTree.obj
 0001:00001880       ??__EminFError@_VecMathTests@aos@shdfnd@physx@@YAXXZ 0000000180002880 f   GuMidphaseRTree.obj
 0001:00001890       ??__EminV3Error@_VecMathTests@aos@shdfnd@physx@@YAXXZ 0000000180002890 f   GuMidphaseRTree.obj
 0001:000018a0       ??__EminV4Error@_VecMathTests@aos@shdfnd@physx@@YAXXZ 00000001800028a0 f   GuMidphaseRTree.obj
 0001:000018b0       ??__EmaxFError@_VecMathTests@aos@shdfnd@physx@@YAXXZ 00000001800028b0 f   GuOverlapTestsMesh.obj
 0001:000018c0       ??__EmaxV3Error@_VecMathTests@aos@shdfnd@physx@@YAXXZ 00000001800028c0 f   GuOverlapTestsMesh.obj
 0001:000018d0       ??__EmaxV4Error@_VecMathTests@aos@shdfnd@physx@@YAXXZ 00000001800028d0 f   GuOverlapTestsMesh.obj
 0001:000018e0       ??__EminFError@_VecMathTests@aos@shdfnd@physx@@YAXXZ 00000001800028e0 f   GuOverlapTestsMesh.obj
 0001:000018f0       ??__EminV3Error@_VecMathTests@aos@shdfnd@physx@@YAXXZ 00000001800028f0 f   GuOverlapTestsMesh.obj
 0001:00001900       ??__EminV4Error@_VecMathTests@aos@shdfnd@physx@@YAXXZ 0000000180002900 f   GuOverlapTestsMesh.obj
 0001:00001910       ??__EmaxFError@_VecMathTests@aos@shdfnd@physx@@YAXXZ 0000000180002910 f   GuRTree.obj
 0001:00001920       ??__EmaxV3Error@_VecMathTests@aos@shdfnd@physx@@YAXXZ 0000000180002920 f   GuRTree.obj
 0001:00001930       ??__EmaxV4Error@_VecMathTests@aos@shdfnd@physx@@YAXXZ 0000000180002930 f   GuRTree.obj
 0001:00001940       ??__EminFError@_VecMathTests@aos@shdfnd@physx@@YAXXZ 0000000180002940 f   GuRTree.obj
 0001:00001950       ??__EminV3Error@_VecMathTests@aos@shdfnd@physx@@YAXXZ 0000000180002950 f   GuRTree.obj
 0001:00001960       ??__EminV4Error@_VecMathTests@aos@shdfnd@physx@@YAXXZ 0000000180002960 f   GuRTree.obj
 0001:00001970       ??__EepsFloat4@?A0x276eb666@@YAXXZ 0000000180002970 f   GuRTreeQueries.obj
 0001:00001980       ??__EepsInflateFloat4@?A0x276eb666@@YAXXZ 0000000180002980 f   GuRTreeQueries.obj
 0001:00001990       ??__EmaxFError@_VecMathTests@aos@shdfnd@physx@@YAXXZ 0000000180002990 f   GuRTreeQueries.obj
 0001:000019a0       ??__EmaxV3Error@_VecMathTests@aos@shdfnd@physx@@YAXXZ 00000001800029a0 f   GuRTreeQueries.obj
 0001:000019b0       ??__EmaxV4Error@_VecMathTests@aos@shdfnd@physx@@YAXXZ 00000001800029b0 f   GuRTreeQueries.obj
 0001:000019c0       ??__EminFError@_VecMathTests@aos@shdfnd@physx@@YAXXZ 00000001800029c0 f   GuRTreeQueries.obj
 0001:000019d0       ??__EminV3Error@_VecMathTests@aos@shdfnd@physx@@YAXXZ 00000001800029d0 f   GuRTreeQueries.obj
 0001:000019e0       ??__EminV4Error@_VecMathTests@aos@shdfnd@physx@@YAXXZ 00000001800029e0 f   GuRTreeQueries.obj
 0001:000019f0       ??__EsignMask@?A0x276eb666@@YAXXZ 00000001800029f0 f   GuRTreeQueries.obj
 0001:00001a00       ??__Etwos@?A0x276eb666@@YAXXZ 0000000180002a00 f   GuRTreeQueries.obj
 0001:00001a10       ??__Ezeroes@?A0x276eb666@@YAXXZ 0000000180002a10 f   GuRTreeQueries.obj
 0001:00001a20       ??__EmaxFError@_VecMathTests@aos@shdfnd@physx@@YAXXZ 0000000180002a20 f   GuSweepsMesh.obj
 0001:00001a30       ??__EmaxV3Error@_VecMathTests@aos@shdfnd@physx@@YAXXZ 0000000180002a30 f   GuSweepsMesh.obj
 0001:00001a40       ??__EmaxV4Error@_VecMathTests@aos@shdfnd@physx@@YAXXZ 0000000180002a40 f   GuSweepsMesh.obj
 0001:00001a50       ??__EminFError@_VecMathTests@aos@shdfnd@physx@@YAXXZ 0000000180002a50 f   GuSweepsMesh.obj
 0001:00001a60       ??__EminV3Error@_VecMathTests@aos@shdfnd@physx@@YAXXZ 0000000180002a60 f   GuSweepsMesh.obj
 0001:00001a70       ??__EminV4Error@_VecMathTests@aos@shdfnd@physx@@YAXXZ 0000000180002a70 f   GuSweepsMesh.obj
 0001:00001a80       ??__EmaxFError@_VecMathTests@aos@shdfnd@physx@@YAXXZ 0000000180002a80 f   GuTriangleMesh.obj
 0001:00001a90       ??__EmaxV3Error@_VecMathTests@aos@shdfnd@physx@@YAXXZ 0000000180002a90 f   GuTriangleMesh.obj
 0001:00001aa0       ??__EmaxV4Error@_VecMathTests@aos@shdfnd@physx@@YAXXZ 0000000180002aa0 f   GuTriangleMesh.obj
 0001:00001ab0       ??__EminFError@_VecMathTests@aos@shdfnd@physx@@YAXXZ 0000000180002ab0 f   GuTriangleMesh.obj
 0001:00001ac0       ??__EminV3Error@_VecMathTests@aos@shdfnd@physx@@YAXXZ 0000000180002ac0 f   GuTriangleMesh.obj
 0001:00001ad0       ??__EminV4Error@_VecMathTests@aos@shdfnd@physx@@YAXXZ 0000000180002ad0 f   GuTriangleMesh.obj
 0001:00001ae0       ??__EmaxFError@_VecMathTests@aos@shdfnd@physx@@YAXXZ 0000000180002ae0 f   GuTriangleMeshBV4.obj
 0001:00001af0       ??__EmaxV3Error@_VecMathTests@aos@shdfnd@physx@@YAXXZ 0000000180002af0 f   GuTriangleMeshBV4.obj
 0001:00001b00       ??__EmaxV4Error@_VecMathTests@aos@shdfnd@physx@@YAXXZ 0000000180002b00 f   GuTriangleMeshBV4.obj
 0001:00001b10       ??__EminFError@_VecMathTests@aos@shdfnd@physx@@YAXXZ 0000000180002b10 f   GuTriangleMeshBV4.obj
 0001:00001b20       ??__EminV3Error@_VecMathTests@aos@shdfnd@physx@@YAXXZ 0000000180002b20 f   GuTriangleMeshBV4.obj
 0001:00001b30       ??__EminV4Error@_VecMathTests@aos@shdfnd@physx@@YAXXZ 0000000180002b30 f   GuTriangleMeshBV4.obj
 0001:00001b40       ??__EmaxFError@_VecMathTests@aos@shdfnd@physx@@YAXXZ 0000000180002b40 f   GuTriangleMeshRTree.obj
 0001:00001b50       ??__EmaxV3Error@_VecMathTests@aos@shdfnd@physx@@YAXXZ 0000000180002b50 f   GuTriangleMeshRTree.obj
 0001:00001b60       ??__EmaxV4Error@_VecMathTests@aos@shdfnd@physx@@YAXXZ 0000000180002b60 f   GuTriangleMeshRTree.obj
 0001:00001b70       ??__EminFError@_VecMathTests@aos@shdfnd@physx@@YAXXZ 0000000180002b70 f   GuTriangleMeshRTree.obj
 0001:00001b80       ??__EminV3Error@_VecMathTests@aos@shdfnd@physx@@YAXXZ 0000000180002b80 f   GuTriangleMeshRTree.obj
 0001:00001b90       ??__EminV4Error@_VecMathTests@aos@shdfnd@physx@@YAXXZ 0000000180002b90 f   GuTriangleMeshRTree.obj
 0001:00001ba0       ??__EmaxFError@_VecMathTests@aos@shdfnd@physx@@YAXXZ 0000000180002ba0 f   GuBV32Build.obj
 0001:00001bb0       ??__EmaxV3Error@_VecMathTests@aos@shdfnd@physx@@YAXXZ 0000000180002bb0 f   GuBV32Build.obj
 0001:00001bc0       ??__EmaxV4Error@_VecMathTests@aos@shdfnd@physx@@YAXXZ 0000000180002bc0 f   GuBV32Build.obj
 0001:00001bd0       ??__EminFError@_VecMathTests@aos@shdfnd@physx@@YAXXZ 0000000180002bd0 f   GuBV32Build.obj
 0001:00001be0       ??__EminV3Error@_VecMathTests@aos@shdfnd@physx@@YAXXZ 0000000180002be0 f   GuBV32Build.obj
 0001:00001bf0       ??__EminV4Error@_VecMathTests@aos@shdfnd@physx@@YAXXZ 0000000180002bf0 f   GuBV32Build.obj
 0001:00001c00       ??__EmaxFError@_VecMathTests@aos@shdfnd@physx@@YAXXZ 0000000180002c00 f   GuPCMContactBoxBox.obj
 0001:00001c10       ??__EmaxV3Error@_VecMathTests@aos@shdfnd@physx@@YAXXZ 0000000180002c10 f   GuPCMContactBoxBox.obj
 0001:00001c20       ??__EmaxV4Error@_VecMathTests@aos@shdfnd@physx@@YAXXZ 0000000180002c20 f   GuPCMContactBoxBox.obj
 0001:00001c30       ??__EminFError@_VecMathTests@aos@shdfnd@physx@@YAXXZ 0000000180002c30 f   GuPCMContactBoxBox.obj
 0001:00001c40       ??__EminV3Error@_VecMathTests@aos@shdfnd@physx@@YAXXZ 0000000180002c40 f   GuPCMContactBoxBox.obj
 0001:00001c50       ??__EminV4Error@_VecMathTests@aos@shdfnd@physx@@YAXXZ 0000000180002c50 f   GuPCMContactBoxBox.obj
 0001:00001c60       ??__EmaxFError@_VecMathTests@aos@shdfnd@physx@@YAXXZ 0000000180002c60 f   GuPCMContactBoxConvex.obj
 0001:00001c70       ??__EmaxV3Error@_VecMathTests@aos@shdfnd@physx@@YAXXZ 0000000180002c70 f   GuPCMContactBoxConvex.obj
 0001:00001c80       ??__EmaxV4Error@_VecMathTests@aos@shdfnd@physx@@YAXXZ 0000000180002c80 f   GuPCMContactBoxConvex.obj
 0001:00001c90       ??__EminFError@_VecMathTests@aos@shdfnd@physx@@YAXXZ 0000000180002c90 f   GuPCMContactBoxConvex.obj
 0001:00001ca0       ??__EminV3Error@_VecMathTests@aos@shdfnd@physx@@YAXXZ 0000000180002ca0 f   GuPCMContactBoxConvex.obj
 0001:00001cb0       ??__EminV4Error@_VecMathTests@aos@shdfnd@physx@@YAXXZ 0000000180002cb0 f   GuPCMContactBoxConvex.obj
 0001:00001cc0       ??__EmaxFError@_VecMathTests@aos@shdfnd@physx@@YAXXZ 0000000180002cc0 f   GuPCMContactCapsuleBox.obj
 0001:00001cd0       ??__EmaxV3Error@_VecMathTests@aos@shdfnd@physx@@YAXXZ 0000000180002cd0 f   GuPCMContactCapsuleBox.obj
 0001:00001ce0       ??__EmaxV4Error@_VecMathTests@aos@shdfnd@physx@@YAXXZ 0000000180002ce0 f   GuPCMContactCapsuleBox.obj
 0001:00001cf0       ??__EminFError@_VecMathTests@aos@shdfnd@physx@@YAXXZ 0000000180002cf0 f   GuPCMContactCapsuleBox.obj
 0001:00001d00       ??__EminV3Error@_VecMathTests@aos@shdfnd@physx@@YAXXZ 0000000180002d00 f   GuPCMContactCapsuleBox.obj
 0001:00001d10       ??__EminV4Error@_VecMathTests@aos@shdfnd@physx@@YAXXZ 0000000180002d10 f   GuPCMContactCapsuleBox.obj
 0001:00001d20       ??__EmaxFError@_VecMathTests@aos@shdfnd@physx@@YAXXZ 0000000180002d20 f   GuPCMContactCapsuleCapsule.obj
 0001:00001d30       ??__EmaxV3Error@_VecMathTests@aos@shdfnd@physx@@YAXXZ 0000000180002d30 f   GuPCMContactCapsuleCapsule.obj
 0001:00001d40       ??__EmaxV4Error@_VecMathTests@aos@shdfnd@physx@@YAXXZ 0000000180002d40 f   GuPCMContactCapsuleCapsule.obj
 0001:00001d50       ??__EminFError@_VecMathTests@aos@shdfnd@physx@@YAXXZ 0000000180002d50 f   GuPCMContactCapsuleCapsule.obj
 0001:00001d60       ??__EminV3Error@_VecMathTests@aos@shdfnd@physx@@YAXXZ 0000000180002d60 f   GuPCMContactCapsuleCapsule.obj
 0001:00001d70       ??__EminV4Error@_VecMathTests@aos@shdfnd@physx@@YAXXZ 0000000180002d70 f   GuPCMContactCapsuleCapsule.obj
 0001:00001d80       ??__EmaxFError@_VecMathTests@aos@shdfnd@physx@@YAXXZ 0000000180002d80 f   GuPCMContactCapsuleConvex.obj
 0001:00001d90       ??__EmaxV3Error@_VecMathTests@aos@shdfnd@physx@@YAXXZ 0000000180002d90 f   GuPCMContactCapsuleConvex.obj
 0001:00001da0       ??__EmaxV4Error@_VecMathTests@aos@shdfnd@physx@@YAXXZ 0000000180002da0 f   GuPCMContactCapsuleConvex.obj
 0001:00001db0       ??__EminFError@_VecMathTests@aos@shdfnd@physx@@YAXXZ 0000000180002db0 f   GuPCMContactCapsuleConvex.obj
 0001:00001dc0       ??__EminV3Error@_VecMathTests@aos@shdfnd@physx@@YAXXZ 0000000180002dc0 f   GuPCMContactCapsuleConvex.obj
 0001:00001dd0       ??__EminV4Error@_VecMathTests@aos@shdfnd@physx@@YAXXZ 0000000180002dd0 f   GuPCMContactCapsuleConvex.obj
 0001:00001de0       ??__EmaxFError@_VecMathTests@aos@shdfnd@physx@@YAXXZ 0000000180002de0 f   GuPCMContactCapsuleHeightField.obj
 0001:00001df0       ??__EmaxV3Error@_VecMathTests@aos@shdfnd@physx@@YAXXZ 0000000180002df0 f   GuPCMContactCapsuleHeightField.obj
 0001:00001e00       ??__EmaxV4Error@_VecMathTests@aos@shdfnd@physx@@YAXXZ 0000000180002e00 f   GuPCMContactCapsuleHeightField.obj
 0001:00001e10       ??__EminFError@_VecMathTests@aos@shdfnd@physx@@YAXXZ 0000000180002e10 f   GuPCMContactCapsuleHeightField.obj
 0001:00001e20       ??__EminV3Error@_VecMathTests@aos@shdfnd@physx@@YAXXZ 0000000180002e20 f   GuPCMContactCapsuleHeightField.obj
 0001:00001e30       ??__EminV4Error@_VecMathTests@aos@shdfnd@physx@@YAXXZ 0000000180002e30 f   GuPCMContactCapsuleHeightField.obj
 0001:00001e40       ??__EmaxFError@_VecMathTests@aos@shdfnd@physx@@YAXXZ 0000000180002e40 f   GuPCMContactCapsuleMesh.obj
 0001:00001e50       ??__EmaxV3Error@_VecMathTests@aos@shdfnd@physx@@YAXXZ 0000000180002e50 f   GuPCMContactCapsuleMesh.obj
 0001:00001e60       ??__EmaxV4Error@_VecMathTests@aos@shdfnd@physx@@YAXXZ 0000000180002e60 f   GuPCMContactCapsuleMesh.obj
 0001:00001e70       ??__EminFError@_VecMathTests@aos@shdfnd@physx@@YAXXZ 0000000180002e70 f   GuPCMContactCapsuleMesh.obj
 0001:00001e80       ??__EminV3Error@_VecMathTests@aos@shdfnd@physx@@YAXXZ 0000000180002e80 f   GuPCMContactCapsuleMesh.obj
 0001:00001e90       ??__EminV4Error@_VecMathTests@aos@shdfnd@physx@@YAXXZ 0000000180002e90 f   GuPCMContactCapsuleMesh.obj
 0001:00001ea0       ??__EmaxFError@_VecMathTests@aos@shdfnd@physx@@YAXXZ 0000000180002ea0 f   GuPCMContactConvexCommon.obj
 0001:00001eb0       ??__EmaxV3Error@_VecMathTests@aos@shdfnd@physx@@YAXXZ 0000000180002eb0 f   GuPCMContactConvexCommon.obj
 0001:00001ec0       ??__EmaxV4Error@_VecMathTests@aos@shdfnd@physx@@YAXXZ 0000000180002ec0 f   GuPCMContactConvexCommon.obj
 0001:00001ed0       ??__EminFError@_VecMathTests@aos@shdfnd@physx@@YAXXZ 0000000180002ed0 f   GuPCMContactConvexCommon.obj
 0001:00001ee0       ??__EminV3Error@_VecMathTests@aos@shdfnd@physx@@YAXXZ 0000000180002ee0 f   GuPCMContactConvexCommon.obj
 0001:00001ef0       ??__EminV4Error@_VecMathTests@aos@shdfnd@physx@@YAXXZ 0000000180002ef0 f   GuPCMContactConvexCommon.obj
 0001:00001f00       ??__EmaxFError@_VecMathTests@aos@shdfnd@physx@@YAXXZ 0000000180002f00 f   GuPCMContactConvexConvex.obj
 0001:00001f10       ??__EmaxV3Error@_VecMathTests@aos@shdfnd@physx@@YAXXZ 0000000180002f10 f   GuPCMContactConvexConvex.obj
 0001:00001f20       ??__EmaxV4Error@_VecMathTests@aos@shdfnd@physx@@YAXXZ 0000000180002f20 f   GuPCMContactConvexConvex.obj
 0001:00001f30       ??__EminFError@_VecMathTests@aos@shdfnd@physx@@YAXXZ 0000000180002f30 f   GuPCMContactConvexConvex.obj
 0001:00001f40       ??__EminV3Error@_VecMathTests@aos@shdfnd@physx@@YAXXZ 0000000180002f40 f   GuPCMContactConvexConvex.obj
 0001:00001f50       ??__EminV4Error@_VecMathTests@aos@shdfnd@physx@@YAXXZ 0000000180002f50 f   GuPCMContactConvexConvex.obj
 0001:00001f60       ??__EmaxFError@_VecMathTests@aos@shdfnd@physx@@YAXXZ 0000000180002f60 f   GuPCMContactConvexHeightField.obj
 0001:00001f70       ??__EmaxV3Error@_VecMathTests@aos@shdfnd@physx@@YAXXZ 0000000180002f70 f   GuPCMContactConvexHeightField.obj
 0001:00001f80       ??__EmaxV4Error@_VecMathTests@aos@shdfnd@physx@@YAXXZ 0000000180002f80 f   GuPCMContactConvexHeightField.obj
 0001:00001f90       ??__EminFError@_VecMathTests@aos@shdfnd@physx@@YAXXZ 0000000180002f90 f   GuPCMContactConvexHeightField.obj
 0001:00001fa0       ??__EminV3Error@_VecMathTests@aos@shdfnd@physx@@YAXXZ 0000000180002fa0 f   GuPCMContactConvexHeightField.obj
 0001:00001fb0       ??__EminV4Error@_VecMathTests@aos@shdfnd@physx@@YAXXZ 0000000180002fb0 f   GuPCMContactConvexHeightField.obj
 0001:00001fc0       ??__EmaxFError@_VecMathTests@aos@shdfnd@physx@@YAXXZ 0000000180002fc0 f   GuPCMContactConvexMesh.obj
 0001:00001fd0       ??__EmaxV3Error@_VecMathTests@aos@shdfnd@physx@@YAXXZ 0000000180002fd0 f   GuPCMContactConvexMesh.obj
 0001:00001fe0       ??__EmaxV4Error@_VecMathTests@aos@shdfnd@physx@@YAXXZ 0000000180002fe0 f   GuPCMContactConvexMesh.obj
 0001:00001ff0       ??__EminFError@_VecMathTests@aos@shdfnd@physx@@YAXXZ 0000000180002ff0 f   GuPCMContactConvexMesh.obj
 0001:00002000       ??__EminV3Error@_VecMathTests@aos@shdfnd@physx@@YAXXZ 0000000180003000 f   GuPCMContactConvexMesh.obj
 0001:00002010       ??__EminV4Error@_VecMathTests@aos@shdfnd@physx@@YAXXZ 0000000180003010 f   GuPCMContactConvexMesh.obj
 0001:00002020       ??__EmaxFError@_VecMathTests@aos@shdfnd@physx@@YAXXZ 0000000180003020 f   GuPCMContactGenBoxConvex.obj
 0001:00002030       ??__EmaxV3Error@_VecMathTests@aos@shdfnd@physx@@YAXXZ 0000000180003030 f   GuPCMContactGenBoxConvex.obj
 0001:00002040       ??__EmaxV4Error@_VecMathTests@aos@shdfnd@physx@@YAXXZ 0000000180003040 f   GuPCMContactGenBoxConvex.obj
 0001:00002050       ??__EminFError@_VecMathTests@aos@shdfnd@physx@@YAXXZ 0000000180003050 f   GuPCMContactGenBoxConvex.obj
 0001:00002060       ??__EminV3Error@_VecMathTests@aos@shdfnd@physx@@YAXXZ 0000000180003060 f   GuPCMContactGenBoxConvex.obj
 0001:00002070       ??__EminV4Error@_VecMathTests@aos@shdfnd@physx@@YAXXZ 0000000180003070 f   GuPCMContactGenBoxConvex.obj
 0001:00002080       ??__EmaxFError@_VecMathTests@aos@shdfnd@physx@@YAXXZ 0000000180003080 f   GuPCMContactGenSphereCapsule.obj
 0001:00002090       ??__EmaxV3Error@_VecMathTests@aos@shdfnd@physx@@YAXXZ 0000000180003090 f   GuPCMContactGenSphereCapsule.obj
 0001:000020a0       ??__EmaxV4Error@_VecMathTests@aos@shdfnd@physx@@YAXXZ 00000001800030a0 f   GuPCMContactGenSphereCapsule.obj
 0001:000020b0       ??__EminFError@_VecMathTests@aos@shdfnd@physx@@YAXXZ 00000001800030b0 f   GuPCMContactGenSphereCapsule.obj
 0001:000020c0       ??__EminV3Error@_VecMathTests@aos@shdfnd@physx@@YAXXZ 00000001800030c0 f   GuPCMContactGenSphereCapsule.obj
 0001:000020d0       ??__EminV4Error@_VecMathTests@aos@shdfnd@physx@@YAXXZ 00000001800030d0 f   GuPCMContactGenSphereCapsule.obj
 0001:000020e0       ??__EmaxFError@_VecMathTests@aos@shdfnd@physx@@YAXXZ 00000001800030e0 f   GuPCMContactPlaneBox.obj
 0001:000020f0       ??__EmaxV3Error@_VecMathTests@aos@shdfnd@physx@@YAXXZ 00000001800030f0 f   GuPCMContactPlaneBox.obj
 0001:00002100       ??__EmaxV4Error@_VecMathTests@aos@shdfnd@physx@@YAXXZ 0000000180003100 f   GuPCMContactPlaneBox.obj
 0001:00002110       ??__EminFError@_VecMathTests@aos@shdfnd@physx@@YAXXZ 0000000180003110 f   GuPCMContactPlaneBox.obj
 0001:00002120       ??__EminV3Error@_VecMathTests@aos@shdfnd@physx@@YAXXZ 0000000180003120 f   GuPCMContactPlaneBox.obj
 0001:00002130       ??__EminV4Error@_VecMathTests@aos@shdfnd@physx@@YAXXZ 0000000180003130 f   GuPCMContactPlaneBox.obj
 0001:00002140       ??__EmaxFError@_VecMathTests@aos@shdfnd@physx@@YAXXZ 0000000180003140 f   GuPCMContactPlaneCapsule.obj
 0001:00002150       ??__EmaxV3Error@_VecMathTests@aos@shdfnd@physx@@YAXXZ 0000000180003150 f   GuPCMContactPlaneCapsule.obj
 0001:00002160       ??__EmaxV4Error@_VecMathTests@aos@shdfnd@physx@@YAXXZ 0000000180003160 f   GuPCMContactPlaneCapsule.obj
 0001:00002170       ??__EminFError@_VecMathTests@aos@shdfnd@physx@@YAXXZ 0000000180003170 f   GuPCMContactPlaneCapsule.obj
 0001:00002180       ??__EminV3Error@_VecMathTests@aos@shdfnd@physx@@YAXXZ 0000000180003180 f   GuPCMContactPlaneCapsule.obj
 0001:00002190       ??__EminV4Error@_VecMathTests@aos@shdfnd@physx@@YAXXZ 0000000180003190 f   GuPCMContactPlaneCapsule.obj
 0001:000021a0       ??__EmaxFError@_VecMathTests@aos@shdfnd@physx@@YAXXZ 00000001800031a0 f   GuPCMContactPlaneConvex.obj
 0001:000021b0       ??__EmaxV3Error@_VecMathTests@aos@shdfnd@physx@@YAXXZ 00000001800031b0 f   GuPCMContactPlaneConvex.obj
 0001:000021c0       ??__EmaxV4Error@_VecMathTests@aos@shdfnd@physx@@YAXXZ 00000001800031c0 f   GuPCMContactPlaneConvex.obj
 0001:000021d0       ??__EminFError@_VecMathTests@aos@shdfnd@physx@@YAXXZ 00000001800031d0 f   GuPCMContactPlaneConvex.obj
 0001:000021e0       ??__EminV3Error@_VecMathTests@aos@shdfnd@physx@@YAXXZ 00000001800031e0 f   GuPCMContactPlaneConvex.obj
 0001:000021f0       ??__EminV4Error@_VecMathTests@aos@shdfnd@physx@@YAXXZ 00000001800031f0 f   GuPCMContactPlaneConvex.obj
 0001:00002200       ??__EmaxFError@_VecMathTests@aos@shdfnd@physx@@YAXXZ 0000000180003200 f   GuPCMContactSphereBox.obj
 0001:00002210       ??__EmaxV3Error@_VecMathTests@aos@shdfnd@physx@@YAXXZ 0000000180003210 f   GuPCMContactSphereBox.obj
 0001:00002220       ??__EmaxV4Error@_VecMathTests@aos@shdfnd@physx@@YAXXZ 0000000180003220 f   GuPCMContactSphereBox.obj
 0001:00002230       ??__EminFError@_VecMathTests@aos@shdfnd@physx@@YAXXZ 0000000180003230 f   GuPCMContactSphereBox.obj
 0001:00002240       ??__EminV3Error@_VecMathTests@aos@shdfnd@physx@@YAXXZ 0000000180003240 f   GuPCMContactSphereBox.obj
 0001:00002250       ??__EminV4Error@_VecMathTests@aos@shdfnd@physx@@YAXXZ 0000000180003250 f   GuPCMContactSphereBox.obj
 0001:00002260       ??__EmaxFError@_VecMathTests@aos@shdfnd@physx@@YAXXZ 0000000180003260 f   GuPCMContactSphereCapsule.obj
 0001:00002270       ??__EmaxV3Error@_VecMathTests@aos@shdfnd@physx@@YAXXZ 0000000180003270 f   GuPCMContactSphereCapsule.obj
 0001:00002280       ??__EmaxV4Error@_VecMathTests@aos@shdfnd@physx@@YAXXZ 0000000180003280 f   GuPCMContactSphereCapsule.obj
 0001:00002290       ??__EminFError@_VecMathTests@aos@shdfnd@physx@@YAXXZ 0000000180003290 f   GuPCMContactSphereCapsule.obj
 0001:000022a0       ??__EminV3Error@_VecMathTests@aos@shdfnd@physx@@YAXXZ 00000001800032a0 f   GuPCMContactSphereCapsule.obj
 0001:000022b0       ??__EminV4Error@_VecMathTests@aos@shdfnd@physx@@YAXXZ 00000001800032b0 f   GuPCMContactSphereCapsule.obj
 0001:000022c0       ??__EmaxFError@_VecMathTests@aos@shdfnd@physx@@YAXXZ 00000001800032c0 f   GuPCMContactSphereConvex.obj
 0001:000022d0       ??__EmaxV3Error@_VecMathTests@aos@shdfnd@physx@@YAXXZ 00000001800032d0 f   GuPCMContactSphereConvex.obj
 0001:000022e0       ??__EmaxV4Error@_VecMathTests@aos@shdfnd@physx@@YAXXZ 00000001800032e0 f   GuPCMContactSphereConvex.obj
 0001:000022f0       ??__EminFError@_VecMathTests@aos@shdfnd@physx@@YAXXZ 00000001800032f0 f   GuPCMContactSphereConvex.obj
 0001:00002300       ??__EminV3Error@_VecMathTests@aos@shdfnd@physx@@YAXXZ 0000000180003300 f   GuPCMContactSphereConvex.obj
 0001:00002310       ??__EminV4Error@_VecMathTests@aos@shdfnd@physx@@YAXXZ 0000000180003310 f   GuPCMContactSphereConvex.obj
 0001:00002320       ??__EmaxFError@_VecMathTests@aos@shdfnd@physx@@YAXXZ 0000000180003320 f   GuPCMContactSphereHeightField.obj
 0001:00002330       ??__EmaxV3Error@_VecMathTests@aos@shdfnd@physx@@YAXXZ 0000000180003330 f   GuPCMContactSphereHeightField.obj
 0001:00002340       ??__EmaxV4Error@_VecMathTests@aos@shdfnd@physx@@YAXXZ 0000000180003340 f   GuPCMContactSphereHeightField.obj
 0001:00002350       ??__EminFError@_VecMathTests@aos@shdfnd@physx@@YAXXZ 0000000180003350 f   GuPCMContactSphereHeightField.obj
 0001:00002360       ??__EminV3Error@_VecMathTests@aos@shdfnd@physx@@YAXXZ 0000000180003360 f   GuPCMContactSphereHeightField.obj
 0001:00002370       ??__EminV4Error@_VecMathTests@aos@shdfnd@physx@@YAXXZ 0000000180003370 f   GuPCMContactSphereHeightField.obj
 0001:00002380       ??__EmaxFError@_VecMathTests@aos@shdfnd@physx@@YAXXZ 0000000180003380 f   GuPCMContactSphereMesh.obj
 0001:00002390       ??__EmaxV3Error@_VecMathTests@aos@shdfnd@physx@@YAXXZ 0000000180003390 f   GuPCMContactSphereMesh.obj
 0001:000023a0       ??__EmaxV4Error@_VecMathTests@aos@shdfnd@physx@@YAXXZ 00000001800033a0 f   GuPCMContactSphereMesh.obj
 0001:000023b0       ??__EminFError@_VecMathTests@aos@shdfnd@physx@@YAXXZ 00000001800033b0 f   GuPCMContactSphereMesh.obj
 0001:000023c0       ??__EminV3Error@_VecMathTests@aos@shdfnd@physx@@YAXXZ 00000001800033c0 f   GuPCMContactSphereMesh.obj
 0001:000023d0       ??__EminV4Error@_VecMathTests@aos@shdfnd@physx@@YAXXZ 00000001800033d0 f   GuPCMContactSphereMesh.obj
 0001:000023e0       ??__EmaxFError@_VecMathTests@aos@shdfnd@physx@@YAXXZ 00000001800033e0 f   GuPCMContactSpherePlane.obj
 0001:000023f0       ??__EmaxV3Error@_VecMathTests@aos@shdfnd@physx@@YAXXZ 00000001800033f0 f   GuPCMContactSpherePlane.obj
 0001:00002400       ??__EmaxV4Error@_VecMathTests@aos@shdfnd@physx@@YAXXZ 0000000180003400 f   GuPCMContactSpherePlane.obj
 0001:00002410       ??__EminFError@_VecMathTests@aos@shdfnd@physx@@YAXXZ 0000000180003410 f   GuPCMContactSpherePlane.obj
 0001:00002420       ??__EminV3Error@_VecMathTests@aos@shdfnd@physx@@YAXXZ 0000000180003420 f   GuPCMContactSpherePlane.obj
 0001:00002430       ??__EminV4Error@_VecMathTests@aos@shdfnd@physx@@YAXXZ 0000000180003430 f   GuPCMContactSpherePlane.obj
 0001:00002440       ??__EmaxFError@_VecMathTests@aos@shdfnd@physx@@YAXXZ 0000000180003440 f   GuPCMContactSphereSphere.obj
 0001:00002450       ??__EmaxV3Error@_VecMathTests@aos@shdfnd@physx@@YAXXZ 0000000180003450 f   GuPCMContactSphereSphere.obj
 0001:00002460       ??__EmaxV4Error@_VecMathTests@aos@shdfnd@physx@@YAXXZ 0000000180003460 f   GuPCMContactSphereSphere.obj
 0001:00002470       ??__EminFError@_VecMathTests@aos@shdfnd@physx@@YAXXZ 0000000180003470 f   GuPCMContactSphereSphere.obj
 0001:00002480       ??__EminV3Error@_VecMathTests@aos@shdfnd@physx@@YAXXZ 0000000180003480 f   GuPCMContactSphereSphere.obj
 0001:00002490       ??__EminV4Error@_VecMathTests@aos@shdfnd@physx@@YAXXZ 0000000180003490 f   GuPCMContactSphereSphere.obj
 0001:000024a0       ??__EmaxFError@_VecMathTests@aos@shdfnd@physx@@YAXXZ 00000001800034a0 f   GuPCMShapeConvex.obj
 0001:000024b0       ??__EmaxV3Error@_VecMathTests@aos@shdfnd@physx@@YAXXZ 00000001800034b0 f   GuPCMShapeConvex.obj
 0001:000024c0       ??__EmaxV4Error@_VecMathTests@aos@shdfnd@physx@@YAXXZ 00000001800034c0 f   GuPCMShapeConvex.obj
 0001:000024d0       ??__EminFError@_VecMathTests@aos@shdfnd@physx@@YAXXZ 00000001800034d0 f   GuPCMShapeConvex.obj
 0001:000024e0       ??__EminV3Error@_VecMathTests@aos@shdfnd@physx@@YAXXZ 00000001800034e0 f   GuPCMShapeConvex.obj
 0001:000024f0       ??__EminV4Error@_VecMathTests@aos@shdfnd@physx@@YAXXZ 00000001800034f0 f   GuPCMShapeConvex.obj
 0001:00002500       ??__EmaxFError@_VecMathTests@aos@shdfnd@physx@@YAXXZ 0000000180003500 f   GuPCMTriangleContactGen.obj
 0001:00002510       ??__EmaxV3Error@_VecMathTests@aos@shdfnd@physx@@YAXXZ 0000000180003510 f   GuPCMTriangleContactGen.obj
 0001:00002520       ??__EmaxV4Error@_VecMathTests@aos@shdfnd@physx@@YAXXZ 0000000180003520 f   GuPCMTriangleContactGen.obj
 0001:00002530       ??__EminFError@_VecMathTests@aos@shdfnd@physx@@YAXXZ 0000000180003530 f   GuPCMTriangleContactGen.obj
 0001:00002540       ??__EminV3Error@_VecMathTests@aos@shdfnd@physx@@YAXXZ 0000000180003540 f   GuPCMTriangleContactGen.obj
 0001:00002550       ??__EminV4Error@_VecMathTests@aos@shdfnd@physx@@YAXXZ 0000000180003550 f   GuPCMTriangleContactGen.obj
 0001:00002560       ??__EmaxFError@_VecMathTests@aos@shdfnd@physx@@YAXXZ 0000000180003560 f   GuPersistentContactManifold.obj
 0001:00002570       ??__EmaxV3Error@_VecMathTests@aos@shdfnd@physx@@YAXXZ 0000000180003570 f   GuPersistentContactManifold.obj
 0001:00002580       ??__EmaxV4Error@_VecMathTests@aos@shdfnd@physx@@YAXXZ 0000000180003580 f   GuPersistentContactManifold.obj
 0001:00002590       ??__EminFError@_VecMathTests@aos@shdfnd@physx@@YAXXZ 0000000180003590 f   GuPersistentContactManifold.obj
 0001:000025a0       ??__EminV3Error@_VecMathTests@aos@shdfnd@physx@@YAXXZ 00000001800035a0 f   GuPersistentContactManifold.obj
 0001:000025b0       ??__EminV4Error@_VecMathTests@aos@shdfnd@physx@@YAXXZ 00000001800035b0 f   GuPersistentContactManifold.obj
 0001:000025c0       ??__EmaxFError@_VecMathTests@aos@shdfnd@physx@@YAXXZ 00000001800035c0 f   GuSweepBoxBox.obj
 0001:000025d0       ??__EmaxV3Error@_VecMathTests@aos@shdfnd@physx@@YAXXZ 00000001800035d0 f   GuSweepBoxBox.obj
 0001:000025e0       ??__EmaxV4Error@_VecMathTests@aos@shdfnd@physx@@YAXXZ 00000001800035e0 f   GuSweepBoxBox.obj
 0001:000025f0       ??__EminFError@_VecMathTests@aos@shdfnd@physx@@YAXXZ 00000001800035f0 f   GuSweepBoxBox.obj
 0001:00002600       ??__EminV3Error@_VecMathTests@aos@shdfnd@physx@@YAXXZ 0000000180003600 f   GuSweepBoxBox.obj
 0001:00002610       ??__EminV4Error@_VecMathTests@aos@shdfnd@physx@@YAXXZ 0000000180003610 f   GuSweepBoxBox.obj
 0001:00002620       ??__EmaxFError@_VecMathTests@aos@shdfnd@physx@@YAXXZ 0000000180003620 f   GuSweepBoxSphere.obj
 0001:00002630       ??__EmaxV3Error@_VecMathTests@aos@shdfnd@physx@@YAXXZ 0000000180003630 f   GuSweepBoxSphere.obj
 0001:00002640       ??__EmaxV4Error@_VecMathTests@aos@shdfnd@physx@@YAXXZ 0000000180003640 f   GuSweepBoxSphere.obj
 0001:00002650       ??__EminFError@_VecMathTests@aos@shdfnd@physx@@YAXXZ 0000000180003650 f   GuSweepBoxSphere.obj
 0001:00002660       ??__EminV3Error@_VecMathTests@aos@shdfnd@physx@@YAXXZ 0000000180003660 f   GuSweepBoxSphere.obj
 0001:00002670       ??__EminV4Error@_VecMathTests@aos@shdfnd@physx@@YAXXZ 0000000180003670 f   GuSweepBoxSphere.obj
 0001:00002680       ??__EmaxFError@_VecMathTests@aos@shdfnd@physx@@YAXXZ 0000000180003680 f   GuSweepBoxTriangle_FeatureBased.obj
 0001:00002690       ??__EmaxV3Error@_VecMathTests@aos@shdfnd@physx@@YAXXZ 0000000180003690 f   GuSweepBoxTriangle_FeatureBased.obj
 0001:000026a0       ??__EmaxV4Error@_VecMathTests@aos@shdfnd@physx@@YAXXZ 00000001800036a0 f   GuSweepBoxTriangle_FeatureBased.obj
 0001:000026b0       ??__EminFError@_VecMathTests@aos@shdfnd@physx@@YAXXZ 00000001800036b0 f   GuSweepBoxTriangle_FeatureBased.obj
 0001:000026c0       ??__EminV3Error@_VecMathTests@aos@shdfnd@physx@@YAXXZ 00000001800036c0 f   GuSweepBoxTriangle_FeatureBased.obj
 0001:000026d0       ??__EminV4Error@_VecMathTests@aos@shdfnd@physx@@YAXXZ 00000001800036d0 f   GuSweepBoxTriangle_FeatureBased.obj
 0001:000026e0       ??__EmaxFError@_VecMathTests@aos@shdfnd@physx@@YAXXZ 00000001800036e0 f   GuSweepBoxTriangle_SAT.obj
 0001:000026f0       ??__EmaxV3Error@_VecMathTests@aos@shdfnd@physx@@YAXXZ 00000001800036f0 f   GuSweepBoxTriangle_SAT.obj
 0001:00002700       ??__EmaxV4Error@_VecMathTests@aos@shdfnd@physx@@YAXXZ 0000000180003700 f   GuSweepBoxTriangle_SAT.obj
 0001:00002710       ??__EminFError@_VecMathTests@aos@shdfnd@physx@@YAXXZ 0000000180003710 f   GuSweepBoxTriangle_SAT.obj
 0001:00002720       ??__EminV3Error@_VecMathTests@aos@shdfnd@physx@@YAXXZ 0000000180003720 f   GuSweepBoxTriangle_SAT.obj
 0001:00002730       ??__EminV4Error@_VecMathTests@aos@shdfnd@physx@@YAXXZ 0000000180003730 f   GuSweepBoxTriangle_SAT.obj
 0001:00002740       ??__EmaxFError@_VecMathTests@aos@shdfnd@physx@@YAXXZ 0000000180003740 f   GuSweepCapsuleBox.obj
 0001:00002750       ??__EmaxV3Error@_VecMathTests@aos@shdfnd@physx@@YAXXZ 0000000180003750 f   GuSweepCapsuleBox.obj
 0001:00002760       ??__EmaxV4Error@_VecMathTests@aos@shdfnd@physx@@YAXXZ 0000000180003760 f   GuSweepCapsuleBox.obj
 0001:00002770       ??__EminFError@_VecMathTests@aos@shdfnd@physx@@YAXXZ 0000000180003770 f   GuSweepCapsuleBox.obj
 0001:00002780       ??__EminV3Error@_VecMathTests@aos@shdfnd@physx@@YAXXZ 0000000180003780 f   GuSweepCapsuleBox.obj
 0001:00002790       ??__EminV4Error@_VecMathTests@aos@shdfnd@physx@@YAXXZ 0000000180003790 f   GuSweepCapsuleBox.obj
 0001:000027a0       ??__EmaxFError@_VecMathTests@aos@shdfnd@physx@@YAXXZ 00000001800037a0 f   GuSweepCapsuleTriangle.obj
 0001:000027b0       ??__EmaxV3Error@_VecMathTests@aos@shdfnd@physx@@YAXXZ 00000001800037b0 f   GuSweepCapsuleTriangle.obj
 0001:000027c0       ??__EmaxV4Error@_VecMathTests@aos@shdfnd@physx@@YAXXZ 00000001800037c0 f   GuSweepCapsuleTriangle.obj
 0001:000027d0       ??__EminFError@_VecMathTests@aos@shdfnd@physx@@YAXXZ 00000001800037d0 f   GuSweepCapsuleTriangle.obj
 0001:000027e0       ??__EminV3Error@_VecMathTests@aos@shdfnd@physx@@YAXXZ 00000001800037e0 f   GuSweepCapsuleTriangle.obj
 0001:000027f0       ??__EminV4Error@_VecMathTests@aos@shdfnd@physx@@YAXXZ 00000001800037f0 f   GuSweepCapsuleTriangle.obj
 0001:00002800       ??__EmaxFError@_VecMathTests@aos@shdfnd@physx@@YAXXZ 0000000180003800 f   GuSweepSphereTriangle.obj
 0001:00002810       ??__EmaxV3Error@_VecMathTests@aos@shdfnd@physx@@YAXXZ 0000000180003810 f   GuSweepSphereTriangle.obj
 0001:00002820       ??__EmaxV4Error@_VecMathTests@aos@shdfnd@physx@@YAXXZ 0000000180003820 f   GuSweepSphereTriangle.obj
 0001:00002830       ??__EminFError@_VecMathTests@aos@shdfnd@physx@@YAXXZ 0000000180003830 f   GuSweepSphereTriangle.obj
 0001:00002840       ??__EminV3Error@_VecMathTests@aos@shdfnd@physx@@YAXXZ 0000000180003840 f   GuSweepSphereTriangle.obj
 0001:00002850       ??__EminV4Error@_VecMathTests@aos@shdfnd@physx@@YAXXZ 0000000180003850 f   GuSweepSphereTriangle.obj
 0001:00002860       ??__EmaxFError@_VecMathTests@aos@shdfnd@physx@@YAXXZ 0000000180003860 f   GuSweepTriangleUtils.obj
 0001:00002870       ??__EmaxV3Error@_VecMathTests@aos@shdfnd@physx@@YAXXZ 0000000180003870 f   GuSweepTriangleUtils.obj
 0001:00002880       ??__EmaxV4Error@_VecMathTests@aos@shdfnd@physx@@YAXXZ 0000000180003880 f   GuSweepTriangleUtils.obj
 0001:00002890       ??__EminFError@_VecMathTests@aos@shdfnd@physx@@YAXXZ 0000000180003890 f   GuSweepTriangleUtils.obj
 0001:000028a0       ??__EminV3Error@_VecMathTests@aos@shdfnd@physx@@YAXXZ 00000001800038a0 f   GuSweepTriangleUtils.obj
 0001:000028b0       ??__EminV4Error@_VecMathTests@aos@shdfnd@physx@@YAXXZ 00000001800038b0 f   GuSweepTriangleUtils.obj
 0001:00009280       $LN24                      000000018000a280     CmWindowsDelayLoadHook.obj
 0001:0000a544       $LN727                     000000018000b544     GuBounds.obj
 0001:0000a718       $LN78                      000000018000b718     GuBounds.obj
 0001:0000a780       ?computeMeshBounds@@YAXAEBVPxVec3@physx@@AEBVPxMat33Padded@Gu@2@PEIBVCenterExtentsPadded@42@AEBVPxMeshScale@2@AEAVVec3p@42@4@Z 000000018000b780 f   GuBounds.obj
 0001:0000af20       ?computePlaneBounds@@YAXAEAVPxBounds3@physx@@AEBVPxTransform@2@MM@Z 000000018000bf20 f   GuBounds.obj
 0001:0000b1c0       ?computeScaledMatrix@@YAXAEAVPxMat33Padded@Gu@physx@@AEBVPxMeshScale@3@@Z 000000018000c1c0 f   GuBounds.obj
 0001:0000c700       ??_GLocalReport@?1??sweepBox_HeightFieldGeom_Precise@@YA_NAEBVPxGeometry@physx@@AEBVPxTransform@3@AEBVPxBoxGeometry@3@1AEBVBox@Gu@3@AEBVPxVec3@3@MAEAUPxSweepHit@3@V?$PxFlags@W4Enum@PxHitFlag@physx@@G@3@M@Z@UEAAPEAXI@Z 000000018000d700 f   GuCCTSweepTests.obj
 0001:0000c700       ??_GHfTrianglesEntityReport2@?A0x7e29a6de@@UEAAPEAXI@Z 000000018000d700 f   GuMeshQuery.obj
 0001:0000d350       ?onEvent@LocalReport@?1??sweepBox_HeightFieldGeom_Precise@@YA_NAEBVPxGeometry@physx@@AEBVPxTransform@4@AEBVPxBoxGeometry@4@1AEBVBox@Gu@4@AEBVPxVec3@4@MAEAUPxSweepHit@4@V?$PxFlags@W4Enum@PxHitFlag@physx@@G@4@M@Z@UEAA_NIPEAI@Z 000000018000e350 f   GuCCTSweepTests.obj
 0001:0000d640       ?sweepBoxVsTriangles@@YA_NIPEBVPxTriangle@physx@@AEBVBox@Gu@2@AEBVPxVec3@2@MAEAUPxSweepHit@2@V?$PxFlags@W4Enum@PxHitFlag@physx@@G@2@_NPEBI@Z 000000018000e640 f   GuCCTSweepTests.obj
 0001:00010794       $LN46                      0000000180011794     GuGeometryUnion.obj
 0001:00012980       ?loadMeshData@@YAPEAVTriangleMeshData@Gu@physx@@AEAVPxInputStream@3@@Z 0000000180013980 f   GuMeshFactory.obj
 0001:00015d40       ?getBinaryMetaData@ShadowConvexMeshGeometry@?1??0GeometryUnion@Gu@physx@@SAXAEAVPxOutputStream@4@@Z@SAX0@Z 0000000180016d40 f   GuMetaData.obj
 0001:00015fb0       ?getBinaryMetaData@ShadowHeightFieldGeometry@?1??0GeometryUnion@Gu@physx@@SAXAEAVPxOutputStream@4@@Z@SAX0@Z 0000000180016fb0 f   GuMetaData.obj
 0001:00016250       ?getBinaryMetaData@ShadowTriangleMeshGeometry@?1??0GeometryUnion@Gu@physx@@SAXAEAVPxOutputStream@4@@Z@SAX0@Z 0000000180017250 f   GuMetaData.obj
 0001:00016d20       ?getBinaryMetaData_BVDataPackedQ@@YAXAEAVPxOutputStream@physx@@@Z 0000000180017d20 f   GuMetaData.obj
 0001:00016fa0       ?getBinaryMetaData_BigConvexRawData@@YAXAEAVPxOutputStream@physx@@@Z 0000000180017fa0 f   GuMetaData.obj
 0001:000171d0       ?getBinaryMetaData_ConvexHullData@@YAXAEAVPxOutputStream@physx@@@Z 00000001800181d0 f   GuMetaData.obj
 0001:00017440       ?getBinaryMetaData_HeightFieldData@@YAXAEAVPxOutputStream@physx@@@Z 0000000180018440 f   GuMetaData.obj
 0001:00017770       ?getBinaryMetaData_RTreePage@@YAXAEAVPxOutputStream@physx@@@Z 0000000180018770 f   GuMetaData.obj
 0001:00018100       ?GeomMTDCallback_NotSupported@@YA_NAEAVPxVec3@physx@@AEAMAEBVPxGeometry@2@AEBVPxTransform@2@23@Z 0000000180019100 f   GuMTD.obj
 0001:00018100       ?GeomOverlapCallback_NotSupported@@YA_NAEBVPxGeometry@physx@@AEBVPxTransform@2@01PEAUTriggerCache@Gu@2@@Z 0000000180019100 f   GuOverlapTests.obj
 0001:00018110       ?GeomMTDCallback_SphereSphere@@YA_NAEAVPxVec3@physx@@AEAMAEBVPxGeometry@2@AEBVPxTransform@2@23@Z 0000000180019110 f   GuMTD.obj
 0001:000181f0       ?GeomMTDCallback_SpherePlane@@YA_NAEAVPxVec3@physx@@AEAMAEBVPxGeometry@2@AEBVPxTransform@2@23@Z 00000001800191f0 f   GuMTD.obj
 0001:000182c0       ?GeomMTDCallback_SphereCapsule@@YA_NAEAVPxVec3@physx@@AEAMAEBVPxGeometry@2@AEBVPxTransform@2@23@Z 00000001800192c0 f   GuMTD.obj
 0001:00018400       ?GeomMTDCallback_SphereBox@@YA_NAEAVPxVec3@physx@@AEAMAEBVPxGeometry@2@AEBVPxTransform@2@23@Z 0000000180019400 f   GuMTD.obj
 0001:00018530       ?GeomMTDCallback_SphereConvex@@YA_NAEAVPxVec3@physx@@AEAMAEBVPxGeometry@2@AEBVPxTransform@2@23@Z 0000000180019530 f   GuMTD.obj
 0001:00018590       ?GeomMTDCallback_SphereMesh@@YA_NAEAVPxVec3@physx@@AEAMAEBVPxGeometry@2@AEBVPxTransform@2@23@Z 0000000180019590 f   GuMTD.obj
 0001:00018700       ?GeomMTDCallback_PlaneCapsule@@YA_NAEAVPxVec3@physx@@AEAMAEBVPxGeometry@2@AEBVPxTransform@2@23@Z 0000000180019700 f   GuMTD.obj
 0001:000188e0       ?GeomMTDCallback_PlaneBox@@YA_NAEAVPxVec3@physx@@AEAMAEBVPxGeometry@2@AEBVPxTransform@2@23@Z 00000001800198e0 f   GuMTD.obj
 0001:00018a00       ?GeomMTDCallback_PlaneConvex@@YA_NAEAVPxVec3@physx@@AEAMAEBVPxGeometry@2@AEBVPxTransform@2@23@Z 0000000180019a00 f   GuMTD.obj
 0001:00018a50       ?GeomMTDCallback_CapsuleCapsule@@YA_NAEAVPxVec3@physx@@AEAMAEBVPxGeometry@2@AEBVPxTransform@2@23@Z 0000000180019a50 f   GuMTD.obj
 0001:00018c30       ?GeomMTDCallback_CapsuleBox@@YA_NAEAVPxVec3@physx@@AEAMAEBVPxGeometry@2@AEBVPxTransform@2@23@Z 0000000180019c30 f   GuMTD.obj
 0001:00018e10       ?GeomMTDCallback_CapsuleConvex@@YA_NAEAVPxVec3@physx@@AEAMAEBVPxGeometry@2@AEBVPxTransform@2@23@Z 0000000180019e10 f   GuMTD.obj
 0001:00018f20       ?GeomMTDCallback_CapsuleMesh@@YA_NAEAVPxVec3@physx@@AEAMAEBVPxGeometry@2@AEBVPxTransform@2@23@Z 0000000180019f20 f   GuMTD.obj
 0001:00019130       ?GeomMTDCallback_BoxBox@@YA_NAEAVPxVec3@physx@@AEAMAEBVPxGeometry@2@AEBVPxTransform@2@23@Z 000000018001a130 f   GuMTD.obj
 0001:00019310       ?GeomMTDCallback_BoxConvex@@YA_NAEAVPxVec3@physx@@AEAMAEBVPxGeometry@2@AEBVPxTransform@2@23@Z 000000018001a310 f   GuMTD.obj
 0001:00019410       ?GeomMTDCallback_BoxMesh@@YA_NAEAVPxVec3@physx@@AEAMAEBVPxGeometry@2@AEBVPxTransform@2@23@Z 000000018001a410 f   GuMTD.obj
 0001:00019680       ?GeomMTDCallback_ConvexConvex@@YA_NAEAVPxVec3@physx@@AEAMAEBVPxGeometry@2@AEBVPxTransform@2@23@Z 000000018001a680 f   GuMTD.obj
 0001:00019690       ?GeomMTDCallback_ConvexMesh@@YA_NAEAVPxVec3@physx@@AEAMAEBVPxGeometry@2@AEBVPxTransform@2@23@Z 000000018001a690 f   GuMTD.obj
 0001:000197a0       ?GeomMTDCallback_SphereHeightField@@YA_NAEAVPxVec3@physx@@AEAMAEBVPxGeometry@2@AEBVPxTransform@2@23@Z 000000018001a7a0 f   GuMTD.obj
 0001:00019910       ?GeomMTDCallback_CapsuleHeightField@@YA_NAEAVPxVec3@physx@@AEAMAEBVPxGeometry@2@AEBVPxTransform@2@23@Z 000000018001a910 f   GuMTD.obj
