 PhysXCooking_64

 Timestamp is 677b72ab (Mon Jan  6 15:05:31 2025)

 Preferred load address is 0000000180000000

 Start         Length     Name                   Class
 0001:00000000 000003c0H .text$di                CODE
 0001:000003c0 00046aa0H .text$mn                CODE
 0001:00046e60 00000040H .text$mn$00             CODE
 0001:00046ea0 00000620H .text$x                 CODE
 0002:00000000 00000278H .idata$5                DATA
 0002:00000278 00000028H .00cfg                  DATA
 0002:000002a0 00000008H .CRT$XCA                DATA
 0002:000002a8 000001e0H .CRT$XCU                DATA
 0002:00000488 00000008H .CRT$XCZ                DATA
 0002:00000490 00000008H .CRT$XIA                DATA
 0002:00000498 00000018H .CRT$XIC                DATA
 0002:000004b0 00000008H .CRT$XIZ                DATA
 0002:000004b8 00000008H .CRT$XPA                DATA
 0002:000004c0 00000010H .CRT$XPX                DATA
 0002:000004d0 00000008H .CRT$XPXA               DATA
 0002:000004d8 00000008H .CRT$XPZ                DATA
 0002:000004e0 00000008H .CRT$XTA                DATA
 0002:000004e8 00000008H .CRT$XTZ                DATA
 0002:000004f0 00000000H .gehcont$y              DATA
 0002:000004f0 00000000H .gfids$y                DATA
 0002:000004f0 0000b410H .rdata                  DATA
 0002:0000b900 00000000H .rdata$CastGuardVftablesA DATA
 0002:0000b900 00000000H .rdata$CastGuardVftablesC DATA
 0002:0000b900 0000043cH .rdata$r                DATA
 0002:0000bd3c 000001d4H .rdata$voltmd           DATA
 0002:0000bf10 00000418H .rdata$zzzdbg           DATA
 0002:0000c328 00000008H .rtc$IAA                DATA
 0002:0000c330 00000008H .rtc$IZZ                DATA
 0002:0000c338 00000008H .rtc$TAA                DATA
 0002:0000c340 00000008H .rtc$TZZ                DATA
 0002:0000c348 00003ff8H .xdata                  DATA
 0002:00010340 00000084H .xdata$x                DATA
 0002:000103c4 00000040H .didat$2                DATA
 0002:00010404 00000024H .didat$3                DATA
 0002:00010428 00000188H .didat$4                DATA
 0002:000105b0 00000950H .didat$6                DATA
 0002:00010f00 00000190H .didat$7                DATA
 0002:00011090 00001d00H .edata                  DATA
 0002:00012d90 00000014H .idata$2                DATA
 0002:00012da4 00000014H .idata$3                DATA
 0002:00012db8 00000278H .idata$4                DATA
 0002:00013030 000005aeH .idata$6                DATA
 0003:00000000 00000a30H .data                   DATA
 0003:00000a30 000005e8H .data$r                 DATA
 0003:00001018 000000f0H .data$rs                DATA
 0003:00001108 00000188H .didat$5                DATA
 0003:00001290 000015d0H .bss                    DATA
 0004:00000000 000034a4H .pdata                  DATA
 0005:00000000 0000230cH _RDATA                  DATA
 0006:00000000 000000a0H .rsrc$01                DATA
 0006:000000a0 000004b0H .rsrc$02                DATA

  Address         Publics by Value              Rva+Base               Lib:Object

 0000:00000000       __x64_code_ranges_to_entry_points_count 0000000000000000     <absolute>
 0000:00000000       __x64_code_ranges_to_entry_points 0000000000000000     <absolute>
 0000:00000000       __arm64x_redirection_metadata 0000000000000000     <absolute>
 0000:00000000       __guard_fids_count         0000000000000000     <absolute>
 0000:00000000       __guard_iat_table          0000000000000000     <absolute>
 0000:00000000       __arm64x_extra_rfe_table   0000000000000000     <absolute>
 0000:00000000       ___safe_se_handler_table   0000000000000000     <absolute>
 0000:00000000       __guard_iat_count          0000000000000000     <absolute>
 0000:00000000       __guard_longjmp_count      0000000000000000     <absolute>
 0000:00000000       __hybrid_code_map          0000000000000000     <absolute>
 0000:00000000       __dynamic_value_reloc_table 0000000000000000     <absolute>
 0000:00000000       __arm64x_extra_rfe_table_size 0000000000000000     <absolute>
 0000:00000000       ___safe_se_handler_count   0000000000000000     <absolute>
 0000:00000000       __guard_longjmp_table      0000000000000000     <absolute>
 0000:00000000       __hybrid_auxiliary_iat     0000000000000000     <absolute>
 0000:00000000       __hybrid_auxiliary_iat_copy 0000000000000000     <absolute>
 0000:00000000       __AbsoluteZero             0000000000000000     <absolute>
 0000:00000000       __guard_check_icall_a64n_fptr 0000000000000000     <absolute>
 0000:00000000       __guard_eh_cont_count      0000000000000000     <absolute>
 0000:00000000       __guard_fids_table         0000000000000000     <absolute>
 0000:00000000       __arm64x_redirection_metadata_count 0000000000000000     <absolute>
 0000:00000000       __enclave_config           0000000000000000     <absolute>
 0000:00000000       __guard_eh_cont_table      0000000000000000     <absolute>
 0000:00000000       __arm64x_native_entrypoint 0000000000000000     <absolute>
 0000:00000000       __hybrid_code_map_count    0000000000000000     <absolute>
 0000:00000100       __guard_flags              0000000000000100     <absolute>
 0000:00000000       __ImageBase                0000000180000000     <linker-defined>
 0001:000003c0       ??$?_UV?$ReflectionAllocator@VAdjTriangle@physx@@@shdfnd@physx@@@UserAllocated@shdfnd@physx@@SAPEAX_KV?$ReflectionAllocator@VAdjTriangle@physx@@@12@PEBDH@Z 00000001800013c0 f i Adjacencies.obj
 0001:00000460       ??0AdjacenciesBuilder@physx@@QEAA@XZ 0000000180001460 f   Adjacencies.obj
 0001:00000470       ??4MutexImpl@shdfnd@physx@@QEAAAEAV012@AEBV012@@Z 0000000180001470 f i Adjacencies.obj
 0001:00000470       ??0HeightFieldData@Gu@physx@@QEAA@W4PxEMPTY@2@@Z 0000000180001470 f i Cooking.obj
 0001:00000470       ??0Box@Gu@physx@@QEAA@XZ   0000000180001470 f i ConvexHullUtils.obj
 0001:00000470       ??0BigConvexData@physx@@QEAA@W4PxEMPTY@1@@Z 0000000180001470 f i BigConvexDataBuilder.obj
 0001:00000470       ?getPaddedBounds@HeightFieldData@Gu@physx@@QEBAAEBVCenterExtentsPadded@23@XZ 0000000180001470 f i Cooking.obj
 0001:00000470       ??0Allocator@shdfnd@physx@@QEAA@PEBD@Z 0000000180001470 f i Adjacencies.obj
 0001:00000470       ?getAABB@AABBTreeBuildNode@Gu@physx@@QEBAAEBVPxBounds3@3@XZ 0000000180001470 f i BVHStructureBuilder.obj
 0001:00000470       ??4PxFoundation@physx@@QEAAAEAV01@AEBV01@@Z 0000000180001470 f i Adjacencies.obj
 0001:00000470       ??$forward@_K@std@@YA$$QEA_KAEA_K@Z 0000000180001470 f i libvcruntime:undname.obj
 0001:00000470       ??4Allocator@shdfnd@physx@@QEAAAEAV012@$$QEAV012@@Z 0000000180001470 f i Adjacencies.obj
 0001:00000470       ??0AABBTreeBuildNode@Gu@physx@@QEAA@XZ 0000000180001470 f i BVHStructureBuilder.obj
 0001:00000470       ??4Allocator@shdfnd@physx@@QEAAAEAV012@AEBV012@@Z 0000000180001470 f i Adjacencies.obj
 0001:00000480       ??0PxFoundation@physx@@QEAA@XZ 0000000180001480 f i Adjacencies.obj
 0001:00000480       ??0PxFoundation@physx@@QEAA@AEBV01@@Z 0000000180001480 f i Adjacencies.obj
 0001:00000490       ??1Adjacencies@physx@@QEAA@XZ 0000000180001490 f   Adjacencies.obj
 0001:00000500       ??1AdjacenciesBuilder@physx@@QEAA@XZ 0000000180001500 f   Adjacencies.obj
 0001:00000510       ??1PxFoundation@physx@@MEAA@XZ 0000000180001510 f i Adjacencies.obj
 0001:00000520       ??_EPxFoundation@physx@@MEAAPEAXI@Z 0000000180001520 f i Adjacencies.obj
 0001:000005b0       ??1Box@Gu@physx@@QEAA@XZ   00000001800015b0 f i ConvexHullUtils.obj
 0001:000005b0       ??_FAllocator@shdfnd@physx@@QEAAXXZ 00000001800015b0 f i Adjacencies.obj
 0001:000005b0       ??1HeightFieldData@Gu@physx@@QEAA@XZ 00000001800015b0 f i Cooking.obj
 0001:000005b0       ??1AABBTreeBuildNode@Gu@physx@@QEAA@XZ 00000001800015b0 f i BVHStructureBuilder.obj
 0001:000005b0       ?onMeshIndexFormatChange@TriangleMeshBuilder@physx@@UEAAXXZ 00000001800015b0 f i TriangleMeshBuilder.obj
 0001:000005b0       _guard_check_icall_nop     00000001800015b0 f i LIBCMT:guard_support.obj
 0001:000005b0       ??1BigConvexDataBuilder@physx@@QEAA@XZ 00000001800015b0 f i BigConvexDataBuilder.obj
 0001:000005c0       ?ComputeNbBoundaryEdges@Adjacencies@physx@@QEBAIXZ 00000001800015c0 f   Adjacencies.obj
 0001:000008a0       ?GetNbHits@RadixSort@Cm@physx@@QEBAIXZ 00000001800018a0 f i Adjacencies.obj
 0001:000008b0       ?GetNbTotalCalls@RadixSort@Cm@physx@@QEBAIXZ 00000001800018b0 f i Adjacencies.obj
 0001:000008c0       ?GetRanks@RadixSort@Cm@physx@@QEBAPEBIXZ 00000001800018c0 f i Adjacencies.obj
 0001:000008c0       ?getErrorCallback@Foundation@shdfnd@physx@@UEAAAEAVPxErrorCallback@3@XZ 00000001800018c0 f i Adjacencies.obj
 0001:000008d0       ?GetRecyclable@RadixSort@Cm@physx@@QEBAPEAIXZ 00000001800018d0 f i Adjacencies.obj
 0001:000008d0       ?GetValencies@BigConvexData@physx@@QEBAPEBUValency@Gu@2@XZ 00000001800018d0 f i BigConvexDataBuilder.obj
 0001:000008d0       ?getPos@AABBTreeBuildNode@Gu@physx@@QEBAPEBV123@XZ 00000001800018d0 f i BVHStructureBuilder.obj
 0001:000008e0       ?Init@AdjacenciesBuilder@physx@@QEAA_NAEBUADJACENCIESCREATE@2@@Z 00000001800018e0 f   Adjacencies.obj
 0001:00000e90       ?getAllocator@Foundation@shdfnd@physx@@QEAAAEAVPxAllocatorCallback@3@XZ 0000000180001e90 f i Adjacencies.obj
 0001:00000ea0       ?getAllocatorCallback@Foundation@shdfnd@physx@@UEAAAEAVPxAllocatorCallback@3@XZ 0000000180001ea0 f i Adjacencies.obj
 0001:00000eb0       ?getErrorLevel@Foundation@shdfnd@physx@@UEBA?AW4Enum@PxErrorCode@3@XZ 0000000180001eb0 f i Adjacencies.obj
 0001:00000ec0       ?getInternalErrorCallback@Foundation@shdfnd@physx@@QEAAAEAVPxErrorCallback@3@XZ 0000000180001ec0 f i Adjacencies.obj
 0001:00000ed0       ?getNamedAllocMap@Foundation@shdfnd@physx@@QEAAAEAV?$HashMap@PEBVNamedAllocator@shdfnd@physx@@PEBDU?$Hash@PEBVNamedAllocator@shdfnd@physx@@@23@VNonTrackingAllocator@23@@23@XZ 0000000180001ed0 f i Adjacencies.obj
 0001:00000ee0       ?getNamedAllocMutex@Foundation@shdfnd@physx@@QEAAAEAV?$MutexT@VAllocator@shdfnd@physx@@@23@XZ 0000000180001ee0 f i Adjacencies.obj
 0001:00000ef0       ?getReportAllocationNames@Foundation@shdfnd@physx@@UEBA_NXZ 0000000180001ef0 f i Adjacencies.obj
 0001:00000f00       ?getTempAllocFreeTable@Foundation@shdfnd@physx@@QEAAAEAV?$Array@PEATTempAllocatorChunk@shdfnd@physx@@VAllocator@23@@23@XZ 0000000180001f00 f i Adjacencies.obj
 0001:00000f10       ?getTempAllocMutex@Foundation@shdfnd@physx@@QEAAAEAV?$MutexT@VAllocator@shdfnd@physx@@@23@XZ 0000000180001f10 f i Adjacencies.obj
 0001:00000f20       ?invalidateRanks@RadixSort@Cm@physx@@QEAAXXZ 0000000180001f20 f i Adjacencies.obj
 0001:00000f30       ?setErrorLevel@Foundation@shdfnd@physx@@UEAAXW4Enum@PxErrorCode@3@@Z 0000000180001f30 f i Adjacencies.obj
 0001:00000f40       ?setReportAllocationNames@Foundation@shdfnd@physx@@UEAAX_N@Z 0000000180001f40 f i Adjacencies.obj
 0001:00000f50       ??0DebugText@Cm@physx@@QEAA@AEBU012@@Z 0000000180001f50 f i Cooking.obj
 0001:00000f50       ??0DebugText@Cm@physx@@QEAA@$$QEAU012@@Z 0000000180001f50 f i Cooking.obj
 0001:00001030       ??0HeightFieldData@Gu@physx@@QEAA@AEBU012@@Z 0000000180002030 f i Cooking.obj
 0001:00001030       ??4HeightFieldData@Gu@physx@@QEAAAEAU012@$$QEAU012@@Z 0000000180002030 f i Cooking.obj
 0001:00001030       ??4HeightFieldData@Gu@physx@@QEAAAEAU012@AEBU012@@Z 0000000180002030 f i Cooking.obj
 0001:00001030       ??0HeightFieldData@Gu@physx@@QEAA@$$QEAU012@@Z 0000000180002030 f i Cooking.obj
 0001:00001090       ??0HeightFieldData@Gu@physx@@QEAA@XZ 0000000180002090 f i Cooking.obj
 0001:000010a0       ??0RenderOutput@Cm@physx@@QEAA@AEAVRenderBuffer@12@@Z 00000001800020a0 f i Cooking.obj
 0001:000010f0       ??0RenderOutput@Cm@physx@@QEAA@AEBV012@@Z 00000001800020f0 f i Cooking.obj
 0001:00001190       ??1PxHeightField@physx@@MEAA@XZ 0000000180002190 f i Cooking.obj
 0001:00001190       ??1PxConvexMesh@physx@@MEAA@XZ 0000000180002190 f i Cooking.obj
 0001:000011a0       ??4DebugText@Cm@physx@@QEAAAEAU012@AEBU012@@Z 00000001800021a0 f i Cooking.obj
 0001:000011a0       ??4DebugText@Cm@physx@@QEAAAEAU012@$$QEAU012@@Z 00000001800021a0 f i Cooking.obj
 0001:000012d0       ??4FPUGuard@shdfnd@physx@@QEAAAEAV012@AEBV012@@Z 00000001800022d0 f i Cooking.obj
 0001:000012f0       ??_GCooking@physx@@UEAAPEAXI@Z 00000001800022f0 f i Cooking.obj
 0001:000012f0       ??_ECooking@physx@@UEAAPEAXI@Z 00000001800022f0 f i Cooking.obj
 0001:00001340       ??_EPxBase@physx@@MEAAPEAXI@Z 0000000180002340 f i Cooking.obj
 0001:00001340       ??_GPxBase@physx@@MEAAPEAXI@Z 0000000180002340 f i Cooking.obj
 0001:00001370       ??_GPxCooking@physx@@MEAAPEAXI@Z 0000000180002370 f i Cooking.obj
 0001:00001370       ??_EPxCooking@physx@@MEAAPEAXI@Z 0000000180002370 f i Cooking.obj
 0001:000013a0       ?allocate@?$Array@UPxDebugLine@physx@@V?$ReflectionAllocator@UPxDebugLine@physx@@@shdfnd@2@@shdfnd@physx@@IEAAPEAUPxDebugLine@3@I@Z 00000001800023a0 f i Cooking.obj
 0001:00001440       ?computeHullPolygons@Cooking@physx@@UEBA_NAEBVPxSimpleTriangleMesh@2@AEAVPxAllocatorCallback@2@AEAIAEAPEAVPxVec3@2@2AEAPEAI2AEAPEAUPxHullPolygon@2@@Z 0000000180002440 f   Cooking.obj
 0001:00001620       ?cookBVHStructure@Cooking@physx@@UEBA_NAEBVPxBVHStructureDesc@2@AEAVPxOutputStream@2@@Z 0000000180002620 f   Cooking.obj
 0001:000016d0       ?cookConvexMesh@Cooking@physx@@UEBA_NAEBVPxConvexMeshDesc@2@AEAVPxOutputStream@2@PEAW4Enum@PxConvexMeshCookingResult@2@@Z 00000001800026d0 f   Cooking.obj
 0001:000018b0       ?cookConvexMeshInternal@Cooking@physx@@AEBA_NAEBVPxConvexMeshDesc@2@AEAVConvexMeshBuilder@2@PEAVConvexHullLib@2@PEAW4Enum@PxConvexMeshCookingResult@2@@Z 00000001800028b0 f   Cooking.obj
 0001:00001b20       ?cookHeightField@Cooking@physx@@UEBA_NAEBVPxHeightFieldDesc@2@AEAVPxOutputStream@2@@Z 0000000180002b20 f   Cooking.obj
 0001:00001bf0       ?cookTriangleMesh@Cooking@physx@@UEBA_NAEBVPxTriangleMeshDesc@2@AEAVPxOutputStream@2@PEAW4Enum@PxTriangleMeshCookingResult@2@@Z 0000000180002bf0 f   Cooking.obj
 0001:00001d30       ?copy@?$Array@UPxDebugLine@physx@@V?$ReflectionAllocator@UPxDebugLine@physx@@@shdfnd@2@@shdfnd@physx@@KAXPEAUPxDebugLine@3@0PEBU43@@Z 0000000180002d30 f i Cooking.obj
 0001:00001ee0       ?createBVHStructure@Cooking@physx@@UEBAPEAVPxBVHStructure@2@AEBVPxBVHStructureDesc@2@AEAVPxPhysicsInsertionCallback@2@@Z 0000000180002ee0 f   Cooking.obj
 0001:00001f90       ?createConvexMesh@Cooking@physx@@UEBAPEAVPxConvexMesh@2@AEBVPxConvexMeshDesc@2@AEAVPxPhysicsInsertionCallback@2@PEAW4Enum@PxConvexMeshCookingResult@2@@Z 0000000180002f90 f   Cooking.obj
 0001:00002190       ?createHeightField@Cooking@physx@@UEBAPEAVPxHeightField@2@AEBVPxHeightFieldDesc@2@AEAVPxPhysicsInsertionCallback@2@@Z 0000000180003190 f   Cooking.obj
 0001:000022f0       ?createTriangleMesh@Cooking@physx@@UEBAPEAVPxTriangleMesh@2@AEBVPxTriangleMeshDesc@2@AEAVPxPhysicsInsertionCallback@2@PEAW4Enum@PxTriangleMeshCookingResult@2@@Z 00000001800032f0 f   Cooking.obj
 0001:00002440       ?getConcreteTypeName@PxConvexMesh@physx@@UEBAPEBDXZ 0000000180003440 f i Cooking.obj
 0001:00002450       ?getConcreteTypeName@PxHeightField@physx@@UEBAPEBDXZ 0000000180003450 f i Cooking.obj
 0001:00002460       ?getConvexEdgeThreshold@HeightField@Gu@physx@@UEBAMXZ 0000000180003460 f i Cooking.obj
 0001:00002470       ?getFlags@HeightField@Gu@physx@@UEBA?AV?$PxFlags@W4Enum@PxHeightFieldFlag@physx@@G@3@XZ 0000000180003470 f i Cooking.obj
 0001:00002480       ?getFormat@HeightField@Gu@physx@@UEBA?AW4Enum@PxHeightFieldFormat@3@XZ 0000000180003480 f i Cooking.obj
 0001:00002490       ?getHeight@HeightField@Gu@physx@@UEBAMMM@Z 0000000180003490 f i Cooking.obj
 0001:000024d0       ?getHeightInternal2@HeightField@Gu@physx@@QEBAMIMM@Z 00000001800034d0 f i Cooking.obj
 0001:00002640       ?getIndexBuffer@ConvexMesh@Gu@physx@@UEBAPEBEXZ 0000000180003640 f i Cooking.obj
 0001:00002680       ?getNbColumns@HeightField@Gu@physx@@UEBAIXZ 0000000180003680 f i Cooking.obj
 0001:00002690       ?getNbPolygons@ConvexMesh@Gu@physx@@UEBAIXZ 0000000180003690 f i Cooking.obj
 0001:000026a0       ?getNbRows@HeightField@Gu@physx@@UEBAIXZ 00000001800036a0 f i Cooking.obj
 0001:000026b0       ?getNbVertices@ConvexMesh@Gu@physx@@UEBAIXZ 00000001800036b0 f i Cooking.obj
 0001:000026c0       ?getParams@Cooking@physx@@UEBAAEBUPxCookingParams@2@XZ 00000001800036c0 f   Cooking.obj
 0001:000026c0       ?getDenormalizeScale@QuantizerImpl@@UEBAAEBVPxVec3@physx@@XZ 00000001800036c0 f   Quantizer.obj
 0001:000026d0       ?getSample@HeightField@Gu@physx@@UEBAAEBUPxHeightFieldSample@3@II@Z 00000001800036d0 f i Cooking.obj
 0001:000026e0       ?getSampleStride@HeightField@Gu@physx@@UEBAIXZ 00000001800036e0 f i Cooking.obj
 0001:000026f0       ?getTimestamp@HeightField@Gu@physx@@UEBAIXZ 00000001800036f0 f i Cooking.obj
 0001:00002700       ?getTriangleMaterialIndex@HeightField@Gu@physx@@UEBAGI@Z 0000000180003700 f i Cooking.obj
 0001:00002730       ?getTriangleNormal@HeightField@Gu@physx@@UEBA?AVPxVec3@3@I@Z 0000000180003730 f i Cooking.obj
 0001:00002830       ?getVertices@ConvexMesh@Gu@physx@@UEBAPEBVPxVec3@3@XZ 0000000180003830 f i Cooking.obj
 0001:00002850       ?isKindOf@PxBase@physx@@MEBA_NPEBD@Z 0000000180003850 f i Cooking.obj
 0001:00002880       ?isKindOf@PxConvexMesh@physx@@MEBA_NPEBD@Z 0000000180003880 f i Cooking.obj
 0001:000028d0       ?isKindOf@PxHeightField@physx@@MEBA_NPEBD@Z 00000001800038d0 f i Cooking.obj
 0001:00002920       ?isReleasable@PxBase@physx@@UEBA_NXZ 0000000180003920 f i Cooking.obj
 0001:00002930       ?outputSegment@RenderOutput@Cm@physx@@QEAAXAEBVPxVec3@3@0@Z 0000000180003930 f i Cooking.obj
 0001:000029f0       ?platformMismatch@Cooking@physx@@UEBA_NXZ 00000001800039f0 f   Cooking.obj
 0001:00002a00       ?preExportDataReset@HeightField@Gu@physx@@QEAAXXZ 0000000180003a00 f i Cooking.obj
 0001:00002a00       ?preExportDataReset@ConvexMesh@Gu@physx@@QEAAXXZ 0000000180003a00 f i Cooking.obj
 0001:00002a10       ?recreate@?$Array@UPxDebugLine@physx@@V?$ReflectionAllocator@UPxDebugLine@physx@@@shdfnd@2@@shdfnd@physx@@IEAAXI@Z 0000000180003a10 f i Cooking.obj
 0001:00002aa0       ?release@Cooking@physx@@UEAAXXZ 0000000180003aa0 f   Cooking.obj
 0001:00002ac0       ?reserveSegments@RenderOutput@Cm@physx@@QEAAPEAUPxDebugLine@3@I@Z 0000000180003ac0 f i Cooking.obj
 0001:00002b30       ?setParams@Cooking@physx@@UEAAXAEBUPxCookingParams@2@@Z 0000000180003b30 f   Cooking.obj
 0001:00002b90       ?validateConvexMesh@Cooking@physx@@UEBA_NAEBVPxConvexMeshDesc@2@@Z 0000000180003b90 f   Cooking.obj
 0001:00002bf0       ?validateTriangleMesh@Cooking@physx@@UEBA_NAEBVPxTriangleMeshDesc@2@@Z 0000000180003bf0 f   Cooking.obj
 0001:00002d00       PxCreateCooking            0000000180003d00 f   Cooking.obj
 0001:00002df0       ??0ReducedVertexCloud@physx@@QEAA@PEBVPxVec3@1@I@Z 0000000180003df0 f   CookingUtils.obj
 0001:00002e10       ??1ReducedVertexCloud@physx@@QEAA@XZ 0000000180003e10 f   CookingUtils.obj
 0001:00002e20       ?Clean@ReducedVertexCloud@physx@@QEAAAEAV12@XZ 0000000180003e20 f   CookingUtils.obj
 0001:00002e90       ?Reduce@ReducedVertexCloud@physx@@QEAA_NPEAUREDUCEDCLOUD@2@@Z 0000000180003e90 f   CookingUtils.obj
 0001:000031b0       ??$?_UI@@YAPEAX_KV?$ReflectionAllocator@I@shdfnd@physx@@PEBDH@Z 00000001800041b0 f i EdgeList.obj
 0001:00003250       ??0EdgeListBuilder@Gu@physx@@QEAA@XZ 0000000180004250 f   EdgeList.obj
 0001:00003270       ??1EdgeList@Gu@physx@@QEAA@XZ 0000000180004270 f   EdgeList.obj
 0001:00003310       ??1EdgeListBuilder@Gu@physx@@QEAA@XZ 0000000180004310 f   EdgeList.obj
 0001:00003320       ?computeActiveEdges@EdgeListBuilder@Gu@physx@@AEAA_NIPEBIPEBGPEBVPxVec3@3@M@Z 0000000180004320 f   EdgeList.obj
 0001:00004960       ?createEdgesToFaces@EdgeListBuilder@Gu@physx@@AEAA_NIPEBIPEBG@Z 0000000180005960 f   EdgeList.obj
 0001:00004bc0       ?createFacesToEdges@EdgeListBuilder@Gu@physx@@AEAA_NIPEBIPEBG@Z 0000000180005bc0 f   EdgeList.obj
 0001:00005030       ?init@EdgeListBuilder@Gu@physx@@QEAA_NAEBUEDGELISTCREATE@23@@Z 0000000180006030 f   EdgeList.obj
 0001:00005160       ??0MeshCleaner@physx@@QEAA@IPEBVPxVec3@1@IPEBIM@Z 0000000180006160 f   MeshCleaner.obj
 0001:00005b00       ??1MeshCleaner@physx@@QEAA@XZ 0000000180006b00 f   MeshCleaner.obj
 0001:00005b90       ??$kmeans_cluster@VPxVec3@physx@@M@@YAIPEBVPxVec3@physx@@IIPEAV01@PEAIMM@Z 0000000180006b90 f i Quantizer.obj
 0001:000064d0       ??_GQuantizer@physx@@MEAAPEAXI@Z 00000001800074d0 f i Quantizer.obj
 0001:000064d0       ??_EQuantizer@physx@@MEAAPEAXI@Z 00000001800074d0 f i Quantizer.obj
 0001:00006500       ??_GQuantizerImpl@@EEAAPEAXI@Z 0000000180007500 f i Quantizer.obj
 0001:00006500       ??_EQuantizerImpl@@EEAAPEAXI@Z 0000000180007500 f i Quantizer.obj
 0001:000065d0       ?createQuantizer@physx@@YAPEAVQuantizer@1@XZ 00000001800075d0 f   Quantizer.obj
 0001:00006680       ?getDenormalizeCenter@QuantizerImpl@@UEBAAEBVPxVec3@physx@@XZ 0000000180007680 f i Quantizer.obj
 0001:00006690       ?growAndPushBack@?$Array@VPxVec3@physx@@V?$ReflectionAllocator@VPxVec3@physx@@@shdfnd@2@@shdfnd@physx@@IEAAAEAVPxVec3@3@AEBV43@@Z 0000000180007690 f i Quantizer.obj
 0001:00006860       ?kmeansQuantize3D@QuantizerImpl@@UEAAPEBVPxVec3@physx@@IPEBV23@I_NIAEAI@Z 0000000180007860 f i Quantizer.obj
 0001:00006ac0       ?normalizeInput@QuantizerImpl@@AEAAXIPEBVPxVec3@physx@@I@Z 0000000180007ac0 f i Quantizer.obj
 0001:00006ef0       ?release@QuantizerImpl@@UEAAXXZ 0000000180007ef0 f i Quantizer.obj
 0001:00006f10       ??$copy@V?$ReflectionAllocator@USlab@NodeAllocator@Gu@physx@@@shdfnd@physx@@@?$Array@USlab@NodeAllocator@Gu@physx@@V?$ReflectionAllocator@USlab@NodeAllocator@Gu@physx@@@shdfnd@4@@shdfnd@physx@@IEAAXAEBV012@@Z 0000000180007f10 f i BVHStructureBuilder.obj
 0001:00006f90       ??0AABBTreeBuildNode@Gu@physx@@QEAA@AEBV012@@Z 0000000180007f90 f i BVHStructureBuilder.obj
 0001:00006f90       ??4AABBTreeBuildNode@Gu@physx@@QEAAAEAV012@AEBV012@@Z 0000000180007f90 f i BVHStructureBuilder.obj
 0001:00006fd0       ??0AABBTreeBuildParams@Gu@physx@@QEAA@IIPEBVPxBounds3@2@@Z 0000000180007fd0 f i BVHStructureBuilder.obj
 0001:00006ff0       ??0BVHStructureBuilder@physx@@QEAA@XZ 0000000180007ff0 f   BVHStructureBuilder.obj
 0001:00007010       ??0BuildStats@Gu@physx@@QEAA@XZ 0000000180008010 f i BVHStructureBuilder.obj
 0001:00007020       ??0NodeAllocator@Gu@physx@@QEAA@AEBV012@@Z 0000000180008020 f i BVHStructureBuilder.obj
 0001:00007060       ?reset@AABBTreeBuildParams@Gu@physx@@QEAAXXZ 0000000180008060 f i BVHStructureBuilder.obj
 0001:00007060       ??1AABBTreeBuildParams@Gu@physx@@QEAA@XZ 0000000180008060 f i BVHStructureBuilder.obj
 0001:000070c0       ??1BVHStructureBuilder@physx@@QEAA@XZ 00000001800080c0 f   BVHStructureBuilder.obj
 0001:00007140       ??4AABBTreeBuildParams@Gu@physx@@QEAAAEAV012@AEBV012@@Z 0000000180008140 f i BVHStructureBuilder.obj
 0001:00007160       ??4BuildStats@Gu@physx@@QEAAAEAU012@$$QEAU012@@Z 0000000180008160 f i BVHStructureBuilder.obj
 0001:00007170       ??4BuildStats@Gu@physx@@QEAAAEAU012@AEBU012@@Z 0000000180008170 f i BVHStructureBuilder.obj
 0001:00007180       ??4NodeAllocator@Gu@physx@@QEAAAEAV012@AEBV012@@Z 0000000180008180 f i BVHStructureBuilder.obj
 0001:00007230       ??_FAABBTreeBuildParams@Gu@physx@@QEAAXXZ 0000000180008230 f i BVHStructureBuilder.obj
 0001:00007250       ??_V@YAXPEAX_K@Z           0000000180008250 f i LIBCMT:delete_array_size.obj
 0001:00007250       ?__global_delete@@YAXPEAX_K@Z 0000000180008250 f i BVHStructureBuilder.obj
 0001:00007260       ?allocate@?$Array@USlab@NodeAllocator@Gu@physx@@V?$ReflectionAllocator@USlab@NodeAllocator@Gu@physx@@@shdfnd@4@@shdfnd@physx@@IEAAPEAUSlab@NodeAllocator@Gu@3@I@Z 0000000180008260 f i BVHStructureBuilder.obj
 0001:00007300       ?getCount@BuildStats@Gu@physx@@QEBAIXZ 0000000180008300 f i BVHStructureBuilder.obj
 0001:00007310       ?getNbRuntimePrimitives@AABBTreeBuildNode@Gu@physx@@QEBAIXZ 0000000180008310 f i BVHStructureBuilder.obj
 0001:00007310       ?getNbPrimitives@AABBTreeBuildNode@Gu@physx@@QEBAIXZ 0000000180008310 f i BVHStructureBuilder.obj
 0001:00007320       ?getNeg@AABBTreeBuildNode@Gu@physx@@QEBAPEBV123@XZ 0000000180008320 f i BVHStructureBuilder.obj
 0001:00007340       ?getPrimitives@AABBTreeBuildNode@Gu@physx@@QEAAPEAIPEAI@Z 0000000180008340 f i BVHStructureBuilder.obj
 0001:00007340       ?getPrimitives@AABBTreeBuildNode@Gu@physx@@QEBAPEBIPEBI@Z 0000000180008340 f i BVHStructureBuilder.obj
 0001:00007350       ?increaseCount@BuildStats@Gu@physx@@QEAAXI@Z 0000000180008350 f i BVHStructureBuilder.obj
 0001:00007360       ?isLeaf@AABBTreeBuildNode@Gu@physx@@QEBA_NXZ 0000000180008360 f i BVHStructureBuilder.obj
 0001:00007370       ?loadFromDesc@BVHStructureBuilder@physx@@QEAA_NAEBVPxBVHStructureDesc@2@@Z 0000000180008370 f   BVHStructureBuilder.obj
 0001:00007840       ?moveData@BVHStructureBuilder@physx@@QEAAXAEAUBVHStructureData@Gu@2@@Z 0000000180008840 f   BVHStructureBuilder.obj
 0001:00007880       ?recreate@?$Array@USlab@NodeAllocator@Gu@physx@@V?$ReflectionAllocator@USlab@NodeAllocator@Gu@physx@@@shdfnd@4@@shdfnd@physx@@IEAAXI@Z 0000000180008880 f i BVHStructureBuilder.obj
 0001:00007930       ?reset@BuildStats@Gu@physx@@QEAAXXZ 0000000180008930 f i BVHStructureBuilder.obj
 0001:00007940       ?save@BVHStructureBuilder@physx@@QEBA_NAEAVPxOutputStream@2@_N@Z 0000000180008940 f   BVHStructureBuilder.obj
 0001:00007ac0       ?setCount@BuildStats@Gu@physx@@QEAAXI@Z 0000000180008ac0 f i BVHStructureBuilder.obj
 0001:00007ad0       ?setNbRunTimePrimitives@AABBTreeBuildNode@Gu@physx@@QEAAXI@Z 0000000180008ad0 f i BVHStructureBuilder.obj
 0001:00007ae0       ?saveHeightField@physx@@YA_NAEBVHeightField@Gu@1@AEAVPxOutputStream@1@_N@Z 0000000180008ae0 f   HeightFieldCooking.obj
 0001:00007d20       ??$quickSelectFirstK@UBoundsLTE@physx@@@quickSelect@physx@@YAXPEIAIIIIAEBUBoundsLTE@1@@Z 0000000180008d20 f i RTreeCooking.obj
 0001:00007f00       ??$smallSort@I$$CBUSortBoundsPredicate@physx@@@internal@shdfnd@physx@@YAXPEAIHHAEBUSortBoundsPredicate@2@@Z 0000000180008f00 f i RTreeCooking.obj
 0001:000081d0       ??$sort@IU?$Less@I@shdfnd@physx@@V?$ReflectionAllocator@I@23@@shdfnd@physx@@YAXPEAIIAEBU?$Less@I@01@AEBV?$ReflectionAllocator@I@01@I@Z 00000001800091d0 f i RTreeCooking.obj
 0001:00008620       ??$sort@IUSortBoundsPredicate@physx@@V?$ReflectionAllocator@I@shdfnd@2@@shdfnd@physx@@YAXPEAIIAEBUSortBoundsPredicate@1@AEBV?$ReflectionAllocator@I@01@I@Z 0000000180009620 f i RTreeCooking.obj
 0001:00008b20       ?allocate@?$Array@UInterval@physx@@V?$InlineAllocator@$0CAAA@V?$ReflectionAllocator@UInterval@physx@@@shdfnd@physx@@@shdfnd@2@@shdfnd@physx@@IEAAPEAUInterval@3@I@Z 0000000180009b20 f i RTreeCooking.obj
 0001:00008be0       ?allocate@?$Array@UPxBounds3V@physx@@V?$ReflectionAllocator@UPxBounds3V@physx@@@shdfnd@2@@shdfnd@physx@@IEAAPEAUPxBounds3V@3@I@Z 0000000180009be0 f i RTreeCooking.obj
 0001:00008c80       ?allocate@?$Array@URTreeNodeNQ@physx@@V?$ReflectionAllocator@URTreeNodeNQ@physx@@@shdfnd@2@@shdfnd@physx@@IEAAPEAURTreeNodeNQ@3@I@Z 0000000180009c80 f i RTreeCooking.obj
 0001:00008d20       ?allocate@?$Array@URTreeNodeQ@Gu@physx@@V?$ReflectionAllocator@URTreeNodeQ@Gu@physx@@@shdfnd@3@@shdfnd@physx@@IEAAPEAURTreeNodeQ@Gu@3@I@Z 0000000180009d20 f i RTreeCooking.obj
 0001:00008dc0       ?allocate@?$Array@VPxVec3@physx@@V?$ReflectionAllocator@VPxVec3@physx@@@shdfnd@2@@shdfnd@physx@@IEAAPEAVPxVec3@3@I@Z 0000000180009dc0 f i RTreeCooking.obj
 0001:00008e60       ?allocate@?$ReflectionAllocator@I@shdfnd@physx@@QEAAPEAX_KPEBDH@Z 0000000180009e60 f i RTreeCooking.obj
 0001:00009b30       ?buildFromTriangles@RTreeCooker@physx@@SAXAEAURTree@Gu@2@PEBVPxVec3@2@IPEBGPEBIIAEAV?$Array@IV?$ReflectionAllocator@I@shdfnd@physx@@@shdfnd@2@PEAURemapCallback@12@MW4Enum@PxMeshCookingHint@2@@Z 000000018000ab30 f   RTreeCooking.obj
 0001:00009dd0       ?copy@?$Array@URTreeNodeNQ@physx@@V?$ReflectionAllocator@URTreeNodeNQ@physx@@@shdfnd@2@@shdfnd@physx@@KAXPEAURTreeNodeNQ@3@0PEBU43@@Z 000000018000add0 f i RTreeCooking.obj
 0001:00009f90       ?copy@?$Array@VPxVec3@physx@@V?$ReflectionAllocator@VPxVec3@physx@@@shdfnd@2@@shdfnd@physx@@KAXPEAVPxVec3@3@0PEBV43@@Z 000000018000af90 f i RTreeCooking.obj
 0001:0000a060       ?growAndPushBack@?$Array@IV?$ReflectionAllocator@I@shdfnd@physx@@@shdfnd@physx@@IEAAAEAIAEBI@Z 000000018000b060 f i RTreeCooking.obj
 0001:0000a130       ?growAndPushBack@?$Array@UInterval@physx@@V?$InlineAllocator@$0CAAA@V?$ReflectionAllocator@UInterval@physx@@@shdfnd@physx@@@shdfnd@2@@shdfnd@physx@@IEAAAEAUInterval@3@AEBU43@@Z 000000018000b130 f i RTreeCooking.obj
 0001:0000a210       ?growAndPushBack@?$Array@UPxBounds3V@physx@@V?$ReflectionAllocator@UPxBounds3V@physx@@@shdfnd@2@@shdfnd@physx@@IEAAAEAUPxBounds3V@3@AEBU43@@Z 000000018000b210 f i RTreeCooking.obj
 0001:0000a2e0       ?growAndPushBack@?$Array@URTreeNodeNQ@physx@@V?$ReflectionAllocator@URTreeNodeNQ@physx@@@shdfnd@2@@shdfnd@physx@@IEAAAEAURTreeNodeNQ@3@AEBU43@@Z 000000018000b2e0 f i RTreeCooking.obj
 0001:0000a3b0       ?growAndPushBack@?$Array@URTreeNodeQ@Gu@physx@@V?$ReflectionAllocator@URTreeNodeQ@Gu@physx@@@shdfnd@3@@shdfnd@physx@@IEAAAEAURTreeNodeQ@Gu@3@AEBU453@@Z 000000018000b3b0 f i RTreeCooking.obj
 0001:0000a490       ?recreate@?$Array@IV?$ReflectionAllocator@I@shdfnd@physx@@@shdfnd@physx@@IEAAXI@Z 000000018000b490 f i RTreeCooking.obj
 0001:0000a550       ?recreate@?$Array@UPxBounds3V@physx@@V?$ReflectionAllocator@UPxBounds3V@physx@@@shdfnd@2@@shdfnd@physx@@IEAAXI@Z 000000018000b550 f i RTreeCooking.obj
 0001:0000a600       ?recreate@?$Array@URTreeNodeNQ@physx@@V?$ReflectionAllocator@URTreeNodeNQ@physx@@@shdfnd@2@@shdfnd@physx@@IEAAXI@Z 000000018000b600 f i RTreeCooking.obj
 0001:0000a690       ?recreate@?$Array@URTreeNodeQ@Gu@physx@@V?$ReflectionAllocator@URTreeNodeQ@Gu@physx@@@shdfnd@3@@shdfnd@physx@@IEAAXI@Z 000000018000b690 f i RTreeCooking.obj
 0001:0000a750       ?recreate@?$Array@VPxVec3@physx@@V?$ReflectionAllocator@VPxVec3@physx@@@shdfnd@2@@shdfnd@physx@@IEAAXI@Z 000000018000b750 f i RTreeCooking.obj
 0001:0000a7e0       ?resize@?$Array@IV?$ReflectionAllocator@I@shdfnd@physx@@@shdfnd@physx@@QEAAXIAEBI@Z 000000018000b7e0 f i RTreeCooking.obj
 0001:0000a8a0       ?resizeUninitialized@?$Array@URTreeNodeNQ@physx@@V?$ReflectionAllocator@URTreeNodeNQ@physx@@@shdfnd@2@@shdfnd@physx@@QEAAXI@Z 000000018000b8a0 f i RTreeCooking.obj
 0001:0000a8e0       ?sort4@SubSortQuick@physx@@QEAAXPEIAIIAEAV?$Array@URTreeNodeNQ@physx@@V?$ReflectionAllocator@URTreeNodeNQ@physx@@@shdfnd@2@@shdfnd@2@AEAIAEAUPxBounds3V@2@I@Z 000000018000b8e0 f i RTreeCooking.obj
 0001:0000ac70       ?sort4@SubSortSAH@physx@@QEAAXPEAIIAEAV?$Array@URTreeNodeNQ@physx@@V?$ReflectionAllocator@URTreeNodeNQ@physx@@@shdfnd@2@@shdfnd@2@AEAIIPEAURTreeNodeNQ@2@@Z 000000018000bc70 f i RTreeCooking.obj
 0001:0000b4c0       ?split@SubSortSAH@physx@@QEAAIPEAII@Z 000000018000c4c0 f i RTreeCooking.obj
 0001:0000bec0       ?computeLocalBounds@MeshBulider@physx@@IEAAXAEAVMeshDataBase@Gu@2@@Z 000000018000cec0 f   MeshBuilder.obj
 0001:0000bf50       ??$?_UG@@YAPEAX_KV?$ReflectionAllocator@G@shdfnd@physx@@PEBDH@Z 000000018000cf50 f i TriangleMeshBuilder.obj
 0001:0000bff0       ??$sort@UEdgeTriLookup@physx@@U?$Less@UEdgeTriLookup@physx@@@shdfnd@2@V?$ReflectionAllocator@UEdgeTriLookup@physx@@@42@@shdfnd@physx@@YAXPEAUEdgeTriLookup@1@IAEBU?$Less@UEdgeTriLookup@physx@@@01@AEBV?$ReflectionAllocator@UEdgeTriLookup@physx@@@01@I@Z 000000018000cff0 f i TriangleMeshBuilder.obj
 0001:0000c570       ??0BV4TriangleMeshBuilder@physx@@QEAA@AEBUPxCookingParams@1@@Z 000000018000d570 f   TriangleMeshBuilder.obj
 0001:0000c640       ??0RTreeTriangleMeshBuilder@physx@@QEAA@AEBUPxCookingParams@1@@Z 000000018000d640 f   TriangleMeshBuilder.obj
 0001:0000c700       ??1BV4TriangleMeshBuilder@physx@@UEAA@XZ 000000018000d700 f   TriangleMeshBuilder.obj
 0001:0000c760       ??1MeshDataBase@Gu@physx@@UEAA@XZ 000000018000d760 f i TriangleMeshBuilder.obj
 0001:0000c840       ??1RTreeTriangleData@Gu@physx@@UEAA@XZ 000000018000d840 f i TriangleMeshBuilder.obj
 0001:0000c8b0       ??1RTreeTriangleMeshBuilder@physx@@UEAA@XZ 000000018000d8b0 f   TriangleMeshBuilder.obj
 0001:0000c8e0       ??1TriangleMeshBuilder@physx@@UEAA@XZ 000000018000d8e0 f   TriangleMeshBuilder.obj
 0001:0000c940       ??1TriangleMeshData@Gu@physx@@UEAA@XZ 000000018000d940 f i TriangleMeshBuilder.obj
 0001:0000ca10       ??_GBV4TriangleData@Gu@physx@@UEAAPEAXI@Z 000000018000da10 f i TriangleMeshBuilder.obj
 0001:0000ca10       ??_EBV4TriangleData@Gu@physx@@UEAAPEAXI@Z 000000018000da10 f i TriangleMeshBuilder.obj
 0001:0000ca90       ??_EBV4TriangleMeshBuilder@physx@@UEAAPEAXI@Z 000000018000da90 f i TriangleMeshBuilder.obj
 0001:0000ca90       ??_GBV4TriangleMeshBuilder@physx@@UEAAPEAXI@Z 000000018000da90 f i TriangleMeshBuilder.obj
 0001:0000cb10       ??_GMeshDataBase@Gu@physx@@UEAAPEAXI@Z 000000018000db10 f i TriangleMeshBuilder.obj
 0001:0000cb10       ??_EMeshDataBase@Gu@physx@@UEAAPEAXI@Z 000000018000db10 f i TriangleMeshBuilder.obj
 0001:0000cb70       ??_GRTreeCookerRemap@physx@@UEAAPEAXI@Z 000000018000db70 f i TriangleMeshBuilder.obj
 0001:0000cb70       ??_ERTreeCookerRemap@physx@@UEAAPEAXI@Z 000000018000db70 f i TriangleMeshBuilder.obj
 0001:0000cba0       ??_ERTreeTriangleData@Gu@physx@@UEAAPEAXI@Z 000000018000dba0 f i TriangleMeshBuilder.obj
 0001:0000cba0       ??_GRTreeTriangleData@Gu@physx@@UEAAPEAXI@Z 000000018000dba0 f i TriangleMeshBuilder.obj
 0001:0000cc00       ??_GRTreeTriangleMeshBuilder@physx@@UEAAPEAXI@Z 000000018000dc00 f i TriangleMeshBuilder.obj
 0001:0000cc00       ??_ERTreeTriangleMeshBuilder@physx@@UEAAPEAXI@Z 000000018000dc00 f i TriangleMeshBuilder.obj
 0001:0000cc50       ??_GRemapCallback@RTreeCooker@physx@@UEAAPEAXI@Z 000000018000dc50 f i TriangleMeshBuilder.obj
 0001:0000cc50       ??_ERemapCallback@RTreeCooker@physx@@UEAAPEAXI@Z 000000018000dc50 f i TriangleMeshBuilder.obj
 0001:0000cc80       ??_GTriangleMeshBuilder@physx@@UEAAPEAXI@Z 000000018000dc80 f i TriangleMeshBuilder.obj
 0001:0000cc80       ??_ETriangleMeshBuilder@physx@@UEAAPEAXI@Z 000000018000dc80 f i TriangleMeshBuilder.obj
 0001:0000ccc0       ??_ETriangleMeshData@Gu@physx@@UEAAPEAXI@Z 000000018000dcc0 f i TriangleMeshBuilder.obj
 0001:0000ccc0       ??_GTriangleMeshData@Gu@physx@@UEAAPEAXI@Z 000000018000dcc0 f i TriangleMeshBuilder.obj
 0001:0000cd20       ?allocateTriangles@TriangleMeshData@Gu@physx@@QEAAPEAXI_NI@Z 000000018000dd20 f i TriangleMeshBuilder.obj
 0001:0000ce00       ?allocateVertices@MeshDataBase@Gu@physx@@QEAAPEAVPxVec3@3@I@Z 000000018000de00 f i TriangleMeshBuilder.obj
 0001:0000d340       ?checkMeshIndicesSize@TriangleMeshBuilder@physx@@QEAAXXZ 000000018000e340 f   TriangleMeshBuilder.obj
 0001:0000d450       ?cleanMesh@TriangleMeshBuilder@physx@@QEAA_N_NPEAW4Enum@PxTriangleMeshCookingResult@2@@Z 000000018000e450 f   TriangleMeshBuilder.obj
 0001:0000d940       ?createGRBMidPhaseAndData@TriangleMeshBuilder@physx@@QEAAXI@Z 000000018000e940 f   TriangleMeshBuilder.obj
 0001:0000dbc0       ?createMidPhaseStructure@BV32TriangleMeshBuilder@physx@@SAXAEBUPxCookingParams@2@AEAVTriangleMeshData@Gu@2@AEAVBV32Tree@52@@Z 000000018000ebc0 f   TriangleMeshBuilder.obj
 0001:0000dd90       ?createMidPhaseStructure@BV4TriangleMeshBuilder@physx@@UEAAXXZ 000000018000ed90 f   TriangleMeshBuilder.obj
 0001:0000e050       ?createMidPhaseStructure@RTreeTriangleMeshBuilder@physx@@UEAAXXZ 000000018000f050 f   TriangleMeshBuilder.obj
 0001:0000e130       ?createSharedEdgeData@TriangleMeshBuilder@physx@@QEAAX_N0@Z 000000018000f130 f   TriangleMeshBuilder.obj
 0001:0000e7e0       ?raw_length@charNode@@UEBAHXZ 000000018000f7e0 f i libvcruntime:undname.obj
 0001:0000e7e0       ?length@charNode@@UEBAHXZ  000000018000f7e0 f i libvcruntime:undname.obj
 0001:0000e7e0       ?getMidphaseID@BV4TriangleMeshBuilder@physx@@UEBA?AW4Enum@PxMeshMidPhase@2@XZ 000000018000f7e0 f i TriangleMeshBuilder.obj
 0001:0000e7e0       DllMain                    000000018000f7e0 f i LIBCMT:dll_dllmain_stub.obj
 0001:0000e7e0       _get_startup_argv_mode     000000018000f7e0 f i LIBCMT:argv_mode.obj
 0001:0000e7f0       ?getMidphaseID@RTreeTriangleMeshBuilder@physx@@UEBA?AW4Enum@PxMeshMidPhase@2@XZ 000000018000f7f0 f i TriangleMeshBuilder.obj
 0001:0000e800       ?importMesh@TriangleMeshBuilder@physx@@IEAA_NAEBVPxTriangleMeshDesc@2@AEBUPxCookingParams@2@PEAW4Enum@PxTriangleMeshCookingResult@2@_N@Z 000000018000f800 f   TriangleMeshBuilder.obj
 0001:0000eb80       ?loadFromDesc@TriangleMeshBuilder@physx@@QEAA_NAEBVPxTriangleMeshDesc@2@PEAW4Enum@PxTriangleMeshCookingResult@2@_N@Z 000000018000fb80 f   TriangleMeshBuilder.obj
 0001:0000f000       ?onMeshIndexFormatChange@BV4TriangleMeshBuilder@physx@@UEAAXXZ 0000000180010000 f   TriangleMeshBuilder.obj
 0001:0000f040       ?remap@RTreeCookerRemap@physx@@UEAAXPEAIII@Z 0000000180010040 f i TriangleMeshBuilder.obj
 0001:0000f060       ?remapTopology@TriangleMeshBuilder@physx@@QEAAXPEBI@Z 0000000180010060 f   TriangleMeshBuilder.obj
 0001:0000f360       ?save@TriangleMeshBuilder@physx@@QEBA_NAEAVPxOutputStream@2@_NAEBUPxCookingParams@2@@Z 0000000180010360 f   TriangleMeshBuilder.obj
 0001:0000f930       ?saveMidPhaseStructure@BV4TriangleMeshBuilder@physx@@UEBAXAEAVPxOutputStream@2@_N@Z 0000000180010930 f   TriangleMeshBuilder.obj
 0001:0000fad0       ?saveMidPhaseStructure@RTreeTriangleMeshBuilder@physx@@UEBAXAEAVPxOutputStream@2@_N@Z 0000000180010ad0 f   TriangleMeshBuilder.obj
 0001:0000fd10       ??0BigConvexDataBuilder@physx@@QEAA@PEBUConvexHullData@Gu@1@PEAVBigConvexData@1@PEBVPxVec3@1@@Z 0000000180010d10 f   BigConvexDataBuilder.obj
 0001:0000fd20       ??4BigConvexData@physx@@QEAAAEAV01@AEBV01@@Z 0000000180010d20 f i BigConvexDataBuilder.obj
 0001:0000fd40       ?GetAdjacentVerts@BigConvexData@physx@@QEBAPEBEXZ 0000000180010d40 f i BigConvexDataBuilder.obj
 0001:0000fd50       ?GetNbNeighbors@BigConvexData@physx@@QEBAGI@Z 0000000180010d50 f i BigConvexDataBuilder.obj
 0001:0000fd50       ?GetValency@BigConvexData@physx@@QEBAGI@Z 0000000180010d50 f i BigConvexDataBuilder.obj
 0001:0000fd60       ?GetNbSamples@BigConvexData@physx@@QEBAIXZ 0000000180010d60 f i BigConvexDataBuilder.obj
 0001:0000fd70       ?GetNbVerts@BigConvexData@physx@@QEBAIXZ 0000000180010d70 f i BigConvexDataBuilder.obj
 0001:0000fd70       ?length@pcharNode@@UEBAHXZ 0000000180010d70 f i libvcruntime:undname.obj
 0001:0000fd70       ?raw_length@pcharNode@@UEBAHXZ 0000000180010d70 f i libvcruntime:undname.obj
 0001:0000fd80       ?GetNeighbors@BigConvexData@physx@@QEBAPEBEI@Z 0000000180010d80 f i BigConvexDataBuilder.obj
 0001:0000fd90       ?GetOffset@BigConvexData@physx@@QEBAGI@Z 0000000180010d90 f i BigConvexDataBuilder.obj
 0001:0000fda0       ?GetSubdiv@BigConvexData@physx@@QEBAIXZ 0000000180010da0 f i BigConvexDataBuilder.obj
 0001:0000fdb0       ?computeValencies@BigConvexDataBuilder@physx@@QEAA_NAEBVConvexHullBuilder@2@@Z 0000000180010db0 f   BigConvexDataBuilder.obj
 0001:000101a0       ?precompute@BigConvexDataBuilder@physx@@QEAA_NI@Z 00000001800111a0 f   BigConvexDataBuilder.obj
 0001:00010de0       ?save@BigConvexDataBuilder@physx@@QEBA_NAEAVPxOutputStream@2@_N@Z 0000000180011de0 f   BigConvexDataBuilder.obj
 0001:00011020       ??$?_UE@@YAPEAX_KV?$ReflectionAllocator@E@shdfnd@physx@@PEBDH@Z 0000000180012020 f i ConvexHullBuilder.obj
 0001:000110c0       ??0ConvexHullBuilder@physx@@QEAA@PEAUConvexHullData@Gu@1@_N@Z 00000001800120c0 f   ConvexHullBuilder.obj
 0001:000110f0       ??1ConvexHullBuilder@physx@@QEAA@XZ 00000001800120f0 f   ConvexHullBuilder.obj
 0001:000111f0       ?calculateVertexMapTable@ConvexHullBuilder@physx@@QEAA_NI_N@Z 00000001800121f0 f   ConvexHullBuilder.obj
 0001:00011400       ?checkHullPolygons@ConvexHullBuilder@physx@@QEBA_NXZ 0000000180012400 f   ConvexHullBuilder.obj
 0001:000119e0       ?computeGeomCenter@ConvexHullBuilder@physx@@IEBA_NAEAVPxVec3@2@IPEAUHullTriangleData@2@@Z 00000001800129e0 f   ConvexHullBuilder.obj
 0001:00011ca0       ?copy@ConvexHullBuilder@physx@@QEAA_NAEAUConvexHullData@Gu@2@AEAI@Z 0000000180012ca0 f   ConvexHullBuilder.obj
 0001:00011f20       ?createEdgeList@ConvexHullBuilder@physx@@QEAA_N_NI@Z 0000000180012f20 f   ConvexHullBuilder.obj
 0001:00012790       ?init@ConvexHullBuilder@physx@@QEAA_NIPEBVPxVec3@2@PEBIIIPEBUPxHullPolygon@2@_NPEAVConvexHullLib@2@@Z 0000000180013790 f   ConvexHullBuilder.obj
 0001:000130f0       ?save@ConvexHullBuilder@physx@@QEBA_NAEAVPxOutputStream@2@_N@Z 00000001800140f0 f   ConvexHullBuilder.obj
 0001:00013410       ??1ConvexHullLib@physx@@UEAA@XZ 0000000180014410 f   ConvexHullLib.obj
 0001:00013470       ??_EConvexHullLib@physx@@UEAAPEAXI@Z 0000000180014470 f i ConvexHullLib.obj
 0001:00013470       ??_GConvexHullLib@physx@@UEAAPEAXI@Z 0000000180014470 f i ConvexHullLib.obj
 0001:000139e0       ?cleanupVertices@ConvexHullLib@physx@@IEAA_NIPEBVPxVec3@2@IAEAIPEAV32@AEAV32@3@Z 00000001800149e0 f   ConvexHullLib.obj
 0001:00013e60       ?shiftAndcleanupVertices@ConvexHullLib@physx@@IEAA_NIPEBVPxVec3@2@IAEAIPEAV32@AEAV32@3@Z 0000000180014e60 f   ConvexHullLib.obj
 0001:00014340       ?shiftConvexMeshDesc@ConvexHullLib@physx@@IEAAXAEAVPxConvexMeshDesc@2@@Z 0000000180015340 f   ConvexHullLib.obj
 0001:00014400       ?swapLargestFace@ConvexHullLib@physx@@IEAAXAEAVPxConvexMeshDesc@2@@Z 0000000180015400 f   ConvexHullLib.obj
 0001:000145f0       ??0Box@Gu@physx@@QEAA@AEBV012@@Z 00000001800155f0 f i ConvexHullUtils.obj
 0001:000145f0       ??4Box@Gu@physx@@QEAAAEBV012@AEBV012@@Z 00000001800155f0 f i ConvexHullUtils.obj
 0001:00014650       ??0Box@Gu@physx@@QEAA@AEBVPxVec3@2@0AEBVPxMat33@2@@Z 0000000180015650 f i ConvexHullUtils.obj
 0001:000146c0       ??0ConvexHull@physx@@QEAA@AEBVPxVec3@1@AEBVPxTransform@1@AEBV?$Array@VPxPlane@physx@@V?$ReflectionAllocator@VPxPlane@physx@@@shdfnd@2@@shdfnd@1@@Z 00000001800156c0 f   ConvexHullUtils.obj
 0001:00015820       ??0PxQuat@physx@@QEAA@AEBVPxMat33@1@@Z 0000000180016820 f i ConvexHullUtils.obj
 0001:00015a00       ?allocate@?$Array@VHalfEdge@ConvexHull@physx@@V?$ReflectionAllocator@VHalfEdge@ConvexHull@physx@@@shdfnd@3@@shdfnd@physx@@IEAAPEAVHalfEdge@ConvexHull@3@I@Z 0000000180016a00 f i ConvexHullUtils.obj
 0001:00015aa0       ?allocate@?$Array@VPxPlane@physx@@V?$ReflectionAllocator@VPxPlane@physx@@@shdfnd@2@@shdfnd@physx@@IEAAPEAVPxPlane@3@I@Z 0000000180016aa0 f i ConvexHullUtils.obj
 0001:00015b40       ?assertIntact@ConvexHull@physx@@QEBA_NM@Z 0000000180016b40 f   ConvexHullUtils.obj
 0001:00015e50       ?computeAABBExtent@Box@Gu@physx@@QEBA?AVPxVec3@3@XZ 0000000180016e50 f i ConvexHullUtils.obj
 0001:00015f10       ?computeBoxPoints@Box@Gu@physx@@QEBAXPEIAVPxVec3@3@@Z 0000000180016f10 f i ConvexHullUtils.obj
 0001:00015f50       ?computeOBBFromConvex@physx@@YA_NAEBVPxConvexMeshDesc@1@AEAVPxVec3@1@AEAVPxTransform@1@@Z 0000000180016f50 f   ConvexHullUtils.obj
 0001:00016660       ?computeOBBSIMD@local@@YAXIPEBT__m128@@AEAT2@AEBT2@1@Z 0000000180017660 f   ConvexHullUtils.obj
 0001:00016a70       ?convexHullCrop@physx@@YAPEAVConvexHull@1@AEBV21@AEBVPxPlane@1@M@Z 0000000180017a70 f   ConvexHullUtils.obj
 0001:00017820       ?copy@?$Array@VPxPlane@physx@@V?$ReflectionAllocator@VPxPlane@physx@@@shdfnd@2@@shdfnd@physx@@KAXPEAVPxPlane@3@0PEBV43@@Z 0000000180018820 f i ConvexHullUtils.obj
 0001:00017920       ?findCandidatePlane@ConvexHull@physx@@QEBAHMM@Z 0000000180018920 f   ConvexHullUtils.obj
 0001:00017d90       ?getInverse@PxMat33@physx@@QEBA?BV12@XZ 0000000180018d90 f i ConvexHullUtils.obj
 0001:00017fe0       ?getTransform@Box@Gu@physx@@QEBA?AVPxTransform@3@XZ 0000000180018fe0 f i ConvexHullUtils.obj
 0001:00018040       ?growAndPushBack@?$Array@VHalfEdge@ConvexHull@physx@@V?$ReflectionAllocator@VHalfEdge@ConvexHull@physx@@@shdfnd@3@@shdfnd@physx@@IEAAAEAVHalfEdge@ConvexHull@3@AEBV453@@Z 0000000180019040 f i ConvexHullUtils.obj
 0001:00018100       ?growAndPushBack@?$Array@VPxPlane@physx@@V?$ReflectionAllocator@VPxPlane@physx@@@shdfnd@2@@shdfnd@physx@@IEAAAEAVPxPlane@3@AEBV43@@Z 0000000180019100 f i ConvexHullUtils.obj
 0001:000181c0       ?isValid@Box@Gu@physx@@QEBA_NXZ 00000001800191c0 f i ConvexHullUtils.obj
 0001:000181e0       ?maxNumVertsPerFace@ConvexHull@physx@@QEBAIXZ 00000001800191e0 f   ConvexHullUtils.obj
 0001:00018250       ?recreate@?$Array@VHalfEdge@ConvexHull@physx@@V?$ReflectionAllocator@VHalfEdge@ConvexHull@physx@@@shdfnd@3@@shdfnd@physx@@IEAAXI@Z 0000000180019250 f i ConvexHullUtils.obj
 0001:000182f0       ?recreate@?$Array@VPxPlane@physx@@V?$ReflectionAllocator@VPxPlane@physx@@@shdfnd@2@@shdfnd@physx@@IEAAXI@Z 00000001800192f0 f i ConvexHullUtils.obj
 0001:00018380       ?resize@?$Array@VHalfEdge@ConvexHull@physx@@V?$ReflectionAllocator@VHalfEdge@ConvexHull@physx@@@shdfnd@3@@shdfnd@physx@@QEAAXIAEBVHalfEdge@ConvexHull@3@@Z 0000000180019380 f i ConvexHullUtils.obj
 0001:00018440       ?resize@?$Array@VPxPlane@physx@@V?$ReflectionAllocator@VPxPlane@physx@@@shdfnd@2@@shdfnd@physx@@QEAAXIAEBVPxPlane@3@@Z 0000000180019440 f i ConvexHullUtils.obj
 0001:00018560       ?resize@?$Array@VPxVec3@physx@@V?$ReflectionAllocator@VPxVec3@physx@@@shdfnd@2@@shdfnd@physx@@QEAAXIAEBVPxVec3@3@@Z 0000000180019560 f i ConvexHullUtils.obj
 0001:00018650       ?rotate@Box@Gu@physx@@QEBA?AVPxVec3@3@AEBV43@@Z 0000000180019650 f i ConvexHullUtils.obj
 0001:000186e0       ?rotateInv@Box@Gu@physx@@QEBA?AVPxVec3@3@AEBV43@@Z 00000001800196e0 f i ConvexHullUtils.obj
 0001:00018770       ?setAxes@Box@Gu@physx@@QEAAXAEBVPxVec3@3@00@Z 0000000180019770 f i ConvexHullUtils.obj
 0001:000187b0       ?setEmpty@Box@Gu@physx@@QEAAXXZ 00000001800197b0 f i ConvexHullUtils.obj
 0001:000187f0       ?transform@Box@Gu@physx@@QEBA?AVPxVec3@3@AEBV43@@Z 00000001800197f0 f i ConvexHullUtils.obj
 0001:00018890       ??0ConvexMeshBuilder@physx@@QEAA@_N@Z 0000000180019890 f   ConvexMeshBuilder.obj
 0001:000188f0       ??1ConvexMeshBuilder@physx@@QEAA@XZ 00000001800198f0 f   ConvexMeshBuilder.obj
 0001:00018d40       ?build@ConvexMeshBuilder@physx@@QEAA_NAEBVPxConvexMeshDesc@2@I_NPEAVConvexHullLib@2@@Z 0000000180019d40 f   ConvexMeshBuilder.obj
 0001:00019060       ?computeHullPolygons@ConvexMeshBuilder@physx@@QEAA_NAEBIPEBVPxVec3@2@0PEBIAEAVPxAllocatorCallback@2@AEAIAEAPEAV32@4AEAPEAI4AEAPEAUPxHullPolygon@2@@Z 000000018001a060 f   ConvexMeshBuilder.obj
 0001:00019280       ?computeMassInfo@ConvexMeshBuilder@physx@@QEAAX_N@Z 000000018001a280 f   ConvexMeshBuilder.obj
 0001:00019650       ?copy@ConvexMeshBuilder@physx@@QEAA_NAEAUConvexHullInitData@Gu@2@@Z 000000018001a650 f   ConvexMeshBuilder.obj
 0001:00019770       ?isFinite@PxVec3@physx@@QEBA_NXZ 000000018001a770 f i ConvexMeshBuilder.obj
 0001:000197d0       ?loadConvexHull@ConvexMeshBuilder@physx@@QEAA_NAEBVPxConvexMeshDesc@2@PEAVConvexHullLib@2@@Z 000000018001a7d0 f   ConvexMeshBuilder.obj
 0001:00019a50       ?save@ConvexMeshBuilder@physx@@QEBA_NAEAVPxOutputStream@2@_N@Z 000000018001aa50 f   ConvexMeshBuilder.obj
 0001:00019c60       ??$copy@V?$ReflectionAllocator@VPair@@@shdfnd@physx@@@?$Array@VPair@@V?$ReflectionAllocator@VPair@@@shdfnd@physx@@@shdfnd@physx@@IEAAXAEBV012@@Z 000000018001ac60 f i ConvexPolygonsBuilder.obj
 0001:00019ce0       ??0ConvexPolygonsBuilder@physx@@QEAA@PEAUConvexHullData@Gu@1@_N@Z 000000018001ace0 f   ConvexPolygonsBuilder.obj
 0001:00019d00       ??1ConvexPolygonsBuilder@physx@@QEAA@XZ 000000018001ad00 f   ConvexPolygonsBuilder.obj
 0001:0001a550       ?allocate@?$Array@VPair@@V?$ReflectionAllocator@VPair@@@shdfnd@physx@@@shdfnd@physx@@IEAAPEAVPair@@I@Z 000000018001b550 f i ConvexPolygonsBuilder.obj
 0001:0001ad70       ?computeHullPolygons@ConvexPolygonsBuilder@physx@@QEAA_NAEBIPEBVPxVec3@2@0PEBI@Z 000000018001bd70 f   ConvexPolygonsBuilder.obj
 0001:0001be10       ?createPolygonData@ConvexPolygonsBuilder@physx@@AEAA_NXZ 000000018001ce10 f   ConvexPolygonsBuilder.obj
 0001:0001c9f0       ?createTrianglesFromPolygons@ConvexPolygonsBuilder@physx@@AEAA_NXZ 000000018001d9f0 f   ConvexPolygonsBuilder.obj
 0001:0001e070       ?growAndPushBack@?$Array@VPair@@V?$ReflectionAllocator@VPair@@@shdfnd@physx@@@shdfnd@physx@@IEAAAEAVPair@@AEBV4@@Z 000000018001f070 f i ConvexPolygonsBuilder.obj
 0001:0001e130       ??0QuickHull@local@@QEAA@AEBUPxCookingParams@physx@@AEBVPxConvexMeshDesc@3@@Z 000000018001f130 f   QuickHullConvexHullLib.obj
 0001:0001e1e0       ??0QuickHullConvexHullLib@physx@@QEAA@AEBVPxConvexMeshDesc@1@AEBUPxCookingParams@1@@Z 000000018001f1e0 f   QuickHullConvexHullLib.obj
 0001:0001e2d0       ??1?$MemBlock@UQuickHullHalfEdge@local@@$0A@@local@@QEAA@XZ 000000018001f2d0 f i QuickHullConvexHullLib.obj
 0001:0001e2d0       ??1?$MemBlock@UQuickHullFace@local@@$00@local@@QEAA@XZ 000000018001f2d0 f i QuickHullConvexHullLib.obj
 0001:0001e360       ??1QuickHull@local@@QEAA@XZ 000000018001f360 f   QuickHullConvexHullLib.obj
 0001:0001e4a0       ??_GConvexHull@physx@@QEAAPEAXI@Z 000000018001f4a0 f i QuickHullConvexHullLib.obj
 0001:0001e580       ??_EQuickHullConvexHullLib@physx@@UEAAPEAXI@Z 000000018001f580 f i QuickHullConvexHullLib.obj
 0001:0001e580       ??_GQuickHullConvexHullLib@physx@@UEAAPEAXI@Z 000000018001f580 f i QuickHullConvexHullLib.obj
 0001:0001e680       ?addPointToHull@QuickHull@local@@IEAA_NPEBUQuickHullVertex@2@AEAUQuickHullFace@2@AEA_N@Z 000000018001f680 f   QuickHullConvexHullLib.obj
 0001:0001e950       ?addSimplex@QuickHull@local@@IEAAXPEAUQuickHullVertex@2@_N@Z 000000018001f950 f   QuickHullConvexHullLib.obj
 0001:0001ee20       ?allocate@?$Array@PEAUQuickHullFace@local@@V?$ReflectionAllocator@PEAUQuickHullFace@local@@@shdfnd@physx@@@shdfnd@physx@@IEAAPEAPEAUQuickHullFace@local@@I@Z 000000018001fe20 f i QuickHullConvexHullLib.obj
 0001:0001eec0       ?allocate@?$Array@PEAUQuickHullHalfEdge@local@@V?$ReflectionAllocator@PEAUQuickHullHalfEdge@local@@@shdfnd@physx@@@shdfnd@physx@@IEAAPEAPEAUQuickHullHalfEdge@local@@I@Z 000000018001fec0 f i QuickHullConvexHullLib.obj
 0001:0001ef60       ?allocate@?$Array@PEAUQuickHullVertex@local@@V?$ReflectionAllocator@PEAUQuickHullVertex@local@@@shdfnd@physx@@@shdfnd@physx@@IEAAPEAPEAUQuickHullVertex@local@@I@Z 000000018001ff60 f i QuickHullConvexHullLib.obj
 0001:0001f000       ?allocate@?$Array@UExpandPoint@local@@V?$ReflectionAllocator@UExpandPoint@local@@@shdfnd@physx@@@shdfnd@physx@@IEAAPEAUExpandPoint@local@@I@Z 0000000180020000 f i QuickHullConvexHullLib.obj
 0001:0001f0a0       ?buildHull@QuickHull@local@@QEAA?AW4Enum@QuickHullResult@2@XZ 00000001800200a0 f   QuickHullConvexHullLib.obj
 0001:0001f2b0       ?calculateHorizon@QuickHull@local@@IEAAXAEBVPxVec3@physx@@PEAUQuickHullHalfEdge@2@AEAUQuickHullFace@2@AEAV?$Array@PEAUQuickHullHalfEdge@local@@V?$ReflectionAllocator@PEAUQuickHullHalfEdge@local@@@shdfnd@physx@@@shdfnd@4@AEAV?$Array@PEAUQuickHullFace@local@@V?$ReflectionAllocator@PEAUQuickHullFace@local@@@shdfnd@physx@@@84@@Z 00000001800202b0 f   QuickHullConvexHullLib.obj
 0001:0001f460       ?canMergeFaces@QuickHull@local@@IEAA_NAEBUQuickHullHalfEdge@2@@Z 0000000180020460 f   QuickHullConvexHullLib.obj
 0001:0001fc90       ?cleanupForSimplex@QuickHullConvexHullLib@physx@@IEAA_NPEAVPxVec3@2@IPEAUQuickHullVertex@local@@1AEAM2@Z 0000000180020c90 f   QuickHullConvexHullLib.obj
 0001:00020860       ?computeMinMaxVerts@QuickHull@local@@IEAAXXZ 0000000180021860 f   QuickHullConvexHullLib.obj
 0001:00020c30       ?connectHalfEdges@QuickHullFace@local@@AEAAPEAU12@PEAUQuickHullHalfEdge@2@0@Z 0000000180021c30 f   QuickHullConvexHullLib.obj
 0001:00020f90       ?copy@?$Array@UExpandPoint@local@@V?$ReflectionAllocator@UExpandPoint@local@@@shdfnd@physx@@@shdfnd@physx@@KAXPEAUExpandPoint@local@@0PEBU45@@Z 0000000180021f90 f i QuickHullConvexHullLib.obj
 0001:00021040       ?createConvexHull@QuickHullConvexHullLib@physx@@UEAA?AW4Enum@PxConvexMeshCookingResult@2@XZ 0000000180022040 f   QuickHullConvexHullLib.obj
 0001:00021440       ?createEdgeList@QuickHullConvexHullLib@physx@@UEAA_NIPEBEPEAPEAEPEAPEAG2@Z 0000000180022440 f   QuickHullConvexHullLib.obj
 0001:00021670       ?createTriangle@QuickHull@local@@IEAAPEAUQuickHullFace@2@AEBUQuickHullVertex@2@00@Z 0000000180022670 f   QuickHullConvexHullLib.obj
 0001:00021a00       ?doAdjacentMerge@QuickHull@local@@IEAA_NAEAUQuickHullFace@2@_NAEA_N@Z 0000000180022a00 f   QuickHullConvexHullLib.obj
 0001:00021d40       ?expandHull@QuickHullConvexHullLib@physx@@IEAA?AW4Enum@PxConvexMeshCookingResult@2@XZ 0000000180022d40 f   QuickHullConvexHullLib.obj
 0001:00022a20       ?expandHullOBB@QuickHullConvexHullLib@physx@@IEAA?AW4Enum@PxConvexMeshCookingResult@2@XZ 0000000180023a20 f   QuickHullConvexHullLib.obj
 0001:00022e40       ?fillConvexMeshDesc@QuickHullConvexHullLib@physx@@UEAAXAEAVPxConvexMeshDesc@2@@Z 0000000180023e40 f   QuickHullConvexHullLib.obj
 0001:00022e90       ?fillConvexMeshDescFromCroppedHull@QuickHullConvexHullLib@physx@@IEAAXAEAVPxConvexMeshDesc@2@@Z 0000000180023e90 f   QuickHullConvexHullLib.obj
 0001:00023090       ?fillConvexMeshDescFromQuickHull@QuickHullConvexHullLib@physx@@IEAAXAEAVPxConvexMeshDesc@2@@Z 0000000180024090 f   QuickHullConvexHullLib.obj
 0001:00023420       ?findSimplex@QuickHull@local@@IEAA_NXZ 0000000180024420 f   QuickHullConvexHullLib.obj
 0001:000240d0       ?getFreeItem@?$MemBlock@UQuickHullFace@local@@$00@local@@QEAAPEAUQuickHullFace@2@XZ 00000001800250d0 f i QuickHullConvexHullLib.obj
 0001:00024200       ?getFreeItem@?$MemBlock@UQuickHullHalfEdge@local@@$0A@@local@@QEAAPEAUQuickHullHalfEdge@2@XZ 0000000180025200 f i QuickHullConvexHullLib.obj
 0001:000242d0       ?growAndPushBack@?$Array@PEAUQuickHullFace@local@@V?$ReflectionAllocator@PEAUQuickHullFace@local@@@shdfnd@physx@@@shdfnd@physx@@IEAAAEAPEAUQuickHullFace@local@@AEBQEAU45@@Z 00000001800252d0 f i QuickHullConvexHullLib.obj
 0001:00024390       ?growAndPushBack@?$Array@PEAUQuickHullHalfEdge@local@@V?$ReflectionAllocator@PEAUQuickHullHalfEdge@local@@@shdfnd@physx@@@shdfnd@physx@@IEAAAEAPEAUQuickHullHalfEdge@local@@AEBQEAU45@@Z 0000000180025390 f i QuickHullConvexHullLib.obj
 0001:00024450       ?growAndPushBack@?$Array@PEAUQuickHullVertex@local@@V?$ReflectionAllocator@PEAUQuickHullVertex@local@@@shdfnd@physx@@@shdfnd@physx@@IEAAAEAPEAUQuickHullVertex@local@@AEBQEAU45@@Z 0000000180025450 f i QuickHullConvexHullLib.obj
 0001:00024510       ?growAndPushBack@?$Array@UExpandPoint@local@@V?$ReflectionAllocator@UExpandPoint@local@@@shdfnd@physx@@@shdfnd@physx@@IEAAAEAUExpandPoint@local@@AEBU45@@Z 0000000180025510 f i QuickHullConvexHullLib.obj
 0001:00024610       ?init@?$MemBlock@UQuickHullFace@local@@$00@local@@QEAAXI@Z 0000000180025610 f i QuickHullConvexHullLib.obj
 0001:00024710       ?init@?$MemBlock@UQuickHullHalfEdge@local@@$0A@@local@@QEAAXI@Z 0000000180025710 f i QuickHullConvexHullLib.obj
 0001:000247b0       ?mergeAdjacentFace@QuickHullFace@local@@QEAA_NPEAUQuickHullHalfEdge@2@AEAV?$Array@PEAUQuickHullFace@local@@V?$ReflectionAllocator@PEAUQuickHullFace@local@@@shdfnd@physx@@@shdfnd@physx@@@Z 00000001800257b0 f   QuickHullConvexHullLib.obj
 0001:00024c00       ?nextPointToAdd@QuickHull@local@@IEAAPEAUQuickHullVertex@2@AEAPEAUQuickHullFace@2@@Z 0000000180025c00 f   QuickHullConvexHullLib.obj
 0001:00024d80       ?parseInputVertices@QuickHull@local@@QEAAXPEBVPxVec3@physx@@I@Z 0000000180025d80 f   QuickHullConvexHullLib.obj
 0001:00024f10       ?postMergeHull@QuickHull@local@@IEAAXXZ 0000000180025f10 f   QuickHullConvexHullLib.obj
 0001:00025160       ?preallocate@QuickHull@local@@QEAAXI@Z 0000000180026160 f   QuickHullConvexHullLib.obj
 0001:000252a0       ?recreate@?$Array@PEAUQuickHullFace@local@@V?$ReflectionAllocator@PEAUQuickHullFace@local@@@shdfnd@physx@@@shdfnd@physx@@IEAAXI@Z 00000001800262a0 f i QuickHullConvexHullLib.obj
 0001:00025340       ?recreate@?$Array@PEAUQuickHullHalfEdge@local@@V?$ReflectionAllocator@PEAUQuickHullHalfEdge@local@@@shdfnd@physx@@@shdfnd@physx@@IEAAXI@Z 0000000180026340 f i QuickHullConvexHullLib.obj
 0001:000253e0       ?recreate@?$Array@PEAUQuickHullVertex@local@@V?$ReflectionAllocator@PEAUQuickHullVertex@local@@@shdfnd@physx@@@shdfnd@physx@@IEAAXI@Z 00000001800263e0 f i QuickHullConvexHullLib.obj
 0001:00025480       ?recreate@?$Array@UExpandPoint@local@@V?$ReflectionAllocator@UExpandPoint@local@@@shdfnd@physx@@@shdfnd@physx@@IEAAXI@Z 0000000180026480 f i QuickHullConvexHullLib.obj
 0001:00025510       ?resolveUnclaimedPoints@QuickHull@local@@IEAAXAEBV?$Array@PEAUQuickHullFace@local@@V?$ReflectionAllocator@PEAUQuickHullFace@local@@@shdfnd@physx@@@shdfnd@physx@@@Z 0000000180026510 f   QuickHullConvexHullLib.obj
 0001:00026210       ?computeVolumeIntegralsEberly@physx@@YA_NAEBVPxConvexMeshDesc@1@MAEAUPxIntegrals@1@AEBVPxVec3@1@@Z 0000000180027210 f   VolumeIntegration.obj
 0001:00026250       ?computeVolumeIntegralsEberlySIMD@physx@@YA_NAEBVPxConvexMeshDesc@1@MAEAUPxIntegrals@1@AEBVPxVec3@1@@Z 0000000180027250 f   VolumeIntegration.obj
 0001:00026890       ?cookingDelayHook@@YAP6A_JXZIPEAUDelayLoadInfo@@@Z 0000000180027890 f   WindowsCookingDelayLoadHook.obj
 0001:00026970       PxSetPhysXCookingDelayLoadHook 0000000180027970 f   WindowsCookingDelayLoadHook.obj
 0001:00026978       __imp_load_??0RadixSortBuffered@Cm@physx@@QEAA@XZ 0000000180027978 f   PhysXCommon_64:PhysXCommon_64.dll
 0001:00026984       ??0RadixSortBuffered@Cm@physx@@QEAA@XZ 0000000180027984 f   PhysXCommon_64:PhysXCommon_64.dll
 0001:0002698a       __tailMerge_physxcommon_64_dll 000000018002798a     PhysXCommon_64:PhysXCommon_64.dll
 0001:00026a03       __imp_load_??1RadixSortBuffered@Cm@physx@@UEAA@XZ 0000000180027a03 f   PhysXCommon_64:PhysXCommon_64.dll
 0001:00026a0f       ??1RadixSortBuffered@Cm@physx@@UEAA@XZ 0000000180027a0f f   PhysXCommon_64:PhysXCommon_64.dll
 0001:00026a15       __imp_load_?Sort@RadixSortBuffered@Cm@physx@@QEAAAEAV123@PEBIIW4RadixHint@23@@Z 0000000180027a15 f   PhysXCommon_64:PhysXCommon_64.dll
 0001:00026a21       ?Sort@RadixSortBuffered@Cm@physx@@QEAAAEAV123@PEBIIW4RadixHint@23@@Z 0000000180027a21 f   PhysXCommon_64:PhysXCommon_64.dll
 0001:00026a27       __imp_load_??0HeightField@Gu@physx@@QEAA@PEAVGuMeshFactory@2@@Z 0000000180027a27 f   PhysXCommon_64:PhysXCommon_64.dll
 0001:00026a33       ??0HeightField@Gu@physx@@QEAA@PEAVGuMeshFactory@2@@Z 0000000180027a33 f   PhysXCommon_64:PhysXCommon_64.dll
 0001:00026a39       __imp_load_?loadFromDesc@HeightField@Gu@physx@@QEAA_NAEBVPxHeightFieldDesc@3@@Z 0000000180027a39 f   PhysXCommon_64:PhysXCommon_64.dll
 0001:00026a45       ?loadFromDesc@HeightField@Gu@physx@@QEAA_NAEBVPxHeightFieldDesc@3@@Z 0000000180027a45 f   PhysXCommon_64:PhysXCommon_64.dll
 0001:00026a4b       __imp_load_?computeCellCoordinates@HeightField@Gu@physx@@QEBAIMMAEAM0@Z 0000000180027a4b f   PhysXCommon_64:PhysXCommon_64.dll
 0001:00026a57       ?computeCellCoordinates@HeightField@Gu@physx@@QEBAIMMAEAM0@Z 0000000180027a57 f   PhysXCommon_64:PhysXCommon_64.dll
 0001:00026a5d       __imp_load_?releaseMemory@HeightField@Gu@physx@@QEAAXXZ 0000000180027a5d f   PhysXCommon_64:PhysXCommon_64.dll
 0001:00026a69       ?releaseMemory@HeightField@Gu@physx@@QEAAXXZ 0000000180027a69 f   PhysXCommon_64:PhysXCommon_64.dll
 0001:00026a6f       __imp_load_??1HeightField@Gu@physx@@UEAA@XZ 0000000180027a6f f   PhysXCommon_64:PhysXCommon_64.dll
 0001:00026a7b       ??1HeightField@Gu@physx@@UEAA@XZ 0000000180027a7b f   PhysXCommon_64:PhysXCommon_64.dll
 0001:00026a81       __imp_load_??0NodeAllocator@Gu@physx@@QEAA@XZ 0000000180027a81 f   PhysXCommon_64:PhysXCommon_64.dll
 0001:00026a8d       ??0NodeAllocator@Gu@physx@@QEAA@XZ 0000000180027a8d f   PhysXCommon_64:PhysXCommon_64.dll
 0001:00026a93       __imp_load_??1NodeAllocator@Gu@physx@@QEAA@XZ 0000000180027a93 f   PhysXCommon_64:PhysXCommon_64.dll
 0001:00026a9f       ??1NodeAllocator@Gu@physx@@QEAA@XZ 0000000180027a9f f   PhysXCommon_64:PhysXCommon_64.dll
 0001:00026aa5       __imp_load_?release@NodeAllocator@Gu@physx@@QEAAXXZ 0000000180027aa5 f   PhysXCommon_64:PhysXCommon_64.dll
 0001:00026ab1       ?release@NodeAllocator@Gu@physx@@QEAAXXZ 0000000180027ab1 f   PhysXCommon_64:PhysXCommon_64.dll
 0001:00026ab7       __imp_load_?buildAABBTree@Gu@physx@@YA_NAEAVAABBTreeBuildParams@12@AEAVNodeAllocator@12@AEAUBuildStats@12@AEAPEAI@Z 0000000180027ab7 f   PhysXCommon_64:PhysXCommon_64.dll
 0001:00026ac3       ?buildAABBTree@Gu@physx@@YA_NAEAVAABBTreeBuildParams@12@AEAVNodeAllocator@12@AEAUBuildStats@12@AEAPEAI@Z 0000000180027ac3 f   PhysXCommon_64:PhysXCommon_64.dll
 0001:00026ac9       __imp_load_?writeDword@physx@@YAXI_NAEAVPxOutputStream@1@@Z 0000000180027ac9 f   PhysXCommon_64:PhysXCommon_64.dll
 0001:00026ad5       ?writeDword@physx@@YAXI_NAEAVPxOutputStream@1@@Z 0000000180027ad5 f   PhysXCommon_64:PhysXCommon_64.dll
 0001:00026adb       __imp_load_?writeFloatBuffer@physx@@YAXPEBMI_NAEAVPxOutputStream@1@@Z 0000000180027adb f   PhysXCommon_64:PhysXCommon_64.dll
 0001:00026ae7       ?writeFloatBuffer@physx@@YAXPEBMI_NAEAVPxOutputStream@1@@Z 0000000180027ae7 f   PhysXCommon_64:PhysXCommon_64.dll
 0001:00026aed       __imp_load_?writeHeader@physx@@YA_NCCCCI_NAEAVPxOutputStream@1@@Z 0000000180027aed f   PhysXCommon_64:PhysXCommon_64.dll
 0001:00026af9       ?writeHeader@physx@@YA_NCCCCI_NAEAVPxOutputStream@1@@Z 0000000180027af9 f   PhysXCommon_64:PhysXCommon_64.dll
 0001:00026aff       __imp_load_?writeWord@physx@@YAXG_NAEAVPxOutputStream@1@@Z 0000000180027aff f   PhysXCommon_64:PhysXCommon_64.dll
 0001:00026b0b       ?writeWord@physx@@YAXG_NAEAVPxOutputStream@1@@Z 0000000180027b0b f   PhysXCommon_64:PhysXCommon_64.dll
 0001:00026b11       __imp_load_?writeFloat@physx@@YAXM_NAEAVPxOutputStream@1@@Z 0000000180027b11 f   PhysXCommon_64:PhysXCommon_64.dll
 0001:00026b1d       ?writeFloat@physx@@YAXM_NAEAVPxOutputStream@1@@Z 0000000180027b1d f   PhysXCommon_64:PhysXCommon_64.dll
 0001:00026b23       __imp_load_?computeBoundsAroundVertices@Gu@physx@@YAXAEAVPxBounds3@2@IPEIBVPxVec3@2@@Z 0000000180027b23 f   PhysXCommon_64:PhysXCommon_64.dll
 0001:00026b2f       ?computeBoundsAroundVertices@Gu@physx@@YAXAEAVPxBounds3@2@IPEIBVPxVec3@2@@Z 0000000180027b2f f   PhysXCommon_64:PhysXCommon_64.dll
 0001:00026b35       __imp_load_??0SourceMesh@Gu@physx@@QEAA@XZ 0000000180027b35 f   PhysXCommon_64:PhysXCommon_64.dll
 0001:00026b41       ??0SourceMesh@Gu@physx@@QEAA@XZ 0000000180027b41 f   PhysXCommon_64:PhysXCommon_64.dll
 0001:00026b47       __imp_load_??1SourceMesh@Gu@physx@@QEAA@XZ 0000000180027b47 f   PhysXCommon_64:PhysXCommon_64.dll
 0001:00026b53       ??1SourceMesh@Gu@physx@@QEAA@XZ 0000000180027b53 f   PhysXCommon_64:PhysXCommon_64.dll
 0001:00026b59       __imp_load_??0BV4Tree@Gu@physx@@QEAA@XZ 0000000180027b59 f   PhysXCommon_64:PhysXCommon_64.dll
 0001:00026b65       ??0BV4Tree@Gu@physx@@QEAA@XZ 0000000180027b65 f   PhysXCommon_64:PhysXCommon_64.dll
 0001:00026b6b       __imp_load_??1BV4Tree@Gu@physx@@QEAA@XZ 0000000180027b6b f   PhysXCommon_64:PhysXCommon_64.dll
 0001:00026b77       ??1BV4Tree@Gu@physx@@QEAA@XZ 0000000180027b77 f   PhysXCommon_64:PhysXCommon_64.dll
 0001:00026b7d       __imp_load_??0BV32Tree@Gu@physx@@QEAA@XZ 0000000180027b7d f   PhysXCommon_64:PhysXCommon_64.dll
 0001:00026b89       ??0BV32Tree@Gu@physx@@QEAA@XZ 0000000180027b89 f   PhysXCommon_64:PhysXCommon_64.dll
 0001:00026b8f       __imp_load_??1BV32Tree@Gu@physx@@QEAA@XZ 0000000180027b8f f   PhysXCommon_64:PhysXCommon_64.dll
 0001:00026b9b       ??1BV32Tree@Gu@physx@@QEAA@XZ 0000000180027b9b f   PhysXCommon_64:PhysXCommon_64.dll
 0001:00026ba1       __imp_load_?writeWordBuffer@physx@@YAXPEBGI_NAEAVPxOutputStream@1@@Z 0000000180027ba1 f   PhysXCommon_64:PhysXCommon_64.dll
 0001:00026bad       ?writeWordBuffer@physx@@YAXPEBGI_NAEAVPxOutputStream@1@@Z 0000000180027bad f   PhysXCommon_64:PhysXCommon_64.dll
 0001:00026bb3       __imp_load_?computeMaxIndex@physx@@YAIPEBII@Z 0000000180027bb3 f   PhysXCommon_64:PhysXCommon_64.dll
 0001:00026bbf       ?computeMaxIndex@physx@@YAIPEBII@Z 0000000180027bbf f   PhysXCommon_64:PhysXCommon_64.dll
 0001:00026bc5       __imp_load_?storeIndices@physx@@YAXIIPEBIAEAVPxOutputStream@1@_N@Z 0000000180027bc5 f   PhysXCommon_64:PhysXCommon_64.dll
 0001:00026bd1       ?storeIndices@physx@@YAXIIPEBIAEAVPxOutputStream@1@_N@Z 0000000180027bd1 f   PhysXCommon_64:PhysXCommon_64.dll
 0001:00026bd7       __imp_load_?BuildBV4Ex@Gu@physx@@YA_NAEAVBV4Tree@12@AEAVSourceMesh@12@MI@Z 0000000180027bd7 f   PhysXCommon_64:PhysXCommon_64.dll
 0001:00026be3       ?BuildBV4Ex@Gu@physx@@YA_NAEAVBV4Tree@12@AEAVSourceMesh@12@MI@Z 0000000180027be3 f   PhysXCommon_64:PhysXCommon_64.dll
 0001:00026be9       __imp_load_?BuildBV32Ex@Gu@physx@@YA_NAEAVBV32Tree@12@AEAVSourceMesh@12@MI@Z 0000000180027be9 f   PhysXCommon_64:PhysXCommon_64.dll
 0001:00026bf5       ?BuildBV32Ex@Gu@physx@@YA_NAEAVBV32Tree@12@AEAVSourceMesh@12@MI@Z 0000000180027bf5 f   PhysXCommon_64:PhysXCommon_64.dll
 0001:00026bfb       __imp_load_?computeMaxIndex@physx@@YAGPEBGI@Z 0000000180027bfb f   PhysXCommon_64:PhysXCommon_64.dll
 0001:00026c07       ?computeMaxIndex@physx@@YAGPEBGI@Z 0000000180027c07 f   PhysXCommon_64:PhysXCommon_64.dll
 0001:00026c0d       __imp_load_?WriteHeader@Gu@physx@@YA_NEEEEI_NAEAVPxOutputStream@2@@Z 0000000180027c0d f   PhysXCommon_64:PhysXCommon_64.dll
 0001:00026c19       ?WriteHeader@Gu@physx@@YA_NEEEEI_NAEAVPxOutputStream@2@@Z 0000000180027c19 f   PhysXCommon_64:PhysXCommon_64.dll
 0001:00026c1f       __imp_load_?StoreIndices@Gu@physx@@YAXGIPEBGAEAVPxOutputStream@2@_N@Z 0000000180027c1f f   PhysXCommon_64:PhysXCommon_64.dll
 0001:00026c2b       ?StoreIndices@Gu@physx@@YAXGIPEBGAEAVPxOutputStream@2@_N@Z 0000000180027c2b f   PhysXCommon_64:PhysXCommon_64.dll
 0001:00026c31       __imp_load_?CreateOffsets@BigConvexData@physx@@IEAAXXZ 0000000180027c31 f   PhysXCommon_64:PhysXCommon_64.dll
 0001:00026c3d       ?CreateOffsets@BigConvexData@physx@@IEAAXXZ 0000000180027c3d f   PhysXCommon_64:PhysXCommon_64.dll
 0001:00026c43       __imp_load_?computeOBBPoints@Gu@physx@@YAXPEIAVPxVec3@2@AEBV32@1111@Z 0000000180027c43 f   PhysXCommon_64:PhysXCommon_64.dll
 0001:00026c4f       ?computeOBBPoints@Gu@physx@@YAXPEIAVPxVec3@2@AEBV32@1111@Z 0000000180027c4f f   PhysXCommon_64:PhysXCommon_64.dll
 0001:00026c55       __imp_load_??0BigConvexData@physx@@QEAA@XZ 0000000180027c55 f   PhysXCommon_64:PhysXCommon_64.dll
 0001:00026c61       ??0BigConvexData@physx@@QEAA@XZ 0000000180027c61 f   PhysXCommon_64:PhysXCommon_64.dll
 0001:00026c67       __imp_load_??1BigConvexData@physx@@QEAA@XZ 0000000180027c67 f   PhysXCommon_64:PhysXCommon_64.dll
 0001:00026c73       ??1BigConvexData@physx@@QEAA@XZ 0000000180027c73 f   PhysXCommon_64:PhysXCommon_64.dll
 0001:00026c79       __imp_load_PxGetFoundation 0000000180027c79 f   PhysXFoundation_64:PhysXFoundation_64.dll
 0001:00026c85       PxGetFoundation            0000000180027c85 f   PhysXFoundation_64:PhysXFoundation_64.dll
 0001:00026c8b       __tailMerge_physxfoundation_64_dll 0000000180027c8b     PhysXFoundation_64:PhysXFoundation_64.dll
 0001:00026d04       __imp_load_?getAllocator@shdfnd@physx@@YAAEAVPxAllocatorCallback@2@XZ 0000000180027d04 f   PhysXFoundation_64:PhysXFoundation_64.dll
 0001:00026d10       ?getAllocator@shdfnd@physx@@YAAEAVPxAllocatorCallback@2@XZ 0000000180027d10 f   PhysXFoundation_64:PhysXFoundation_64.dll
 0001:00026d16       __imp_load_?getInstance@Foundation@shdfnd@physx@@SAAEAV123@XZ 0000000180027d16 f   PhysXFoundation_64:PhysXFoundation_64.dll
 0001:00026d22       ?getInstance@Foundation@shdfnd@physx@@SAAEAV123@XZ 0000000180027d22 f   PhysXFoundation_64:PhysXFoundation_64.dll
 0001:00026d28       __imp_load_?error@Foundation@shdfnd@physx@@QEAAXW4Enum@PxErrorCode@3@PEBDH1ZZ 0000000180027d28 f   PhysXFoundation_64:PhysXFoundation_64.dll
 0001:00026d34       ?error@Foundation@shdfnd@physx@@QEAAXW4Enum@PxErrorCode@3@PEBDH1ZZ 0000000180027d34 f   PhysXFoundation_64:PhysXFoundation_64.dll
 0001:00026d3a       __imp_load_?incRefCount@Foundation@shdfnd@physx@@SAXXZ 0000000180027d3a f   PhysXFoundation_64:PhysXFoundation_64.dll
 0001:00026d46       ?incRefCount@Foundation@shdfnd@physx@@SAXXZ 0000000180027d46 f   PhysXFoundation_64:PhysXFoundation_64.dll
 0001:00026d4c       __imp_load_?decRefCount@Foundation@shdfnd@physx@@SAXXZ 0000000180027d4c f   PhysXFoundation_64:PhysXFoundation_64.dll
 0001:00026d58       ?decRefCount@Foundation@shdfnd@physx@@SAXXZ 0000000180027d58 f   PhysXFoundation_64:PhysXFoundation_64.dll
 0001:00026d5e       __imp_load_??0FPUGuard@shdfnd@physx@@QEAA@XZ 0000000180027d5e f   PhysXFoundation_64:PhysXFoundation_64.dll
 0001:00026d6a       ??0FPUGuard@shdfnd@physx@@QEAA@XZ 0000000180027d6a f   PhysXFoundation_64:PhysXFoundation_64.dll
 0001:00026d70       __imp_load_??1FPUGuard@shdfnd@physx@@QEAA@XZ 0000000180027d70 f   PhysXFoundation_64:PhysXFoundation_64.dll
 0001:00026d7c       ??1FPUGuard@shdfnd@physx@@QEAA@XZ 0000000180027d7c f   PhysXFoundation_64:PhysXFoundation_64.dll
 0001:00026d82       __imp_load_?allocate@TempAllocator@shdfnd@physx@@QEAAPEAX_KPEBDH@Z 0000000180027d82 f   PhysXFoundation_64:PhysXFoundation_64.dll
 0001:00026d8e       ?allocate@TempAllocator@shdfnd@physx@@QEAAPEAX_KPEBDH@Z 0000000180027d8e f   PhysXFoundation_64:PhysXFoundation_64.dll
 0001:00026d94       __imp_load_?deallocate@TempAllocator@shdfnd@physx@@QEAAXPEAX@Z 0000000180027d94 f   PhysXFoundation_64:PhysXFoundation_64.dll
 0001:00026da0       ?deallocate@TempAllocator@shdfnd@physx@@QEAAXPEAX@Z 0000000180027da0 f   PhysXFoundation_64:PhysXFoundation_64.dll
 0001:00026da6       __imp_load_?PxDiagonalize@physx@@YA?AVPxVec3@1@AEBVPxMat33@1@AEAVPxQuat@1@@Z 0000000180027da6 f   PhysXFoundation_64:PhysXFoundation_64.dll
 0001:00026db2       ?PxDiagonalize@physx@@YA?AVPxVec3@1@AEBVPxMat33@1@AEAVPxQuat@1@@Z 0000000180027db2 f   PhysXFoundation_64:PhysXFoundation_64.dll
 0001:00026db8       ?DloadAcquireSectionWriteAccess@@YAXXZ 0000000180027db8 f i Delayimp:delayhlp.obj
 0001:00026e64       ?DloadGetSRWLockFunctionPointers@@YAEXZ 0000000180027e64 f i Delayimp:delayhlp.obj
 0001:00026f00       ?DloadMakePermanentImageCommit@@YAXPEAX_K@Z 0000000180027f00 f i Delayimp:delayhlp.obj
 0001:00026f98       ?DloadObtainSection@@YAPEAXPEAK0@Z 0000000180027f98 f i Delayimp:delayhlp.obj
 0001:00027034       ?DloadProtectSection@@YAXKPEAK@Z 0000000180028034 f i Delayimp:delayhlp.obj
 0001:000270c4       ?DloadReleaseSectionWriteAccess@@YAXXZ 00000001800280c4 f i Delayimp:delayhlp.obj
 0001:00027158       __delayLoadHelper2         0000000180028158 f   Delayimp:delayhlp.obj
 0001:0002742c       ??3@YAXPEAX_K@Z            000000018002842c f   LIBCMT:delete_scalar_size.obj
 0001:0002742c       ??_V@YAXPEAX@Z             000000018002842c f   LIBCMT:delete_array.obj
 0001:00027434       ??_Etype_info@@UEAAPEAXI@Z 0000000180028434 f i LIBCMT:std_type_info_static.obj
 0001:00027434       ??_Gtype_info@@UEAAPEAXI@Z 0000000180028434 f i LIBCMT:std_type_info_static.obj
 0001:00027460       ?__scrt_initialize_type_info@@YAXXZ 0000000180028460 f   LIBCMT:tncleanup.obj
 0001:00027470       ?__scrt_uninitialize_type_info@@YAXXZ 0000000180028470 f   LIBCMT:tncleanup.obj
 0001:00027490       _alloca_probe              0000000180028490 f   LIBCMT:chkstk.obj
 0001:00027490       __chkstk                   0000000180028490 f   LIBCMT:chkstk.obj
 0001:000274e0       ??3@YAXPEAX@Z              00000001800284e0 f   LIBCMT:delete_scalar.obj
 0001:000274f0       __vdecl_sinf4              00000001800284f0 f   LIBCMT:svml_ssinf4_dispatch.obj
 0001:00027510       __libm_sse2_sincosf_       0000000180028510 f   LIBCMT:svml_ssinf4_dispatch.obj
 0001:00027553       __libm_sse2_sincosf4_      0000000180028553 f   LIBCMT:svml_ssinf4_dispatch.obj
 0001:00027880       _DllMainCRTStartup         0000000180028880 f   LIBCMT:dll_dllmain.obj
 0001:000278c0       __isa_available_init       00000001800288c0 f   LIBCMT:cpu_disp.obj
 0001:00027a70       __sse2_sinf4@@16           0000000180028a70 f   LIBCMT:svml_ssinf4_sse2.obj
 0001:000283b0       __sse4_sinf4@@16           00000001800293b0 f   LIBCMT:svml_ssinf4_sse4.obj
 0001:00028b24       __security_init_cookie     0000000180029b24 f   LIBCMT:gs_support.obj
 0001:00028bd0       __local_stdio_printf_options 0000000180029bd0 f i LIBCMT:default_local_stdio_options.obj
 0001:00028bd8       __local_stdio_scanf_options 0000000180029bd8 f i LIBCMT:default_local_stdio_options.obj
 0001:00028be0       __scrt_initialize_default_local_stdio_options 0000000180029be0 f   LIBCMT:default_local_stdio_options.obj
 0001:00028bfc       __scrt_acquire_startup_lock 0000000180029bfc f   LIBCMT:utility.obj
 0001:00028c38       __scrt_dllmain_after_initialize_c 0000000180029c38 f   LIBCMT:utility.obj
 0001:00028c6c       __scrt_dllmain_before_initialize_c 0000000180029c6c f   LIBCMT:utility.obj
 0001:00028c84       __scrt_dllmain_crt_thread_attach 0000000180029c84 f   LIBCMT:utility.obj
 0001:00028cac       __scrt_dllmain_crt_thread_detach 0000000180029cac f   LIBCMT:utility.obj
 0001:00028cc4       __scrt_dllmain_exception_filter 0000000180029cc4 f   LIBCMT:utility.obj
 0001:00028d24       __scrt_dllmain_uninitialize_c 0000000180029d24 f   LIBCMT:utility.obj
 0001:00028d54       __scrt_dllmain_uninitialize_critical 0000000180029d54 f   LIBCMT:utility.obj
 0001:00028d68       __scrt_initialize_crt      0000000180029d68 f   LIBCMT:utility.obj
 0001:00028db4       __scrt_initialize_onexit_tables 0000000180029db4 f   LIBCMT:utility.obj
 0001:00028e40       __scrt_is_nonwritable_in_current_image 0000000180029e40 f   LIBCMT:utility.obj
 0001:00028ed8       __scrt_release_startup_lock 0000000180029ed8 f   LIBCMT:utility.obj
 0001:00028efc       __scrt_uninitialize_crt    0000000180029efc f   LIBCMT:utility.obj
 0001:00028f28       __scrt_get_dyn_tls_init_callback 0000000180029f28 f   LIBCMT:dyn_tls_init.obj
 0001:00028f30       __crt_debugger_hook        0000000180029f30 f   LIBCMT:utility_desktop.obj
 0001:00028f38       __scrt_fastfail            0000000180029f38 f   LIBCMT:utility_desktop.obj
 0001:00029084       _RTC_Initialize            000000018002a084 f   LIBCMT:initsect.obj
 0001:000290c0       _RTC_Terminate             000000018002a0c0 f   LIBCMT:initsect.obj
 0001:00029100       __common_ssin_cout_rare    000000018002a100 f   LIBCMT:svml_s_sin_cout.obj
 0001:00029170       __scrt_is_ucrt_dll_in_use  000000018002a170 f   LIBCMT:ucrt_detection.obj
 0001:0002917c       _get_purecall_handler      000000018002a17c f   libvcruntime:purevirt.obj
 0001:00029188       _purecall                  000000018002a188 f   libvcruntime:purevirt.obj
 0001:000291ac       __std_type_info_compare    000000018002a1ac f   libvcruntime:std_type_info.obj
 0001:000291d4       __std_type_info_destroy_list 000000018002a1d4 f   libvcruntime:std_type_info.obj
 0001:00029200       __std_type_info_name       000000018002a200 f   libvcruntime:std_type_info.obj
 0001:00029330       memset_repmovs             000000018002a330 f   libvcruntime:memset.obj
 0001:00029350       memset                     000000018002a350 f   libvcruntime:memset.obj
 0001:000294f0       memcpy_repmovs             000000018002a4f0 f   libvcruntime:memcpy.obj
 0001:00029510       memmove                    000000018002a510 f   libvcruntime:memcpy.obj
 0001:00029510       memcpy                     000000018002a510 f   libvcruntime:memcpy.obj
 0001:00029b88       strstr                     000000018002ab88 f   libvcruntime:strstr.obj
 0001:00029d84       __C_specific_handler       000000018002ad84 f   libvcruntime:riscchandler.obj
 0001:00029f90       __vcrt_initialize          000000018002af90 f   libvcruntime:initialization.obj
 0001:00029fb8       __vcrt_thread_attach       000000018002afb8 f   libvcruntime:initialization.obj
 0001:00029fcc       __vcrt_thread_detach       000000018002afcc f   libvcruntime:initialization.obj
 0001:00029fe0       __vcrt_uninitialize        000000018002afe0 f   libvcruntime:initialization.obj
 0001:00029ffc       __vcrt_uninitialize_critical 000000018002affc f   libvcruntime:initialization.obj
 0001:0002a00c       __DestructExceptionObject  000000018002b00c f   libvcruntime:ehhelpers.obj
 0001:0002a07c       ?_CallMemberFunction0@@YAXQEAX0@Z 000000018002b07c f i libvcruntime:ehhelpers.obj
 0001:0002a080       _IsExceptionObjectToBeDestroyed 000000018002b080 f   libvcruntime:ehhelpers.obj
 0001:0002a0b0       __AdjustPointer            000000018002b0b0 f   libvcruntime:ehhelpers.obj
 0001:0002a0d4       __FrameUnwindFilter        000000018002b0d4 f   libvcruntime:ehhelpers.obj
 0001:0002a13c       __std_terminate            000000018002b13c f   libvcruntime:ehhelpers.obj
 0001:0002a148       ??$?0$00@DName@@QEAA@PEBDU?$StringLifeSelector@$00@@@Z 000000018002b148 f i libvcruntime:undname.obj
 0001:0002a188       ??$?0$01@DName@@QEAA@PEBDU?$StringLifeSelector@$01@@@Z 000000018002b188 f i libvcruntime:undname.obj
 0001:0002a188       ??$?0$0A@@DName@@QEAA@PEBDU?$StringLifeSelector@$0A@@@@Z 000000018002b188 f i libvcruntime:undname.obj
 0001:0002a1c8       ??$?0$0A@@pcharNode@@QEAA@PEBDHU?$StringLifeSelector@$0A@@@@Z 000000018002b1c8 f i libvcruntime:undname.obj
 0001:0002a1c8       ??$?0$01@pcharNode@@QEAA@PEBDHU?$StringLifeSelector@$01@@@Z 000000018002b1c8 f i libvcruntime:undname.obj
 0001:0002a23c       ??$append@VpcharNode@@@DName@@AEAAXPEBVpcharNode@@@Z 000000018002b23c f i libvcruntime:undname.obj
 0001:0002a23c       ??$append@VDNameNode@@@DName@@AEAAXPEBVDNameNode@@@Z 000000018002b23c f i libvcruntime:undname.obj
 0001:0002a23c       ??$append@VDNameStatusNode@@@DName@@AEAAXPEBVDNameStatusNode@@@Z 000000018002b23c f i libvcruntime:undname.obj
 0001:0002a23c       ??$append@VcharNode@@@DName@@AEAAXPEBVcharNode@@@Z 000000018002b23c f i libvcruntime:undname.obj
 0001:0002a2a0       ??$doPchar@$00@DName@@AEAAXPEBDH@Z 000000018002b2a0 f i libvcruntime:undname.obj
 0001:0002a344       ??$doPchar@$01@DName@@AEAAXPEBDH@Z 000000018002b344 f i libvcruntime:undname.obj
 0001:0002a344       ??$doPchar@$0A@@DName@@AEAAXPEBDH@Z 000000018002b344 f i libvcruntime:undname.obj
 0001:0002a3dc       ??0DName@@QEAA@AEAPEBDD@Z  000000018002b3dc f   libvcruntime:undname.obj
 0001:0002a48c       ??0DName@@QEAA@AEBUStringLiteral@@@Z 000000018002b48c f   libvcruntime:undname.obj
 0001:0002a4b8       ??0DName@@QEAA@PEAV0@@Z    000000018002b4b8 f   libvcruntime:undname.obj
 0001:0002a53c       ??0DName@@QEAA@_J@Z        000000018002b53c f   libvcruntime:undname.obj
 0001:0002a5e4       ??0DName@@QEAA@_K@Z        000000018002b5e4 f   libvcruntime:undname.obj
 0001:0002a674       ??2@YAPEAX_KAEAV_HeapManager@@H@Z 000000018002b674 f   libvcruntime:undname.obj
 0001:0002a6a0       ??AReplicator@@QEBA?AVDName@@H@Z 000000018002b6a0 f   libvcruntime:undname.obj
 0001:0002a6e0       ??HDName@@QEBA?AV0@AEBUStringLiteral@@@Z 000000018002b6e0 f   libvcruntime:undname.obj
 0001:0002a70c       ??HDName@@QEBA?AV0@AEBV0@@Z 000000018002b70c f   libvcruntime:undname.obj
 0001:0002a738       ??HDName@@QEBA?AV0@D@Z     000000018002b738 f   libvcruntime:undname.obj
 0001:0002a764       ??HDName@@QEBA?AV0@W4DNameStatus@@@Z 000000018002b764 f   libvcruntime:undname.obj
 0001:0002a790       ??YDName@@QEAAAEAV0@AEBUStringLiteral@@@Z 000000018002b790 f   libvcruntime:undname.obj
 0001:0002a810       ??YDName@@QEAAAEAV0@AEBV0@@Z 000000018002b810 f   libvcruntime:undname.obj
 0001:0002a8c4       ??YDName@@QEAAAEAV0@D@Z    000000018002b8c4 f   libvcruntime:undname.obj
 0001:0002a930       ??YDName@@QEAAAEAV0@W4DNameStatus@@@Z 000000018002b930 f   libvcruntime:undname.obj
 0001:0002a99c       ??YReplicator@@QEAAAEAV0@AEBVDName@@@Z 000000018002b99c f   libvcruntime:undname.obj
 0001:0002a9f4       ?UScore@UnDecorator@@SA?AUStringLiteral@@W4Tokens@@@Z 000000018002b9f4 f   libvcruntime:undname.obj
 0001:0002aa40       ?composeDeclaration@UnDecorator@@CA?AVDName@@AEBV2@@Z 000000018002ba40 f i libvcruntime:undname.obj
 0001:0002b8e8       ?doPchar@DName@@AEAAXD@Z   000000018002c8e8 f   libvcruntime:undname.obj
 0001:0002b938       ?getAddressOf@UnDecorator@@CA?AVDName@@XZ 000000018002c938 f   libvcruntime:undname.obj
 0001:0002b9c8       ?getArgumentList@UnDecorator@@CA?AVDName@@XZ 000000018002c9c8 f   libvcruntime:undname.obj
 0001:0002bb5c       ?getArgumentTypes@UnDecorator@@CA?AVDName@@XZ 000000018002cb5c f   libvcruntime:undname.obj
 0001:0002bca8       ?getArrayAccess@UnDecorator@@CA?AVDName@@XZ 000000018002cca8 f   libvcruntime:undname.obj
 0001:0002bd44       ?getArrayObject@UnDecorator@@CA?AVDName@@XZ 000000018002cd44 f   libvcruntime:undname.obj
 0001:0002be18       ?getArrayType@UnDecorator@@CA?AVDName@@AEBV2@@Z 000000018002ce18 f i libvcruntime:undname.obj
 0001:0002c060       ?getBasedType@UnDecorator@@CA?AVDName@@XZ 000000018002d060 f   libvcruntime:undname.obj
 0001:0002c158       ?getBasicDataType@UnDecorator@@CA?AVDName@@AEBV2@@Z 000000018002d158 f   libvcruntime:undname.obj
 0001:0002c6fc       ?getCallingConvention@UnDecorator@@CA?AVDName@@XZ 000000018002d6fc f   libvcruntime:undname.obj
 0001:0002c83c       ?getDataIndirectType@UnDecorator@@CA?AVDName@@AEBV2@W4IndirectionKind@@0H@Z 000000018002d83c f   libvcruntime:undname.obj
 0001:0002d0d4       ?getDataType@UnDecorator@@CA?AVDName@@PEAV2@@Z 000000018002e0d4 f   libvcruntime:undname.obj
 0001:0002d1e8       ?getDecoratedName@UnDecorator@@CA?AVDName@@XZ 000000018002e1e8 f   libvcruntime:undname.obj
 0001:0002d4cc       ?getDimension@UnDecorator@@CA?AVDName@@_N@Z 000000018002e4cc f   libvcruntime:undname.obj
 0001:0002d614       ?getDispatchTarget@UnDecorator@@CA?AVDName@@XZ 000000018002e614 f   libvcruntime:undname.obj
 0001:0002d678       ?getECSUDataType@UnDecorator@@CA?AVDName@@XZ 000000018002e678 f   libvcruntime:undname.obj
 0001:0002d870       ?getEnumType@UnDecorator@@CA?AVDName@@XZ 000000018002e870 f i libvcruntime:undname.obj
 0001:0002d9a0       ?getExtendedDataIndirectType@UnDecorator@@CA?AVDName@@AEAW4IndirectionKind@@AEA_NH@Z 000000018002e9a0 f   libvcruntime:undname.obj
 0001:0002dba8       ?getExternalDataType@UnDecorator@@CA?AVDName@@AEBV2@@Z 000000018002eba8 f i libvcruntime:undname.obj
 0001:0002dc68       ?getFloatingPoint@UnDecorator@@CA?AVDName@@H@Z 000000018002ec68 f   libvcruntime:undname.obj
 0001:0002dd90       ?getFunctionIndirectType@UnDecorator@@CA?AVDName@@AEBV2@@Z 000000018002ed90 f   libvcruntime:undname.obj
 0001:0002e2c8       ?getLastChar@DNameStatusNode@@UEBADXZ 000000018002f2c8 f i libvcruntime:undname.obj
 0001:0002e2d4       ?getLastChar@charNode@@UEBADXZ 000000018002f2d4 f i libvcruntime:undname.obj
 0001:0002e2d8       ?getLastChar@pDNameNode@@UEBADXZ 000000018002f2d8 f i libvcruntime:undname.obj
 0001:0002e304       ?getLastChar@pairNode@@UEBADXZ 000000018002f304 f i libvcruntime:undname.obj
 0001:0002e33c       ?getLastChar@pcharNode@@UEBADXZ 000000018002f33c f i libvcruntime:undname.obj
 0001:0002e350       ?getLexicalFrame@UnDecorator@@CA?AVDName@@XZ 000000018002f350 f i libvcruntime:undname.obj
 0001:0002e3b4       ?getMemberAccess@UnDecorator@@CA?AVDName@@XZ 000000018002f3b4 f   libvcruntime:undname.obj
 0001:0002e448       ?getMemoryWithBuffer@_HeapManager@@QEAAPEAX_K@Z 000000018002f448 f   libvcruntime:undname.obj
 0001:0002e4d8       ?getNoexcept@UnDecorator@@CA?AVDName@@XZ 000000018002f4d8 f   libvcruntime:undname.obj
 0001:0002e53c       ?getNumberOfDimensions@UnDecorator@@CAHXZ 000000018002f53c f   libvcruntime:undname.obj
 0001:0002e59c       ?getOperatorName@UnDecorator@@CA?AVDName@@_NPEA_N@Z 000000018002f59c f i libvcruntime:undname.obj
 0001:0002ef4c       ?getPointerToMember@UnDecorator@@CA?AVDName@@XZ 000000018002ff4c f   libvcruntime:undname.obj
 0001:0002f044       ?getPrimaryDataType@UnDecorator@@CA?AVDName@@AEBV2@@Z 0000000180030044 f   libvcruntime:undname.obj
 0001:0002f2f8       ?getPtrRefDataType@UnDecorator@@CA?AVDName@@AEBV2@H@Z 00000001800302f8 f   libvcruntime:undname.obj
 0001:0002f4c4       ?getPtrRefType@UnDecorator@@CA?AVDName@@AEBV2@0W4IndirectionKind@@@Z 00000001800304c4 f   libvcruntime:undname.obj
 0001:0002f69c       ?getRestrictionSpec@UnDecorator@@CA?AVDName@@XZ 000000018003069c f   libvcruntime:undname.obj
 0001:0002f868       ?getReturnType@UnDecorator@@CA?AVDName@@PEAV2@@Z 0000000180030868 f   libvcruntime:undname.obj
 0001:0002f89c       ?getScope@UnDecorator@@CA?AVDName@@XZ 000000018003089c f   libvcruntime:undname.obj
 0001:0002fd50       ?getScopedName@UnDecorator@@CA?AVDName@@XZ 0000000180030d50 f   libvcruntime:undname.obj
 0001:0002fe8c       ?getSignedDimension@UnDecorator@@CA?AVDName@@XZ 0000000180030e8c f   libvcruntime:undname.obj
 0001:0002ff14       ?getString@DNameStatusNode@@UEBAPEADPEAD0@Z 0000000180030f14 f i libvcruntime:undname.obj
 0001:0002ff5c       ?getString@charNode@@UEBAPEADPEAD0@Z 0000000180030f5c f i libvcruntime:undname.obj
 0001:0002ff70       ?getString@pDNameNode@@UEBAPEADPEAD0@Z 0000000180030f70 f i libvcruntime:undname.obj
 0001:0002ffa0       ?getString@pairNode@@UEBAPEADPEAD0@Z 0000000180030fa0 f i libvcruntime:undname.obj
 0001:0002ffec       ?getString@pcharNode@@UEBAPEADPEAD0@Z 0000000180030fec f i libvcruntime:undname.obj
 0001:00030024       ?getStringEncoding@UnDecorator@@CA?AVDName@@W4PrefixKind@@H@Z 0000000180031024 f   libvcruntime:undname.obj
 0001:0003011c       ?getStringObject@UnDecorator@@CA?AVDName@@XZ 000000018003111c f   libvcruntime:undname.obj
 0001:00030184       ?getSymbolName@UnDecorator@@CA?AVDName@@XZ 0000000180031184 f i libvcruntime:undname.obj
 0001:000301d0       ?getTemplateArgumentList@UnDecorator@@CA?AVDName@@XZ 00000001800311d0 f   libvcruntime:undname.obj
 0001:00030444       ?getTemplateName@UnDecorator@@CA?AVDName@@_N@Z 0000000180031444 f   libvcruntime:undname.obj
 0001:000306d8       ?getTemplateNonTypeArgument@UnDecorator@@CA?AVDName@@XZ 00000001800316d8 f   libvcruntime:undname.obj
 0001:00030c08       ?getTemplateTypeArgument@UnDecorator@@CA?AVDName@@XZ 0000000180031c08 f   libvcruntime:undname.obj
 0001:00030d70       ?getThrowTypes@UnDecorator@@CA?AVDName@@XZ 0000000180031d70 f   libvcruntime:undname.obj
 0001:00030d94       ?getTypeEncoding@UnDecorator@@CAHXZ 0000000180031d94 f i libvcruntime:undname.obj
 0001:00031148       ?getUndecoratedName@UnDecorator@@QEAAPEADPEADH@Z 0000000180032148 f i libvcruntime:undname.obj
 0001:0003129c       ?getUnionObject@UnDecorator@@CA?AVDName@@XZ 000000018003229c f   libvcruntime:undname.obj
 0001:00031374       ?getVCallThunkType@UnDecorator@@CA?AVDName@@XZ 0000000180032374 f i libvcruntime:undname.obj
 0001:000313ec       ?getValue@UnDecorator@@CA?AV?$optional@_K@std@@XZ 00000001800323ec f   libvcruntime:undname.obj
 0001:00031460       ?getValueObject@UnDecorator@@CA?AVDName@@XZ 0000000180032460 f   libvcruntime:undname.obj
 0001:000315c4       ?getVdispMapType@UnDecorator@@CA?AVDName@@AEBV2@@Z 00000001800325c4 f i libvcruntime:undname.obj
 0001:00031640       ?getVfTableType@UnDecorator@@CA?AVDName@@AEBV2@@Z 0000000180032640 f i libvcruntime:undname.obj
 0001:00031848       ?getZName@UnDecorator@@CA?AVDName@@_N0@Z 0000000180032848 f   libvcruntime:undname.obj
 0001:00031b24       ?length@DNameStatusNode@@UEBAHXZ 0000000180032b24 f i libvcruntime:undname.obj
 0001:00031b24       ?raw_length@DNameStatusNode@@UEBAHXZ 0000000180032b24 f i libvcruntime:undname.obj
 0001:00031b28       ?length@pDNameNode@@UEBAHXZ 0000000180032b28 f i libvcruntime:undname.obj
 0001:00031b50       ?length@pairNode@@UEBAHXZ  0000000180032b50 f i libvcruntime:undname.obj
 0001:00031b98       ?parseDecoratedName@UnDecorator@@CA?AVDName@@XZ 0000000180032b98 f   libvcruntime:undname.obj
 0001:00031cb0       ?raw_length@pDNameNode@@UEBAHXZ 0000000180032cb0 f i libvcruntime:undname.obj
 0001:00031cb4       ?raw_length@pairNode@@UEBAHXZ 0000000180032cb4 f i libvcruntime:undname.obj
 0001:00031cb8       __unDName                  0000000180032cb8 f   libvcruntime:undname.obj
 0001:00031ce0       __unDNameEx                0000000180032ce0 f   libvcruntime:undname.obj
 0001:00031e14       sprintf_s                  0000000180032e14 f i libvcruntime:undname.obj
 0001:00031e80       _NLG_Notify                0000000180032e80 f   libvcruntime:notify.obj
 0001:00031ea0       __NLG_Dispatch2            0000000180032ea0 f   libvcruntime:notify.obj
 0001:00031eb0       __NLG_Return2              0000000180032eb0 f   libvcruntime:notify.obj
 0001:00031eb4       __except_validate_context_record 0000000180032eb4 f   libvcruntime:jbcxrval.obj
 0001:00031eec       __vcrt_freefls             0000000180032eec f   libvcruntime:per_thread_data.obj
 0001:00031f0c       __vcrt_freeptd             0000000180032f0c f   libvcruntime:per_thread_data.obj
 0001:00031f5c       __vcrt_getptd              0000000180032f5c f   libvcruntime:per_thread_data.obj
 0001:00031f78       __vcrt_getptd_noexit       0000000180032f78 f   libvcruntime:per_thread_data.obj
 0001:00032038       __vcrt_initialize_ptd      0000000180033038 f   libvcruntime:per_thread_data.obj
 0001:00032080       __vcrt_uninitialize_ptd    0000000180033080 f   libvcruntime:per_thread_data.obj
 0001:000320a4       __vcrt_initialize_locks    00000001800330a4 f   libvcruntime:locks.obj
 0001:000320d8       __vcrt_lock                00000001800330d8 f   libvcruntime:locks.obj
 0001:000320f4       __vcrt_uninitialize_locks  00000001800330f4 f   libvcruntime:locks.obj
 0001:0003212c       __vcrt_unlock              000000018003312c f   libvcruntime:locks.obj
 0001:00032148       ??$_CallSETranslator@V__FrameHandler3@@@@YAHPEAUEHExceptionRecord@@PEA_KPEAU_CONTEXT@@PEAU_xDISPATCHER_CONTEXT@@PEBU_s_FuncInfo@@K1H@Z 0000000180033148 f i libvcruntime:risctrnsctrl.obj
 0001:0003219c       ??$_CallSETranslator@V__FrameHandler4@@@@YAHPEAUEHExceptionRecord@@PEA_KPEAU_CONTEXT@@PEAU_xDISPATCHER_CONTEXT@@PEAUFuncInfo4@FH4@@K1H@Z 000000018003319c f i libvcruntime:risctrnsctrl.obj
 0001:000321f0       ?CatchTryBlock@__FrameHandler3@@SAPEBU_s_TryBlockMapEntry@@PEBU_s_FuncInfo@@H@Z 00000001800331f0 f   libvcruntime:risctrnsctrl.obj
 0001:00032244       ?DecompFuncInfo@FH4@@YA_JPEAEAEAUFuncInfo4@1@_KH_N@Z 0000000180033244 f i libvcruntime:risctrnsctrl.obj
 0001:00032368       ?ExecutionInCatch@__FrameHandler3@@SA_NPEAU_xDISPATCHER_CONTEXT@@PEBU_s_FuncInfo@@@Z 0000000180033368 f   libvcruntime:risctrnsctrl.obj
 0001:00032394       ?ExecutionInCatch@__FrameHandler4@@SA_NPEAU_xDISPATCHER_CONTEXT@@PEAUFuncInfo4@FH4@@@Z 0000000180033394 f   libvcruntime:risctrnsctrl.obj
 0001:0003239c       ?FrameUnwindToEmptyState@__FrameHandler3@@SAXPEA_KPEAU_xDISPATCHER_CONTEXT@@PEBU_s_FuncInfo@@@Z 000000018003339c f   libvcruntime:risctrnsctrl.obj
 0001:00032400       ?FrameUnwindToEmptyState@__FrameHandler4@@SAXPEA_KPEAU_xDISPATCHER_CONTEXT@@PEAUFuncInfo4@FH4@@@Z 0000000180033400 f   libvcruntime:risctrnsctrl.obj
 0001:00032434       ?GetEstablisherFrame@__FrameHandler3@@SAPEA_KPEA_KPEAU_xDISPATCHER_CONTEXT@@PEBU_s_FuncInfo@@0@Z 0000000180033434 f   libvcruntime:risctrnsctrl.obj
 0001:00032500       ?GetEstablisherFrame@__FrameHandler4@@SAPEA_KPEA_KPEAU_xDISPATCHER_CONTEXT@@PEAUFuncInfo4@FH4@@0@Z 0000000180033500 f   libvcruntime:risctrnsctrl.obj
 0001:00032524       ?GetRangeOfTrysToCheck@__FrameHandler3@@SA?AU?$pair@Viterator@TryBlockMap@__FrameHandler3@@V123@@std@@AEAVTryBlockMap@1@HPEAU_xDISPATCHER_CONTEXT@@PEBU_s_FuncInfo@@H@Z 0000000180033524 f   libvcruntime:risctrnsctrl.obj
 0001:00032664       ?GetRangeOfTrysToCheck@__FrameHandler4@@SA?AU?$pair@Viterator@TryBlockMap4@FH4@@V123@@std@@AEAVTryBlockMap4@FH4@@HPEAU_xDISPATCHER_CONTEXT@@PEAUFuncInfo4@5@H@Z 0000000180033664 f   libvcruntime:risctrnsctrl.obj
 0001:000327cc       ?UnwindNestedFrames@__FrameHandler3@@SAXPEA_KPEAUEHExceptionRecord@@PEAU_CONTEXT@@0PEAXPEBU_s_FuncInfo@@HHPEBU_s_HandlerType@@PEAU_xDISPATCHER_CONTEXT@@E@Z 00000001800337cc f   libvcruntime:risctrnsctrl.obj
 0001:000328d0       ?UnwindNestedFrames@__FrameHandler4@@SAXPEA_KPEAUEHExceptionRecord@@PEAU_CONTEXT@@0PEAXPEAUFuncInfo4@FH4@@HHPEAUHandlerType4@5@PEAU_xDISPATCHER_CONTEXT@@E@Z 00000001800338d0 f   libvcruntime:risctrnsctrl.obj
 0001:000329f0       ?setBuffer@TryBlockMap4@FH4@@QEAAXViterator@12@@Z 00000001800339f0 f i libvcruntime:risctrnsctrl.obj
 0001:00032bb0       _CreateFrameInfo           0000000180033bb0 f   libvcruntime:risctrnsctrl.obj
 0001:00032bec       _FindAndUnlinkFrame        0000000180033bec f   libvcruntime:risctrnsctrl.obj
 0001:00032c40       _GetImageBase              0000000180033c40 f   libvcruntime:risctrnsctrl.obj
 0001:00032c54       _GetThrowImageBase         0000000180033c54 f   libvcruntime:risctrnsctrl.obj
 0001:00032c68       _SetImageBase              0000000180033c68 f   libvcruntime:risctrnsctrl.obj
 0001:00032c80       _SetThrowImageBase         0000000180033c80 f   libvcruntime:risctrnsctrl.obj
 0001:00032c98       __CxxFrameHandler3         0000000180033c98 f   libvcruntime:risctrnsctrl.obj
 0001:00032d20       __CxxFrameHandler4         0000000180033d20 f   libvcruntime:risctrnsctrl.obj
 0001:00032f30       __vcrt_FlsAlloc            0000000180033f30 f   libvcruntime:winapi_downlevel.obj
 0001:00032f78       __vcrt_FlsFree             0000000180033f78 f   libvcruntime:winapi_downlevel.obj
 0001:00032fc0       __vcrt_FlsGetValue         0000000180033fc0 f   libvcruntime:winapi_downlevel.obj
 0001:00033008       __vcrt_FlsSetValue         0000000180034008 f   libvcruntime:winapi_downlevel.obj
 0001:0003305c       __vcrt_InitializeCriticalSectionEx 000000018003405c f   libvcruntime:winapi_downlevel.obj
 0001:000330c0       ?GetCurrentState@__FrameHandler3@@SAHPEA_KPEAU_xDISPATCHER_CONTEXT@@PEBU_s_FuncInfo@@@Z 00000001800340c0 f   libvcruntime:ehstate.obj
 0001:000330e8       ?GetUnwindTryBlock@__FrameHandler3@@SAHPEA_KPEAU_xDISPATCHER_CONTEXT@@PEBU_s_FuncInfo@@@Z 00000001800340e8 f   libvcruntime:ehstate.obj
 0001:00033114       ?SetState@__FrameHandler3@@SAXPEA_KPEBU_s_FuncInfo@@H@Z 0000000180034114 f   libvcruntime:ehstate.obj
 0001:00033120       ?SetUnwindTryBlock@__FrameHandler3@@SAXPEA_KPEAU_xDISPATCHER_CONTEXT@@PEBU_s_FuncInfo@@H@Z 0000000180034120 f   libvcruntime:ehstate.obj
 0001:0003315c       ?StateFromControlPc@__FrameHandler3@@SAHPEBU_s_FuncInfo@@PEAU_xDISPATCHER_CONTEXT@@@Z 000000018003415c f   libvcruntime:ehstate.obj
 0001:00033164       ?StateFromControlPc@__FrameHandler4@@SAHPEAUFuncInfo4@FH4@@PEAU_xDISPATCHER_CONTEXT@@@Z 0000000180034164 f   libvcruntime:ehstate.obj
 0001:0003316c       ?StateFromIp@__FrameHandler3@@SAHPEBU_s_FuncInfo@@PEAU_xDISPATCHER_CONTEXT@@_K@Z 000000018003416c f   libvcruntime:ehstate.obj
 0001:000331d4       ?StateFromIp@__FrameHandler4@@SAHPEAUFuncInfo4@FH4@@PEAU_xDISPATCHER_CONTEXT@@_K@Z 00000001800341d4 f   libvcruntime:ehstate.obj
 0001:000348b8       ??$TypeMatchHelper@V__FrameHandler3@@@@YAHPEBU_s_HandlerType@@PEBU_s_CatchableType@@PEBU_s_ThrowInfo@@@Z 00000001800358b8 f i libvcruntime:frame.obj
 0001:000349f8       ??$TypeMatchHelper@V__FrameHandler4@@@@YAHPEAUHandlerType4@FH4@@PEBU_s_CatchableType@@PEBU_s_ThrowInfo@@@Z 00000001800359f8 f i libvcruntime:frame.obj
 0001:00034b3c       ??$__InternalCxxFrameHandler@V__FrameHandler3@@@@YA?AW4_EXCEPTION_DISPOSITION@@PEAUEHExceptionRecord@@PEA_KPEAU_CONTEXT@@PEAU_xDISPATCHER_CONTEXT@@PEBU_s_FuncInfo@@H1E@Z 0000000180035b3c f i libvcruntime:frame.obj
 0001:00034d74       ??$__InternalCxxFrameHandler@V__FrameHandler4@@@@YA?AW4_EXCEPTION_DISPOSITION@@PEAUEHExceptionRecord@@PEA_KPEAU_CONTEXT@@PEAU_xDISPATCHER_CONTEXT@@PEAUFuncInfo4@FH4@@H1E@Z 0000000180035d74 f i libvcruntime:frame.obj
 0001:00035008       ??0HandlerMap4@FH4@@QEAA@PEBUTryBlockMapEntry4@1@_KH@Z 0000000180036008 f i libvcruntime:frame.obj
 0001:00035084       ??0TryBlockMap4@FH4@@QEAA@PEBUFuncInfo4@1@_K@Z 0000000180036084 f i libvcruntime:frame.obj
 0001:0003515c       ??0bad_exception@std@@QEAA@AEBV01@@Z 000000018003615c f i libvcruntime:frame.obj
 0001:00035198       ??0bad_exception@std@@QEAA@XZ 0000000180036198 f i libvcruntime:frame.obj
 0001:000351b8       ??0exception@std@@QEAA@AEBV01@@Z 00000001800361b8 f i libvcruntime:frame.obj
 0001:000351ec       ??1bad_exception@std@@UEAA@XZ 00000001800361ec f i libvcruntime:frame.obj
 0001:00035200       ??_Gbad_exception@std@@UEAAPEAXI@Z 0000000180036200 f i libvcruntime:frame.obj
 0001:00035200       ??_Gexception@std@@UEAAPEAXI@Z 0000000180036200 f i libvcruntime:frame.obj
 0001:00035200       ??_Ebad_exception@std@@UEAAPEAXI@Z 0000000180036200 f i libvcruntime:frame.obj
 0001:00035200       ??_Eexception@std@@UEAAPEAXI@Z 0000000180036200 f i libvcruntime:frame.obj
 0001:00035244       ?CxxCallCatchBlock@__FrameHandler3@@SAPEAXPEAU_EXCEPTION_RECORD@@@Z 0000000180036244 f   libvcruntime:frame.obj
 0001:00035430       ?CxxCallCatchBlock@__FrameHandler4@@SAPEAXPEAU_EXCEPTION_RECORD@@@Z 0000000180036430 f   libvcruntime:frame.obj
 0001:00035680       ?DecompHandler@HandlerMap4@FH4@@AEAAXXZ 0000000180036680 f i libvcruntime:frame.obj
 0001:000358c0       ?FrameUnwindToState@__FrameHandler3@@SAXPEA_KPEAU_xDISPATCHER_CONTEXT@@PEBU_s_FuncInfo@@H@Z 00000001800368c0 f   libvcruntime:frame.obj
 0001:00035a4c       ?FrameUnwindToState@__FrameHandler4@@SAXPEA_KPEAU_xDISPATCHER_CONTEXT@@PEAUFuncInfo4@FH4@@H@Z 0000000180036a4c f   libvcruntime:frame.obj
 0001:00035d34       ?GetHandlerSearchState@__FrameHandler3@@SAHPEA_KPEAU_xDISPATCHER_CONTEXT@@PEBU_s_FuncInfo@@@Z 0000000180036d34 f i libvcruntime:frame.obj
 0001:00035f44       ?ReadEntry@UWMap4@FH4@@AEAAXPEAPEAE@Z 0000000180036f44 f i libvcruntime:frame.obj
 0001:00035fe4       ?_CallMemberFunction1@@YAXQEAX00@Z 0000000180036fe4 f i libvcruntime:frame.obj
 0001:00035ff0       ?_CallMemberFunction2@@YAXQEAX00H@Z 0000000180036ff0 f i libvcruntime:frame.obj
 0001:00036000       ?getStartStop@UWMap4@FH4@@QEAAXHHAEAViterator@12@0@Z 0000000180037000 f i libvcruntime:frame.obj
 0001:000360d0       ?getStateFromIterators@UWMap4@FH4@@SAHAEBViterator@12@H0H0@Z 00000001800370d0 f i libvcruntime:frame.obj
 0001:00036198       ?what@exception@std@@UEBAPEBDXZ 0000000180037198 f i libvcruntime:frame.obj
 0001:000361c0       _CallSettingFrame          00000001800371c0 f   libvcruntime:handlers.obj
 0001:00036210       _CallSettingFrame_LookupContinuationIndex 0000000180037210 f   libvcruntime:handlers.obj
 0001:00036240       _CallSettingFrame_NotifyContinuationAddr 0000000180037240 f   libvcruntime:handlers.obj
 0001:00036270       _CallSettingFrameEncoded   0000000180037270 f   libvcruntime:handlers.obj
 0001:000362b8       __std_exception_copy       00000001800372b8 f   libvcruntime:std_exception.obj
 0001:00036348       __std_exception_destroy    0000000180037348 f   libvcruntime:std_exception.obj
 0001:00036370       _CxxThrowException         0000000180037370 f   libvcruntime:throw.obj
 0001:00036420       strcmp                     0000000180037420 f   libucrt:strcmp.obj
 0001:00036488       atan2f                     0000000180037488 f   libucrt:atan2f.obj
 0001:00036880       cosf                       0000000180037880 f   libucrt:cosf.obj
 0001:00036d80       sinf                       0000000180037d80 f   libucrt:sinf.obj
 0001:00037478       _fpclass                   0000000180038478 f   libucrt:ieeemisc.obj
 0001:00037500       free                       0000000180038500 f   libucrt:free.obj
 0001:00037514       _initterm                  0000000180038514 f   libucrt:initterm.obj
 0001:00037558       _initterm_e                0000000180038558 f   libucrt:initterm.obj
 0001:000375a0       _seh_filter_dll            00000001800385a0 f   libucrt:exception_filter.obj
 0001:000375b4       _seh_filter_exe            00000001800385b4 f   libucrt:exception_filter.obj
 0001:000379cc       __acrt_initialize_thread_local_exit_callback 00000001800389cc f   libucrt:exit.obj
 0001:000379d4       _cexit                     00000001800389d4 f   libucrt:exit.obj
 0001:000379e4       _exit                      00000001800389e4 f   libucrt:exit.obj
 0001:000379f0       _is_c_termination_complete 00000001800389f0 f   libucrt:exit.obj
 0001:00037bc0       __acrt_allocate_buffer_for_argv 0000000180038bc0 f   libucrt:argv_parsing.obj
 0001:00037c20       _configure_narrow_argv     0000000180038c20 f   libucrt:argv_parsing.obj
 0001:00037fa8       __dcrt_uninitialize_environments_nolock 0000000180038fa8 f   libucrt:environment_initialization.obj
 0001:00037fec       _initialize_narrow_environment 0000000180038fec f   libucrt:environment_initialization.obj
 0001:00038150       _execute_onexit_table      0000000180039150 f   libucrt:onexit.obj
 0001:00038194       _initialize_onexit_table   0000000180039194 f   libucrt:onexit.obj
 0001:000381f4       __acrt_uninitialize_command_line 00000001800391f4 f   libucrt:argv_data.obj
 0001:000382ec       __acrt_initialize          00000001800392ec f   libucrt:initialization.obj
 0001:00038300       __acrt_thread_attach       0000000180039300 f   libucrt:initialization.obj
 0001:00038314       __acrt_thread_detach       0000000180039314 f   libucrt:initialization.obj
 0001:00038324       __acrt_uninitialize        0000000180039324 f   libucrt:initialization.obj
 0001:0003835c       __acrt_uninitialize_critical 000000018003935c f   libucrt:initialization.obj
 0001:0003836c       terminate                  000000018003936c f   libucrt:terminate.obj
 0001:00038398       abort                      0000000180039398 f   libucrt:abort.obj
 0001:000383f0       malloc                     00000001800393f0 f   libucrt:malloc.obj
 0001:000383f8       strcpy_s                   00000001800393f8 f   libucrt:strcpy_s.obj
 0001:00038608       ??$ensure_buffer_is_big_enough@D@formatting_buffer@__crt_stdio_output@@QEAA_N_KAEAV__crt_cached_ptd_host@@@Z 0000000180039608 f i libucrt:output.obj
 0001:000386b0       ??$parse_integer@KV?$c_string_character_source@D@__crt_strtox@@$0A@@__crt_strtox@@YAKAEAV__crt_cached_ptd_host@@V?$c_string_character_source@D@0@H_N@Z 00000001800396b0 f i libucrt:output.obj
 0001:00038964       ??$type_case_integer@$07@?$output_processor@DV?$string_output_adapter@D@__crt_stdio_output@@V?$format_validation_base@DV?$string_output_adapter@D@__crt_stdio_output@@@2@@__crt_stdio_output@@AEAA_N_N@Z 0000000180039964 f i libucrt:output.obj
 0001:00038b68       ??$type_case_integer@$09@?$output_processor@DV?$string_output_adapter@D@__crt_stdio_output@@V?$format_validation_base@DV?$string_output_adapter@D@__crt_stdio_output@@@2@@__crt_stdio_output@@AEAA_N_N@Z 0000000180039b68 f i libucrt:output.obj
 0001:00038d6c       ??$type_case_integer@$0BA@@?$output_processor@DV?$string_output_adapter@D@__crt_stdio_output@@V?$format_validation_base@DV?$string_output_adapter@D@__crt_stdio_output@@@2@@__crt_stdio_output@@AEAA_N_N@Z 0000000180039d6c f i libucrt:output.obj
 0001:00038f70       ??$type_case_integer_parse_into_buffer@I$07@?$output_processor@DV?$string_output_adapter@D@__crt_stdio_output@@V?$format_validation_base@DV?$string_output_adapter@D@__crt_stdio_output@@@2@@__crt_stdio_output@@AEAAXI_N@Z 0000000180039f70 f i libucrt:output.obj
 0001:00038fe0       ??$type_case_integer_parse_into_buffer@I$09@?$output_processor@DV?$string_output_adapter@D@__crt_stdio_output@@V?$format_validation_base@DV?$string_output_adapter@D@__crt_stdio_output@@@2@@__crt_stdio_output@@AEAAXI_N@Z 0000000180039fe0 f i libucrt:output.obj
 0001:0003908c       ??$type_case_integer_parse_into_buffer@I$0BA@@?$output_processor@DV?$string_output_adapter@D@__crt_stdio_output@@V?$format_validation_base@DV?$string_output_adapter@D@__crt_stdio_output@@@2@@__crt_stdio_output@@AEAAXI_N@Z 000000018003a08c f i libucrt:output.obj
 0001:00039110       ??$type_case_integer_parse_into_buffer@_K$07@?$output_processor@DV?$string_output_adapter@D@__crt_stdio_output@@V?$format_validation_base@DV?$string_output_adapter@D@__crt_stdio_output@@@2@@__crt_stdio_output@@AEAAX_K_N@Z 000000018003a110 f i libucrt:output.obj
 0001:00039180       ??$type_case_integer_parse_into_buffer@_K$09@?$output_processor@DV?$string_output_adapter@D@__crt_stdio_output@@V?$format_validation_base@DV?$string_output_adapter@D@__crt_stdio_output@@@2@@__crt_stdio_output@@AEAAX_K_N@Z 000000018003a180 f i libucrt:output.obj
 0001:00039230       ??$type_case_integer_parse_into_buffer@_K$0BA@@?$output_processor@DV?$string_output_adapter@D@__crt_stdio_output@@V?$format_validation_base@DV?$string_output_adapter@D@__crt_stdio_output@@@2@@__crt_stdio_output@@AEAAX_K_N@Z 000000018003a230 f i libucrt:output.obj
 0001:000392b4       ?crop_zeroes@__crt_stdio_output@@YAXPEADQEAU__crt_locale_pointers@@@Z 000000018003a2b4 f i libucrt:output.obj
 0001:00039320       ?get_raw_ptd@__crt_cached_ptd_host@@QEAAPEAU__acrt_ptd@@XZ 000000018003a320 f i libucrt:output.obj
 0001:00039388       ?parse_int_from_format_string@?$output_processor@DV?$string_output_adapter@D@__crt_stdio_output@@V?$format_validation_base@DV?$string_output_adapter@D@__crt_stdio_output@@@2@@__crt_stdio_output@@AEAA_NQEAH@Z 000000018003a388 f i libucrt:output.obj
 0001:00039418       ?process@?$output_processor@DV?$string_output_adapter@D@__crt_stdio_output@@V?$format_validation_base@DV?$string_output_adapter@D@__crt_stdio_output@@@2@@__crt_stdio_output@@QEAAHXZ 000000018003a418 f i libucrt:output.obj
 0001:0003979c       ?state_case_size@?$output_processor@DV?$string_output_adapter@D@__crt_stdio_output@@V?$format_validation_base@DV?$string_output_adapter@D@__crt_stdio_output@@@2@@__crt_stdio_output@@AEAA_NXZ 000000018003a79c f i libucrt:output.obj
 0001:00039924       ?state_case_type@?$output_processor@DV?$string_output_adapter@D@__crt_stdio_output@@V?$format_validation_base@DV?$string_output_adapter@D@__crt_stdio_output@@@2@@__crt_stdio_output@@AEAA_NXZ 000000018003a924 f i libucrt:output.obj
 0001:00039d28       ?type_case_Z@?$output_processor@DV?$string_output_adapter@D@__crt_stdio_output@@V?$format_validation_base@DV?$string_output_adapter@D@__crt_stdio_output@@@2@@__crt_stdio_output@@AEAA_NXZ 000000018003ad28 f i libucrt:output.obj
 0001:00039da4       ?type_case_a@?$output_processor@DV?$string_output_adapter@D@__crt_stdio_output@@V?$format_validation_base@DV?$string_output_adapter@D@__crt_stdio_output@@@2@@__crt_stdio_output@@AEAA_NXZ 000000018003ada4 f i libucrt:output.obj
 0001:00039ff8       ?type_case_c_tchar@?$output_processor@DV?$string_output_adapter@D@__crt_stdio_output@@V?$format_validation_base@DV?$string_output_adapter@D@__crt_stdio_output@@@2@@__crt_stdio_output@@AEAA_ND@Z 000000018003aff8 f i libucrt:output.obj
 0001:0003a0cc       ?type_case_n@?$output_processor@DV?$string_output_adapter@D@__crt_stdio_output@@V?$format_validation_base@DV?$string_output_adapter@D@__crt_stdio_output@@@2@@__crt_stdio_output@@AEAA_NXZ 000000018003b0cc f i libucrt:output.obj
 0001:0003a184       ?type_case_s@?$output_processor@DV?$string_output_adapter@D@__crt_stdio_output@@V?$format_validation_base@DV?$string_output_adapter@D@__crt_stdio_output@@@2@@__crt_stdio_output@@AEAA_NXZ 000000018003b184 f i libucrt:output.obj
 0001:0003a220       ?update_locale_slow@__crt_cached_ptd_host@@AEAAXXZ 000000018003b220 f i libucrt:output.obj
 0001:0003a298       ?write_string@?$string_output_adapter@D@__crt_stdio_output@@QEBAXQEBDHQEAHAEAV__crt_cached_ptd_host@@@Z 000000018003b298 f i libucrt:output.obj
 0001:0003a33c       __stdio_common_vsprintf_s  000000018003b33c f   libucrt:output.obj
 0001:0003a450       ??$parse_integer@KV?$c_string_character_source@D@__crt_strtox@@$00@__crt_strtox@@YAKAEAV__crt_cached_ptd_host@@V?$c_string_character_source@D@0@H_N@Z 000000018003b450 f i libucrt:atox.obj
 0001:0003a740       _ischartype_l              000000018003b740 f i libucrt:atox.obj
 0001:0003a7b8       atol                       000000018003b7b8 f   libucrt:atox.obj
 0001:0003a880       strncmp                    000000018003b880 f   libucrt:strncmp.obj
 0001:0003a900       calloc                     000000018003b900 f   libucrt:calloc.obj
 0001:0003a908       wcsncmp                    000000018003b908 f   libucrt:wcsncmp.obj
 0001:0003a934       _clrfp                     000000018003b934 f   libucrt:fpctrl.obj
 0001:0003a954       _ctrlfp                    000000018003b954 f   libucrt:fpctrl.obj
 0001:0003a9d0       _set_statfp                000000018003b9d0 f   libucrt:fpctrl.obj
 0001:0003a9f0       _statfp                    000000018003b9f0 f   libucrt:fpctrl.obj
 0001:0003ab28       _handle_error              000000018003bb28 f   libucrt:libm_error.obj
 0001:0003ac50       _handle_errorf             000000018003bc50 f   libucrt:libm_error.obj
 0001:0003ad84       _handle_nan                000000018003bd84 f   libucrt:libm_error.obj
 0001:0003ada0       _handle_nanf               000000018003bda0 f   libucrt:libm_error.obj
 0001:0003adb0       __remainder_piby2d2f_forAsm 000000018003bdb0 f   libucrt:remainder_piby2f_forasm.obj
 0001:0003af00       __remainder_piby2_fma3     000000018003bf00 f   libucrt:remainder_piby2_forfma3.obj
 0001:0003b0f0       __remainder_piby2_fma3_bdl 000000018003c0f0 f   libucrt:remainder_piby2_forfma3.obj
 0001:0003b168       _cosf_special              000000018003c168 f   libucrt:sincos_special.obj
 0001:0003b208       _sinf_special              000000018003c208 f   libucrt:sincos_special.obj
 0001:0003b220       __acrt_initialize_fma3     000000018003c220 f   libucrt:fma3_available.obj
 0001:0003b290       __remainder_piby2d2f_forC  000000018003c290 f   libucrt:remainder_piby2f_forc.obj
 0001:0003b41c       _free_base                 000000018003c41c f   libucrt:free_base.obj
 0001:0003b7d0       __acrt_freeptd             000000018003c7d0 f   libucrt:per_thread_data.obj
 0001:0003b814       __acrt_getptd              000000018003c814 f   libucrt:per_thread_data.obj
 0001:0003b8e8       __acrt_getptd_head         000000018003c8e8 f   libucrt:per_thread_data.obj
 0001:0003b98c       __acrt_getptd_noexit       000000018003c98c f   libucrt:per_thread_data.obj
 0001:0003ba54       __acrt_getptd_noexit_explicit 000000018003ca54 f   libucrt:per_thread_data.obj
 0001:0003bb14       __acrt_initialize_ptd      000000018003cb14 f   libucrt:per_thread_data.obj
 0001:0003bb50       __acrt_uninitialize_ptd    000000018003cb50 f   libucrt:per_thread_data.obj
 0001:0003bb74       __acrt_initialize_locks    000000018003cb74 f   libucrt:locks.obj
 0001:0003bbbc       __acrt_lock                000000018003cbbc f   libucrt:locks.obj
 0001:0003bbd8       __acrt_uninitialize_locks  000000018003cbd8 f   libucrt:locks.obj
 0001:0003bc10       __acrt_unlock              000000018003cc10 f   libucrt:locks.obj
 0001:0003bc2c       __acrt_app_verifier_enabled 000000018003cc2c f   libucrt:peb_access.obj
 0001:0003bc48       __acrt_is_secure_process   000000018003cc48 f   libucrt:peb_access.obj
 0001:0003bc60       __acrt_get_process_end_policy 000000018003cc60 f   libucrt:win_policies.obj
 0001:0003bc90       ?get_raw_ptd_noexit@__crt_cached_ptd_host@@QEAAPEAU__acrt_ptd@@XZ 000000018003cc90 f i libucrt:invalid_parameter.obj
 0001:0003bcfc       ?value@?$dual_state_global@P6AXPEB_W00I_K@Z@__crt_state_management@@QEAAAEAP6AXPEB_W00I_K@ZAEAV__crt_cached_ptd_host@@@Z 000000018003ccfc f i libucrt:invalid_parameter.obj
 0001:0003bd48       __acrt_call_reportfault    000000018003cd48 f   libucrt:invalid_parameter.obj
 0001:0003bea4       __acrt_initialize_invalid_parameter_handler 000000018003cea4 f   libucrt:invalid_parameter.obj
 0001:0003beac       _invalid_parameter         000000018003ceac f   libucrt:invalid_parameter.obj
 0001:0003bf48       _invalid_parameter_internal 000000018003cf48 f   libucrt:invalid_parameter.obj
 0001:0003c014       _invalid_parameter_noinfo  000000018003d014 f   libucrt:invalid_parameter.obj
 0001:0003c034       _invoke_watson             000000018003d034 f   libucrt:invalid_parameter.obj
 0001:0003c07c       __acrt_errno_from_os_error 000000018003d07c f   libucrt:errno.obj
 0001:0003c0c4       __acrt_errno_map_os_error  000000018003d0c4 f   libucrt:errno.obj
 0001:0003c10c       __acrt_errno_map_os_error_ptd 000000018003d10c f   libucrt:errno.obj
 0001:0003c130       __doserrno                 000000018003d130 f   libucrt:errno.obj
 0001:0003c150       _errno                     000000018003d150 f   libucrt:errno.obj
 0001:0003c170       _calloc_base               000000018003d170 f   libucrt:calloc_base.obj
 0001:0003c1fc       ??$__acrt_convert_wcs_mbs_cp@D_WV<lambda_7c9dea7b4ca7285d2cdb541a38da6275>@@U__crt_win32_buffer_internal_dynamic_resizing@@@@YAHQEBDAEAV?$__crt_win32_buffer@_WU__crt_win32_buffer_internal_dynamic_resizing@@@@AEBV<lambda_7c9dea7b4ca7285d2cdb541a38da6275>@@I@Z 000000018003d1fc f i libucrt:argv_wildcards.obj
 0001:0003c378       ??$__acrt_convert_wcs_mbs_cp@_WDV<lambda_d8593a27d1aa8c02be35c86a17d324c4>@@U__crt_win32_buffer_internal_dynamic_resizing@@@@YAHQEB_WAEAV?$__crt_win32_buffer@DU__crt_win32_buffer_internal_dynamic_resizing@@@@AEBV<lambda_d8593a27d1aa8c02be35c86a17d324c4>@@I@Z 000000018003d378 f i libucrt:argv_wildcards.obj
 0001:0003cc1c       ??0_LocaleUpdate@@QEAA@QEAU__crt_locale_pointers@@@Z 000000018003dc1c f i libucrt:argv_wildcards.obj
 0001:0003ccb8       __acrt_expand_narrow_argv_wildcards 000000018003dcb8 f   libucrt:argv_wildcards.obj
 0001:0003ccc0       ??$__acrt_convert_wcs_mbs_cp@_WDV<lambda_f788ae46380686e8b737efdd8c720d07>@@U__crt_win32_buffer_no_resizing@@@@YAHQEB_WAEAV?$__crt_win32_buffer@DU__crt_win32_buffer_no_resizing@@@@AEBV<lambda_f788ae46380686e8b737efdd8c720d07>@@I@Z 000000018003dcc0 f i libucrt:getmodulefilenamea.obj
 0001:0003cddc       __acrt_GetModuleFileNameA  000000018003dddc f   libucrt:getmodulefilenamea.obj
 0001:0003d6f8       __acrt_initialize_multibyte 000000018003e6f8 f   libucrt:mbctype.obj
 0001:0003d758       __acrt_update_thread_multibyte_data 000000018003e758 f   libucrt:mbctype.obj
 0001:0003d774       _setmbcp_nolock            000000018003e774 f   libucrt:mbctype.obj
 0001:0003daa8       _ismbblead                 000000018003eaa8 f   libucrt:ismbbyte.obj
 0001:0003dabc       __acrt_initialize_command_line 000000018003eabc f   libucrt:argv_data.obj
 0001:0003dae4       __acrt_MultiByteToWideChar 000000018003eae4 f   libucrt:multibytetowidechar.obj
 0001:0003db74       __acrt_WideCharToMultiByte 000000018003eb74 f   libucrt:widechartomultibyte.obj
 0001:0003dc54       __dcrt_get_narrow_environment_from_os 000000018003ec54 f   libucrt:get_environment_from_os.obj
 0001:0003dd64       _recalloc_base             000000018003ed64 f   libucrt:recalloc.obj
 0001:0003dfb8       __acrt_AppPolicyGetProcessTerminationMethodInternal 000000018003efb8 f   libucrt:winapi_thunks.obj
 0001:0003e010       __acrt_AreFileApisANSI     000000018003f010 f   libucrt:winapi_thunks.obj
 0001:0003e054       __acrt_FlsAlloc            000000018003f054 f   libucrt:winapi_thunks.obj
 0001:0003e05c       __acrt_FlsFree             000000018003f05c f   libucrt:winapi_thunks.obj
 0001:0003e064       __acrt_FlsGetValue         000000018003f064 f   libucrt:winapi_thunks.obj
 0001:0003e06c       __acrt_FlsSetValue         000000018003f06c f   libucrt:winapi_thunks.obj
 0001:0003e074       __acrt_InitializeCriticalSectionEx 000000018003f074 f   libucrt:winapi_thunks.obj
 0001:0003e0e4       __acrt_LCMapStringEx       000000018003f0e4 f   libucrt:winapi_thunks.obj
 0001:0003e1d0       __acrt_LocaleNameToLCID    000000018003f1d0 f   libucrt:winapi_thunks.obj
 0001:0003e230       __acrt_initialize_winapi_thunks 000000018003f230 f   libucrt:winapi_thunks.obj
 0001:0003e254       __acrt_uninitialize_winapi_thunks 000000018003f254 f   libucrt:winapi_thunks.obj
 0001:0003e298       __acrt_initialize_heap     000000018003f298 f   libucrt:heap_handle.obj
 0001:0003e2b4       __acrt_uninitialize_heap   000000018003f2b4 f   libucrt:heap_handle.obj
 0001:0003e4b8       __acrt_initialize_lowio    000000018003f4b8 f   libucrt:ioinit.obj
 0001:0003e4f4       __acrt_uninitialize_lowio  000000018003f4f4 f   libucrt:ioinit.obj
 0001:0003e534       __acrt_execute_initializers 000000018003f534 f   libucrt:shared_initialization.obj
 0001:0003e5c8       __acrt_execute_uninitializers 000000018003f5c8 f   libucrt:shared_initialization.obj
 0001:0003e610       __acrt_initialize_new_handler 000000018003f610 f   libucrt:new_handler.obj
 0001:0003e618       _callnewh                  000000018003f618 f   libucrt:new_handler.obj
 0001:0003e658       _query_new_handler         000000018003f658 f   libucrt:new_handler.obj
 0001:0003e6d8       __acrt_get_sigabrt_handler 000000018003f6d8 f   libucrt:signal.obj
 0001:0003e708       __acrt_initialize_signal_handlers 000000018003f708 f   libucrt:signal.obj
 0001:0003e728       raise                      000000018003f728 f   libucrt:signal.obj
 0001:0003e9a4       __acrt_has_user_matherr    000000018003f9a4 f   libucrt:matherr.obj
 0001:0003e9c4       __acrt_initialize_user_matherr 000000018003f9c4 f   libucrt:matherr.obj
 0001:0003e9cc       __acrt_invoke_user_matherr 000000018003f9cc f   libucrt:matherr.obj
 0001:0003ebe8       __acrt_stdio_flush_nolock  000000018003fbe8 f   libucrt:fflush.obj
 0001:0003ec74       _fflush_nolock             000000018003fc74 f   libucrt:fflush.obj
 0001:0003ed48       _flushall                  000000018003fd48 f   libucrt:fflush.obj
 0001:0003ed50       __acrt_initialize_stdio    000000018003fd50 f   libucrt:_file.obj
 0001:0003ee70       __acrt_uninitialize_stdio  000000018003fe70 f   libucrt:_file.obj
 0001:0003eecc       _lock_file                 000000018003fecc f   libucrt:_file.obj
 0001:0003eed8       _unlock_file               000000018003fed8 f   libucrt:_file.obj
 0001:0003eee4       _malloc_base               000000018003fee4 f   libucrt:malloc_base.obj
 0001:0003ef44       strnlen                    000000018003ff44 f   libucrt:strnlen.obj
 0001:0003f094       wcsnlen                    0000000180040094 f   libucrt:strnlen.obj
 0001:0003f26c       __acrt_update_locale_info  000000018004026c f   libucrt:locale_update.obj
 0001:0003f2a0       __acrt_update_locale_info_explicit 00000001800402a0 f   libucrt:locale_update.obj
 0001:0003f2d8       __acrt_update_multibyte_info 00000001800402d8 f   libucrt:locale_update.obj
 0001:0003f30c       __acrt_update_multibyte_info_explicit 000000018004030c f   libucrt:locale_update.obj
 0001:0003fe58       __acrt_fp_format           0000000180040e58 f   libucrt:cvt.obj
 0001:00040140       _wctomb_internal           0000000180041140 f   libucrt:wctomb.obj
 0001:000402f0       _mbtowc_internal           00000001800412f0 f   libucrt:mbtowc.obj
 0001:00040468       _fileno                    0000000180041468 f   libucrt:fileno.obj
 0001:00040490       _get_printf_count_output   0000000180041490 f   libucrt:printf_count_output.obj
 0001:00040518       __acrt_set_locale_changed  0000000180041518 f   libucrt:wsetlocale.obj
 0001:00040524       __acrt_uninitialize_locale 0000000180041524 f   libucrt:wsetlocale.obj
 0001:00040554       __pctype_func              0000000180041554 f   libucrt:ctype.obj
 0001:00040584       _isctype_l                 0000000180041584 f   libucrt:isctype.obj
 0001:000406a0       _get_fpsr                  00000001800416a0 f   libucrt:fpsr.obj
 0001:000406b0       _set_fpsr                  00000001800416b0 f   libucrt:fpsr.obj
 0001:000406ba       _fclrf                     00000001800416ba f   libucrt:fpsr.obj
 0001:000406ce       _frnd                      00000001800416ce f   libucrt:fpsr.obj
 0001:000406f0       _raise_exc                 00000001800416f0 f   libucrt:fpexcept.obj
 0001:00040718       _raise_exc_ex              0000000180041718 f   libucrt:fpexcept.obj
 0001:00040a20       _raise_excf                0000000180041a20 f   libucrt:fpexcept.obj
 0001:00040a4c       _set_errno_from_matherr    0000000180041a4c f   libucrt:fpexcept.obj
 0001:00040a7c       __acrt_add_locale_ref      0000000180041a7c f   libucrt:locale_refcounting.obj
 0001:00040b08       __acrt_free_locale         0000000180041b08 f   libucrt:locale_refcounting.obj
 0001:00040c80       __acrt_locale_add_lc_time_reference 0000000180041c80 f   libucrt:locale_refcounting.obj
 0001:00040ca8       __acrt_locale_free_lc_time_if_unreferenced 0000000180041ca8 f   libucrt:locale_refcounting.obj
 0001:00040ce0       __acrt_locale_release_lc_time_reference 0000000180041ce0 f   libucrt:locale_refcounting.obj
 0001:00040d08       __acrt_release_locale_ref  0000000180041d08 f   libucrt:locale_refcounting.obj
 0001:00040db0       __acrt_update_thread_locale_data 0000000180041db0 f   libucrt:locale_refcounting.obj
 0001:00040e20       _updatetlocinfoEx_nolock   0000000180041e20 f   libucrt:locale_refcounting.obj
 0001:00040e88       _query_new_mode            0000000180041e88 f   libucrt:new_mode.obj
 0001:00040e90       qsort                      0000000180041e90 f   libucrt:qsort.obj
 0001:000412a0       strncpy_s                  00000001800422a0 f   libucrt:strncpy_s.obj
 0001:00041430       strpbrk                    0000000180042430 f   libucrt:strpbrk.obj
 0001:000417f8       _mbsdec                    00000001800427f8 f   libucrt:mbsdec.obj
 0001:00041800       _mbsdec_l                  0000000180042800 f   libucrt:mbsdec.obj
 0001:00041894       __acrt_GetStringTypeA      0000000180042894 f   libucrt:getstringtypea.obj
 0001:00041d58       __acrt_LCMapStringA        0000000180042d58 f   libucrt:lcmapstringa.obj
 0001:00041e08       _msize_base                0000000180042e08 f   libucrt:msize.obj
 0001:00041e44       _realloc_base              0000000180042e44 f   libucrt:realloc_base.obj
 0001:00041ec0       __acrt_DownlevelLocaleNameToLCID 0000000180042ec0 f   libucrt:lcidtoname_downlevel.obj
 0001:00041f64       __acrt_lowio_create_handle_array 0000000180042f64 f   libucrt:osfinfo.obj
 0001:0004200c       __acrt_lowio_destroy_handle_array 000000018004300c f   libucrt:osfinfo.obj
 0001:0004205c       __acrt_lowio_ensure_fh_exists 000000018004305c f   libucrt:osfinfo.obj
 0001:00042104       __acrt_lowio_lock_fh       0000000180043104 f   libucrt:osfinfo.obj
 0001:0004212c       __acrt_lowio_unlock_fh     000000018004312c f   libucrt:osfinfo.obj
 0001:00042154       _free_osfhnd               0000000180043154 f   libucrt:osfinfo.obj
 0001:00042210       _get_osfhandle             0000000180043210 f   libucrt:osfinfo.obj
 0001:00042314       _commit                    0000000180043314 f   libucrt:commit.obj
 0001:00042bb0       _write_internal            0000000180043bb0 f   libucrt:write.obj
 0001:00042cd0       _write_nolock              0000000180043cd0 f   libucrt:write.obj
 0001:00042fd8       _fcloseall                 0000000180043fd8 f   libucrt:closeall.obj
 0001:0004308c       __acrt_stdio_free_buffer_nolock 000000018004408c f   libucrt:_freebuf.obj
 0001:000430d0       _isatty                    00000001800440d0 f   libucrt:isatty.obj
 0001:00043200       __acrt_fp_strflt_to_string 0000000180044200 f   libucrt:_fptostr.obj
 0001:00043310       ?divide@__crt_strtox@@YA_KAEAUbig_integer@1@AEBU21@@Z 0000000180044310 f i libucrt:cfout.obj
 0001:000437ac       __acrt_fltout              00000001800447ac f   libucrt:cfout.obj
 0001:00044ac4       fegetround                 0000000180045ac4 f   libucrt:fegetround.obj
 0001:00044ad8       ?__c32rtomb_utf8@__crt_mbstring@@YA_KPEAD_UPEAU_Mbstatet@@AEAV__crt_cached_ptd_host@@@Z 0000000180045ad8 f   libucrt:c32rtomb.obj
 0001:00044b7c       ?__mbrtowc_utf8@__crt_mbstring@@YA_KPEA_WPEBD_KPEAU_Mbstatet@@AEAV__crt_cached_ptd_host@@@Z 0000000180045b7c f   libucrt:mbrtowc.obj
 0001:00044bc0       ?__mbsrtowcs_utf8@__crt_mbstring@@YA_KPEA_WPEAPEBD_KPEAU_Mbstatet@@AEAV__crt_cached_ptd_host@@@Z 0000000180045bc0 f   libucrt:mbrtowc.obj
 0001:00044d64       __acrt_locale_free_monetary 0000000180045d64 f   libucrt:initmon.obj
 0001:00044e70       __acrt_locale_free_numeric 0000000180045e70 f   libucrt:initnum.obj
 0001:00044f10       __acrt_locale_free_time    0000000180045f10 f   libucrt:inittime.obj
 0001:00045018       __strncnt                  0000000180046018 f   libucrt:strncnt.obj
 0001:00045030       __ascii_wcsnicmp           0000000180046030 f   libucrt:wcsnicmp.obj
 0001:0004507c       _query_app_type            000000018004607c f   libucrt:report_runtime_error.obj
 0001:00045130       _lseeki64_nolock_internal  0000000180046130 f   libucrt:lseek.obj
 0001:00045138       _putwch_nolock             0000000180046138 f   libucrt:putwch.obj
 0001:00045298       fclose                     0000000180046298 f   libucrt:fclose.obj
 0001:00045330       _controlfp_s               0000000180046330 f   libucrt:contrlfp.obj
 0001:00045394       fegetenv                   0000000180046394 f   libucrt:fegetenv.obj
 0001:000453b4       fesetenv                   00000001800463b4 f   libucrt:fesetenv.obj
 0001:0004540c       feholdexcept               000000018004640c f   libucrt:feholdexcept.obj
 0001:0004545c       ceil                       000000018004645c f   libucrt:ceil.obj
 0001:00045520       log10                      0000000180046520 f   libucrt:log10.obj
 0001:00045acc       __acrt_fenv_get_common_round_control 0000000180046acc f   libucrt:_fenvutils.obj
 0001:00045ad8       __acrt_fenv_get_control    0000000180046ad8 f   libucrt:_fenvutils.obj
 0001:00045bbc       __acrt_fenv_get_status     0000000180046bbc f   libucrt:_fenvutils.obj
 0001:00045c14       __acrt_fenv_set_control    0000000180046c14 f   libucrt:_fenvutils.obj
 0001:00045d4c       __acrt_fenv_set_status     0000000180046d4c f   libucrt:_fenvutils.obj
 0001:00045dc0       ?reset_and_return@__crt_mbstring@@YA_K_KPEAU_Mbstatet@@@Z 0000000180046dc0 f   libucrt:common_utf8.obj
 0001:00045dc8       ?return_illegal_sequence@__crt_mbstring@@YA_KPEAU_Mbstatet@@AEAV__crt_cached_ptd_host@@@Z 0000000180046dc8 f   libucrt:common_utf8.obj
 0001:00045ddc       ?__mbrtoc32_utf8@__crt_mbstring@@YA_KPEA_UPEBD_KPEAU_Mbstatet@@AEAV__crt_cached_ptd_host@@@Z 0000000180046ddc f   libucrt:mbrtoc32.obj
 0001:00045fb8       __dcrt_lowio_ensure_console_output_initialized 0000000180046fb8 f   libucrt:initcon.obj
 0001:0004600c       __dcrt_terminate_console_output 000000018004700c f   libucrt:initcon.obj
 0001:00046028       __dcrt_write_console       0000000180047028 f   libucrt:initcon.obj
 0001:00046160       _close_internal            0000000180047160 f   libucrt:close.obj
 0001:00046224       _close_nolock_internal     0000000180047224 f   libucrt:close.obj
 0001:000462f4       ?__acrt_stdio_free_stream@@YAXV__crt_stdio_stream@@@Z 00000001800472f4 f   libucrt:stream.obj
 0001:00046310       _clearfp                   0000000180047310 f   libucrt:ieee.obj
 0001:0004637c       _control87                 000000018004737c f   libucrt:ieee.obj
 0001:00046620       _log10_special             0000000180047620 f   libucrt:log_special.obj
 0001:000466e0       _FindPESection             00000001800476e0 f   LIBCMT:pesect.obj
 0001:00046730       _IsNonwritableInCurrentImage 0000000180047730 f   LIBCMT:pesect.obj
 0001:00046780       _ValidateImageBase         0000000180047780 f   LIBCMT:pesect.obj
 0001:000467b0       __GSHandlerCheck           00000001800477b0 f   LIBCMT:gshandler.obj
 0001:000467d0       __GSHandlerCheckCommon     00000001800477d0 f   LIBCMT:gshandler.obj
 0001:00046840       __security_check_cookie    0000000180047840 f   LIBCMT:amdsecgs.obj
 0001:00046860       __GSHandlerCheck_SEH       0000000180047860 f   LIBCMT:gshandlerseh.obj
 0001:000468e8       __raise_securityfailure    00000001800478e8 f   LIBCMT:gs_report.obj
 0001:0004691c       __report_gsfailure         000000018004791c f   LIBCMT:gs_report.obj
 0001:000469f0       __report_rangecheckfailure 00000001800479f0 f   LIBCMT:gs_report.obj
 0001:00046a04       __report_securityfailure   0000000180047a04 f   LIBCMT:gs_report.obj
 0001:00046b84       __GSHandlerCheck_EH        0000000180047b84 f   LIBCMT:gshandlereh.obj
 0001:00046c04       __C_specific_handler_noexcept 0000000180047c04 f   libvcruntime:chandler_noexcept.obj
 0001:00046c50       strrchr                    0000000180047c50 f   libvcruntime:strrchr.obj
 0001:00046d90       memcmp                     0000000180047d90 f   libvcruntime:memcmp.obj
 0001:00046e70       _guard_dispatch_icall_nop  0000000180047e70 f   LIBCMT:guard_dispatch.obj
 0001:00046e90       _guard_xfg_dispatch_icall_nop 0000000180047e90 f   LIBCMT:guard_xfg_dispatch.obj
 0002:00000000       __imp_LoadLibraryA         0000000180049000     kernel32:KERNEL32.dll
 0002:00000008       __imp_WriteConsoleW        0000000180049008     kernel32:KERNEL32.dll
 0002:00000010       __imp_RaiseException       0000000180049010     kernel32:KERNEL32.dll
 0002:00000018       __imp_GetLastError         0000000180049018     kernel32:KERNEL32.dll
 0002:00000020       __imp_GetSystemInfo        0000000180049020     kernel32:KERNEL32.dll
 0002:00000028       __imp_VirtualProtect       0000000180049028     kernel32:KERNEL32.dll
 0002:00000030       __imp_VirtualQuery         0000000180049030     kernel32:KERNEL32.dll
 0002:00000038       __imp_FreeLibrary          0000000180049038     kernel32:KERNEL32.dll
 0002:00000040       __imp_GetModuleHandleW     0000000180049040     kernel32:KERNEL32.dll
 0002:00000048       __imp_GetProcAddress       0000000180049048     kernel32:KERNEL32.dll
 0002:00000050       __imp_LoadLibraryExA       0000000180049050     kernel32:KERNEL32.dll
 0002:00000058       __imp_InitializeSListHead  0000000180049058     kernel32:KERNEL32.dll
 0002:00000060       __imp_QueryPerformanceCounter 0000000180049060     kernel32:KERNEL32.dll
 0002:00000068       __imp_GetCurrentProcessId  0000000180049068     kernel32:KERNEL32.dll
 0002:00000070       __imp_GetCurrentThreadId   0000000180049070     kernel32:KERNEL32.dll
 0002:00000078       __imp_GetSystemTimeAsFileTime 0000000180049078     kernel32:KERNEL32.dll
 0002:00000080       __imp_RtlCaptureContext    0000000180049080     kernel32:KERNEL32.dll
 0002:00000088       __imp_RtlLookupFunctionEntry 0000000180049088     kernel32:KERNEL32.dll
 0002:00000090       __imp_RtlVirtualUnwind     0000000180049090     kernel32:KERNEL32.dll
 0002:00000098       __imp_IsDebuggerPresent    0000000180049098     kernel32:KERNEL32.dll
 0002:000000a0       __imp_UnhandledExceptionFilter 00000001800490a0     kernel32:KERNEL32.dll
 0002:000000a8       __imp_SetUnhandledExceptionFilter 00000001800490a8     kernel32:KERNEL32.dll
 0002:000000b0       __imp_GetStartupInfoW      00000001800490b0     kernel32:KERNEL32.dll
 0002:000000b8       __imp_IsProcessorFeaturePresent 00000001800490b8     kernel32:KERNEL32.dll
 0002:000000c0       __imp_InterlockedPushEntrySList 00000001800490c0     kernel32:KERNEL32.dll
 0002:000000c8       __imp_InterlockedFlushSList 00000001800490c8     kernel32:KERNEL32.dll
 0002:000000d0       __imp_RtlUnwindEx          00000001800490d0     kernel32:KERNEL32.dll
 0002:000000d8       __imp_SetLastError         00000001800490d8     kernel32:KERNEL32.dll
 0002:000000e0       __imp_EnterCriticalSection 00000001800490e0     kernel32:KERNEL32.dll
 0002:000000e8       __imp_LeaveCriticalSection 00000001800490e8     kernel32:KERNEL32.dll
 0002:000000f0       __imp_DeleteCriticalSection 00000001800490f0     kernel32:KERNEL32.dll
 0002:000000f8       __imp_InitializeCriticalSectionAndSpinCount 00000001800490f8     kernel32:KERNEL32.dll
 0002:00000100       __imp_TlsAlloc             0000000180049100     kernel32:KERNEL32.dll
 0002:00000108       __imp_TlsGetValue          0000000180049108     kernel32:KERNEL32.dll
 0002:00000110       __imp_TlsSetValue          0000000180049110     kernel32:KERNEL32.dll
 0002:00000118       __imp_TlsFree              0000000180049118     kernel32:KERNEL32.dll
 0002:00000120       __imp_LoadLibraryExW       0000000180049120     kernel32:KERNEL32.dll
 0002:00000128       __imp_EncodePointer        0000000180049128     kernel32:KERNEL32.dll
 0002:00000130       __imp_RtlPcToFileHeader    0000000180049130     kernel32:KERNEL32.dll
 0002:00000138       __imp_GetCurrentProcess    0000000180049138     kernel32:KERNEL32.dll
 0002:00000140       __imp_ExitProcess          0000000180049140     kernel32:KERNEL32.dll
 0002:00000148       __imp_TerminateProcess     0000000180049148     kernel32:KERNEL32.dll
 0002:00000150       __imp_GetModuleHandleExW   0000000180049150     kernel32:KERNEL32.dll
 0002:00000158       __imp_GetModuleFileNameW   0000000180049158     kernel32:KERNEL32.dll
 0002:00000160       __imp_HeapFree             0000000180049160     kernel32:KERNEL32.dll
 0002:00000168       __imp_HeapAlloc            0000000180049168     kernel32:KERNEL32.dll
 0002:00000170       __imp_FindClose            0000000180049170     kernel32:KERNEL32.dll
 0002:00000178       __imp_FindFirstFileExW     0000000180049178     kernel32:KERNEL32.dll
 0002:00000180       __imp_FindNextFileW        0000000180049180     kernel32:KERNEL32.dll
 0002:00000188       __imp_IsValidCodePage      0000000180049188     kernel32:KERNEL32.dll
 0002:00000190       __imp_GetACP               0000000180049190     kernel32:KERNEL32.dll
 0002:00000198       __imp_GetOEMCP             0000000180049198     kernel32:KERNEL32.dll
 0002:000001a0       __imp_GetCPInfo            00000001800491a0     kernel32:KERNEL32.dll
 0002:000001a8       __imp_GetCommandLineA      00000001800491a8     kernel32:KERNEL32.dll
 0002:000001b0       __imp_GetCommandLineW      00000001800491b0     kernel32:KERNEL32.dll
 0002:000001b8       __imp_MultiByteToWideChar  00000001800491b8     kernel32:KERNEL32.dll
 0002:000001c0       __imp_WideCharToMultiByte  00000001800491c0     kernel32:KERNEL32.dll
 0002:000001c8       __imp_GetEnvironmentStringsW 00000001800491c8     kernel32:KERNEL32.dll
 0002:000001d0       __imp_FreeEnvironmentStringsW 00000001800491d0     kernel32:KERNEL32.dll
 0002:000001d8       __imp_FlsAlloc             00000001800491d8     kernel32:KERNEL32.dll
 0002:000001e0       __imp_FlsGetValue          00000001800491e0     kernel32:KERNEL32.dll
 0002:000001e8       __imp_FlsSetValue          00000001800491e8     kernel32:KERNEL32.dll
 0002:000001f0       __imp_FlsFree              00000001800491f0     kernel32:KERNEL32.dll
 0002:000001f8       __imp_LCMapStringW         00000001800491f8     kernel32:KERNEL32.dll
 0002:00000200       __imp_GetProcessHeap       0000000180049200     kernel32:KERNEL32.dll
 0002:00000208       __imp_GetStdHandle         0000000180049208     kernel32:KERNEL32.dll
 0002:00000210       __imp_GetFileType          0000000180049210     kernel32:KERNEL32.dll
 0002:00000218       __imp_GetStringTypeW       0000000180049218     kernel32:KERNEL32.dll
 0002:00000220       __imp_HeapSize             0000000180049220     kernel32:KERNEL32.dll
 0002:00000228       __imp_HeapReAlloc          0000000180049228     kernel32:KERNEL32.dll
 0002:00000230       __imp_SetStdHandle         0000000180049230     kernel32:KERNEL32.dll
 0002:00000238       __imp_FlushFileBuffers     0000000180049238     kernel32:KERNEL32.dll
 0002:00000240       __imp_WriteFile            0000000180049240     kernel32:KERNEL32.dll
 0002:00000248       __imp_GetConsoleOutputCP   0000000180049248     kernel32:KERNEL32.dll
 0002:00000250       __imp_GetConsoleMode       0000000180049250     kernel32:KERNEL32.dll
 0002:00000258       __imp_SetFilePointerEx     0000000180049258     kernel32:KERNEL32.dll
 0002:00000260       __imp_CreateFileW          0000000180049260     kernel32:KERNEL32.dll
 0002:00000268       __imp_CloseHandle          0000000180049268     kernel32:KERNEL32.dll
 0002:00000270       \177KERNEL32_NULL_THUNK_DATA 0000000180049270     kernel32:KERNEL32.dll
 0002:00000278       __guard_check_icall_fptr   0000000180049278     LIBCMT:guard_support.obj
 0002:00000280       __guard_xfg_check_icall_fptr 0000000180049280     LIBCMT:guard_support.obj
 0002:00000288       __guard_dispatch_icall_fptr 0000000180049288     LIBCMT:guard_support.obj
 0002:00000290       __guard_xfg_dispatch_icall_fptr 0000000180049290     LIBCMT:guard_support.obj
 0002:00000298       __guard_xfg_table_dispatch_icall_fptr 0000000180049298     LIBCMT:guard_support.obj
 0002:000002a0       __xc_a                     00000001800492a0     LIBCMT:initializers.obj
 0002:00000488       __xc_z                     0000000180049488     LIBCMT:initializers.obj
 0002:00000490       __xi_a                     0000000180049490     LIBCMT:initializers.obj
 0002:00000498       __acrt_tran_fma3_initializer 0000000180049498     libucrt:fma3_initializer.obj
 0002:000004a0       __acrt_multibyte_initializer 00000001800494a0     libucrt:multibyte_initializer.obj
 0002:000004a8       __acrt_stdio_initializer   00000001800494a8     libucrt:stdio_initializer.obj
 0002:000004b0       __xi_z                     00000001800494b0     LIBCMT:initializers.obj
 0002:000004b8       __xp_a                     00000001800494b8     LIBCMT:initializers.obj
 0002:000004c0       __acrt_locale_terminator   00000001800494c0     libucrt:locale_initializer.obj
 0002:000004c8       __dcrt_console_output_terminator 00000001800494c8     libucrt:console_output_initializer.obj
 0002:000004d0       __acrt_stdio_terminator    00000001800494d0     libucrt:stdio_initializer.obj
 0002:000004d8       __xp_z                     00000001800494d8     LIBCMT:initializers.obj
 0002:000004e0       __xt_a                     00000001800494e0     LIBCMT:initializers.obj
 0002:000004e8       __xt_z                     00000001800494e8     LIBCMT:initializers.obj
 0002:000004f0       ??_7PxFoundation@physx@@6B@ 00000001800494f0     Adjacencies.obj
 0002:00000530       ??_C@_0EO@IGIPHGBG@C?3?2Projects?2ExternLibrary?2PhysX@ 0000000180049530     Adjacencies.obj
 0002:00000580       ??_C@_0DA@FMEHLBKI@Adjacencies?3?3UpdateLink?3?5invali@ 0000000180049580     Adjacencies.obj
 0002:000005b0       ??_C@_0EA@CPHOACLK@Adjacencies?3?3CreateDatabase?3?5ca@ 00000001800495b0     Adjacencies.obj
 0002:000005f0       ??_C@_0BM@OIFKLHDN@?$DMallocation?5names?5disabled?$DO@ 00000001800495f0     Adjacencies.obj
 0002:00000630       ?sBufferSize@DebugText@Cm@physx@@2HB 0000000180049630     Cooking.obj
 0002:00000634       ??_C@_06EJKDJEDO@PxBase@   0000000180049634     Cooking.obj
 0002:00000640       ??_C@_0N@CDGINLLF@PxConvexMesh@ 0000000180049640     Cooking.obj
 0002:00000650       ??_C@_0O@PBAKPCEC@PxHeightField@ 0000000180049650     Cooking.obj
 0002:00000660       ??_7PxBase@physx@@6B@      0000000180049660     Cooking.obj
 0002:00000688       ??_7PxCooking@physx@@6B@   0000000180049688     Cooking.obj
 0002:00000708       ??_7Cooking@physx@@6B@     0000000180049708     Cooking.obj
 0002:00000790       ??_C@_0FC@PJIHAFK@Cooking?3?3validateTriangleMesh?3?5@ 0000000180049790     Cooking.obj
 0002:000007f0       ??_C@_0EK@JKBGICEA@C?3?2Projects?2ExternLibrary?2PhysX@ 00000001800497f0     Cooking.obj
 0002:00000840       ??_C@_0EK@EKAIJEBL@Cooking?3?3cookConvexMesh?3?5user?9p@ 0000000180049840     Cooking.obj
 0002:00000890       ??_C@_0FA@GFFGAPML@Cooking?3?3cookConvexMesh?3?5provid@ 0000000180049890     Cooking.obj
 0002:000008e0       ??_C@_0EP@PKDCPNNO@Cooking?3?3cookConvexMesh?3?5provid@ 00000001800498e0     Cooking.obj
 0002:00000930       ??_C@_0EO@LKFMMDE@Cooking?3?3cookConvexMesh?3?5user?9p@ 0000000180049930     Cooking.obj
 0002:00000980       ??_C@_0EK@JBHOOGCN@C?3?2Projects?2ExternLibrary?2PhysX@ 0000000180049980     Cooking.obj
 0002:000009cc       __real@3f800000            00000001800499cc     Cooking.obj
 0002:000009d0       __xmm@000000003a83126f3a83126f3a83126f 00000001800499d0     Cooking.obj
 0002:000009e0       __xmm@00000000ba83126fba83126fba83126f 00000001800499e0     Cooking.obj
 0002:000009f0       __xmm@3a83126f3a83126f3a83126f3a83126f 00000001800499f0     Cooking.obj
 0002:00000a00       __xmm@80000000800000008000000080000000 0000000180049a00     Cooking.obj
 0002:00000a10       __xmm@ba83126fba83126fba83126fba83126f 0000000180049a10     Cooking.obj
 0002:00000a20       ??_C@_0BA@DLCJDKDM@NonTrackedAlloc@ 0000000180049a20     CookingUtils.obj
 0002:00000a30       ??_C@_0EP@CIDOLBIH@C?3?2Projects?2ExternLibrary?2PhysX@ 0000000180049a30     CookingUtils.obj
 0002:00000a80       ??_C@_0EL@DCOMLNPB@C?3?2Projects?2ExternLibrary?2PhysX@ 0000000180049a80     EdgeList.obj
 0002:00000ad0       ??_C@_0CO@GBNJFPN@EdgeList?3?3CreateFacesToEdges?3?5N@ 0000000180049ad0     EdgeList.obj
 0002:00000b00       ??_C@_0CO@EHJBBMNK@EdgeList?3?3ComputeActiveEdges?3?5N@ 0000000180049b00     EdgeList.obj
 0002:00000b30       ??_C@_0DI@GBHLFOFP@ActiveEdges?3?3ComputeConvexEdges@ 0000000180049b30     EdgeList.obj
 0002:00000b68       ??_C@_0DM@JOGBLHDI@ActiveEdges?3?3ComputeConvexEdges@ 0000000180049b68     EdgeList.obj
 0002:00000bb0       ??_C@_0ED@FEMJKPEL@ActiveEdges?3?3ComputeConvexEdges@ 0000000180049bb0     EdgeList.obj
 0002:00000c00       ??_C@_0EB@BFDPMFCD@ActiveEdges?3?3ComputeConvexEdges@ 0000000180049c00     EdgeList.obj
 0002:00000c44       __real@bf7fbe77            0000000180049c44     EdgeList.obj
 0002:00000c50       __xmm@7fffffff7fffffff7fffffff7fffffff 0000000180049c50     EdgeList.obj
 0002:00000c60       ??_C@_0EO@KDNEFLEC@C?3?2Projects?2ExternLibrary?2PhysX@ 0000000180049c60     MeshCleaner.obj
 0002:00000cb0       __real@3f000000            0000000180049cb0     MeshCleaner.obj
 0002:00000cb8       ??_7Quantizer@physx@@6B@   0000000180049cb8     Quantizer.obj
 0002:00000ce0       ??_7QuantizerImpl@@6B@     0000000180049ce0     Quantizer.obj
 0002:00000d10       ??_C@_0EM@DGFFLNF@C?3?2Projects?2ExternLibrary?2PhysX@ 0000000180049d10     Quantizer.obj
 0002:00000d5c       __real@38d1b717            0000000180049d5c     Quantizer.obj
 0002:00000d60       __real@3c23d70a            0000000180049d60     Quantizer.obj
 0002:00000d64       __real@3f0020c5            0000000180049d64     Quantizer.obj
 0002:00000d68       __real@3f8020c5            0000000180049d68     Quantizer.obj
 0002:00000d6c       __real@7f7fffff            0000000180049d6c     Quantizer.obj
 0002:00000d70       __real@fe7fffff            0000000180049d70     Quantizer.obj
 0002:00000d80       __xmm@fe7fffff7e7fffff7e7fffff7e7fffff 0000000180049d80     Quantizer.obj
 0002:00000db0       ??_C@_0FG@FPJMEHEK@C?3?2Projects?2ExternLibrary?2PhysX@ 0000000180049db0     BVHStructureBuilder.obj
 0002:00000e10       __xmm@3ba3d70a3ba3d70a3ba3d70a3ba3d70a 0000000180049e10     BVHStructureBuilder.obj
 0002:00000e40       ?reductionFactors@SubSortQuick@physx@@2QBMB 0000000180049e40     RTreeCooking.obj
 0002:00000e50       ?stopAtTrisPerLeaf1@SubSortQuick@physx@@2QBIB 0000000180049e50     RTreeCooking.obj
 0002:00000f00       ??_C@_0FE@DPFKMBFD@C?3?2Projects?2ExternLibrary?2PhysX@ 0000000180049f00     RTreeCooking.obj
 0002:00000f60       ??_C@_0EJ@LOPNLIJN@C?3?2Projects?2ExternLibrary?2PhysX@ 0000000180049f60     RTreeCooking.obj
 0002:00000fb0       ??_C@_0FC@KGCINHL@C?3?2Projects?2ExternLibrary?2PhysX@ 0000000180049fb0     RTreeCooking.obj
 0002:00001004       __real@37800080            000000018004a004     RTreeCooking.obj
 0002:00001008       __real@41100000            000000018004a008     RTreeCooking.obj
 0002:0000100c       __real@41700000            000000018004a00c     RTreeCooking.obj
 0002:00001010       __real@42200000            000000018004a010     RTreeCooking.obj
 0002:00001014       __real@ff7fffff            000000018004a014     RTreeCooking.obj
 0002:00001020       __xmm@00000004000000030000000200000001 000000018004a020     RTreeCooking.obj
 0002:00001030       __xmm@3a03126f3a03126f3a03126f3a03126f 000000018004a030     RTreeCooking.obj
 0002:00001040       __xmm@7f7fffff7f7fffff7f7fffff7f7fffff 000000018004a040     RTreeCooking.obj
 0002:00001050       __xmm@ff7fffffff7fffffff7fffffff7fffff 000000018004a050     RTreeCooking.obj
 0002:00001080       __real@34800000            000000018004a080     MeshBuilder.obj
 0002:000010b0       ??_7MeshDataBase@Gu@physx@@6B@ 000000018004a0b0     TriangleMeshBuilder.obj
 0002:000010c0       ??_C@_0EN@HNIHGEKC@C?3?2Projects?2ExternLibrary?2PhysX@ 000000018004a0c0     TriangleMeshBuilder.obj
 0002:00001110       ??_7TriangleMeshData@Gu@physx@@6B@ 000000018004a110     TriangleMeshBuilder.obj
 0002:00001118       ??_7RTreeTriangleData@Gu@physx@@6B@ 000000018004a118     TriangleMeshBuilder.obj
 0002:00001120       ??_7BV4TriangleData@Gu@physx@@6B@ 000000018004a120     TriangleMeshBuilder.obj
 0002:00001128       ??_7RemapCallback@RTreeCooker@physx@@6B@ 000000018004a128     TriangleMeshBuilder.obj
 0002:00001138       ??_7TriangleMeshBuilder@physx@@6B@ 000000018004a138     TriangleMeshBuilder.obj
 0002:00001160       ??_7RTreeTriangleMeshBuilder@physx@@6B@ 000000018004a160     TriangleMeshBuilder.obj
 0002:00001188       ??_7BV4TriangleMeshBuilder@physx@@6B@ 000000018004a188     TriangleMeshBuilder.obj
 0002:000011b0       ??_C@_0FM@IIIOJDBC@C?3?2Projects?2ExternLibrary?2PhysX@ 000000018004a1b0     TriangleMeshBuilder.obj
 0002:00001210       ??_C@_0FL@LJCPKFMF@C?3?2Projects?2ExternLibrary?2PhysX@ 000000018004a210     TriangleMeshBuilder.obj
 0002:00001270       ??_C@_0DJ@IGODLHLP@TriangleMesh?3?5Enable?5mesh?5weldi@ 000000018004a270     TriangleMeshBuilder.obj
 0002:000012b0       ??_C@_0FJ@HHJLKGDF@TriangleMesh?3?5triangles?5are?5too@ 000000018004a2b0     TriangleMeshBuilder.obj
 0002:00001310       ??_C@_0CN@KGPHHHLK@TriangleMesh?3?5mesh?5is?5too?5big?5f@ 000000018004a310     TriangleMeshBuilder.obj
 0002:00001340       ??_C@_0DD@CMJGDCNN@TriangleMesh?3?3loadFromDesc?3?5des@ 000000018004a340     TriangleMeshBuilder.obj
 0002:00001380       ??_C@_0ED@ILJJNHIP@TriangleMesh?3?3loadFromDesc?3?5mPa@ 000000018004a380     TriangleMeshBuilder.obj
 0002:000013c8       ??_C@_0BJ@BKHDBBHO@cleaning?5the?5mesh?5failed@ 000000018004a3c8     TriangleMeshBuilder.obj
 0002:000013e8       ??_C@_0BK@JIDHMMCE@BV4?5tree?5failed?5to?5build?4@ 000000018004a3e8     TriangleMeshBuilder.obj
 0002:00001408       ??_C@_0BL@DHNECNBE@BV32?5tree?5failed?5to?5build?4@ 000000018004a408     TriangleMeshBuilder.obj
 0002:00001428       ??_7RTreeCookerRemap@physx@@6B@ 000000018004a428     TriangleMeshBuilder.obj
 0002:00001438       __real@3951b717            000000018004a438     TriangleMeshBuilder.obj
 0002:0000143c       __real@3dcccccd            000000018004a43c     TriangleMeshBuilder.obj
 0002:00001440       __real@48742400            000000018004a440     TriangleMeshBuilder.obj
 0002:00001450       __xmm@00000003000000020000000100000000 000000018004a450     TriangleMeshBuilder.obj
 0002:00001480       ??_C@_0FO@NCKCHONH@C?3?2Projects?2ExternLibrary?2PhysX@ 000000018004a480     BigConvexDataBuilder.obj
 0002:000014e0       __real@40000000            000000018004a4e0     BigConvexDataBuilder.obj
 0002:00001510       ??_C@_0FL@CLJBEHKA@C?3?2Projects?2ExternLibrary?2PhysX@ 000000018004a510     ConvexHullBuilder.obj
 0002:00001570       ??_C@_0EB@DCEIFDGC@ConvexHullBuilder?3?3init?3?5convex@ 000000018004a570     ConvexHullBuilder.obj
 0002:000015c0       ??_C@_0FM@KICBLCBH@Gu?3?3ConvexMesh?3?3checkHullPolygo@ 000000018004a5c0     ConvexHullBuilder.obj
 0002:00001620       ??_C@_0GO@HBFIOGLL@Gu?3?3ConvexMesh?3?3checkHullPolygo@ 000000018004a620     ConvexHullBuilder.obj
 0002:00001690       ??_C@_0HF@OLJFBIEL@ConvexHullBuilder?3?5convex?5hull?5@ 000000018004a690     ConvexHullBuilder.obj
 0002:00001710       ??_C@_0OG@JNHFOIL@ConvexHullBuilder?3?5convex?5hull?5@ 000000018004a710     ConvexHullBuilder.obj
 0002:00001800       ??_C@_0EJ@NIOIBAKH@Cooking?3?3cookConvexMesh?3?5non?9ma@ 000000018004a800     ConvexHullBuilder.obj
 0002:0000184c       __real@3ca3d70a            000000018004a84c     ConvexHullBuilder.obj
 0002:00001850       __real@3eaaaaab            000000018004a850     ConvexHullBuilder.obj
 0002:00001858       ??_7ConvexHullLib@physx@@6B@ 000000018004a858     ConvexHullLib.obj
 0002:00001880       ??_C@_0FH@FBLAJIGA@C?3?2Projects?2ExternLibrary?2PhysX@ 000000018004a880     ConvexHullLib.obj
 0002:000018e0       ??_C@_0JE@PABBNGEL@ConvexHullLib?3?3cleanupVertices?3@ 000000018004a8e0     ConvexHullLib.obj
 0002:00001974       __real@358637bd            000000018004a974     ConvexHullLib.obj
 0002:00001978       __real@3d4ccccd            000000018004a978     ConvexHullLib.obj
 0002:000019a0       ??_C@_0FJ@COHEMMIF@C?3?2Projects?2ExternLibrary?2PhysX@ 000000018004a9a0     ConvexHullUtils.obj
 0002:000019fc       __real@3e20d97c            000000018004a9fc     ConvexHullUtils.obj
 0002:00001a00       __xmm@00800000008000000080000000800000 000000018004aa00     ConvexHullUtils.obj
 0002:00001a10       __xmm@3f0000003f0000003f0000003f000000 000000018004aa10     ConvexHullUtils.obj
 0002:00001a20       __xmm@bf000000bf000000bf000000bf000000 000000018004aa20     ConvexHullUtils.obj
 0002:00001a50       ??_C@_0DF@LLFJIJGM@Gu?3?3ConvexMesh?3?3loadFromDesc?3?5d@ 000000018004aa50     ConvexMeshBuilder.obj
 0002:00001a90       ??_C@_0FL@OFDFOHPF@C?3?2Projects?2ExternLibrary?2PhysX@ 000000018004aa90     ConvexMeshBuilder.obj
 0002:00001af0       ??_C@_0HK@JOGKIEAA@Gu?3?3ConvexMesh?3?5Mesh?5has?5a?5nega@ 000000018004aaf0     ConvexMeshBuilder.obj
 0002:00001b70       ??_C@_0DH@NJPPHFFD@Gu?3?3ConvexMesh?3?5Error?5computing@ 000000018004ab70     ConvexMeshBuilder.obj
 0002:00001ba8       ??_C@_0DJ@LJDLGLDJ@Gu?3?3ConvexMesh?3?3loadConvexHull?3@ 000000018004aba8     ConvexMeshBuilder.obj
 0002:00001bf0       ??_C@_0HJ@KJANPPOE@ConvexMeshBuilder?3?3computeHullP@ 000000018004abf0     ConvexMeshBuilder.obj
 0002:00001c6c       ??_C@_06KDGGGLIJ@PxVec3@   000000018004ac6c     ConvexMeshBuilder.obj
 0002:00001c74       ??_C@_05LMJPANIN@PxU32@    000000018004ac74     ConvexMeshBuilder.obj
 0002:00001c80       ??_C@_0O@JMAGMMGG@PxHullPolygon@ 000000018004ac80     ConvexMeshBuilder.obj
 0002:00001c90       __real@33d6bf95            000000018004ac90     ConvexMeshBuilder.obj
 0002:00001c94       __real@3f13cd3a            000000018004ac94     ConvexMeshBuilder.obj
 0002:00001c98       __real@b3d6bf95            000000018004ac98     ConvexMeshBuilder.obj
 0002:00001c9c       __real@bf800000            000000018004ac9c     ConvexMeshBuilder.obj
 0002:00001ca0       __xmm@80000000000000008000000000000000 000000018004aca0     ConvexMeshBuilder.obj
 0002:00001cb0       ??_C@_0DP@PJBJBEGF@Meshmerizer?3?3extractHullPolygon@ 000000018004acb0     ConvexPolygonsBuilder.obj
 0002:00001cf0       ??_C@_0FP@JMMLFNEG@C?3?2Projects?2ExternLibrary?2PhysX@ 000000018004acf0     ConvexPolygonsBuilder.obj
 0002:00001d50       ??_C@_0DL@IAFKOCCK@ConvexHullBuilder?3?5convex?5hull?5@ 000000018004ad50     ConvexPolygonsBuilder.obj
 0002:00001d90       ??_C@_0GF@OJLJHAMH@ConvexHullBuilder?3?3CreateTriang@ 000000018004ad90     ConvexPolygonsBuilder.obj
 0002:00001df8       __real@3ba3d70a            000000018004adf8     ConvexPolygonsBuilder.obj
 0002:00001e00       ??_7QuickHullConvexHullLib@physx@@6B@ 000000018004ae00     QuickHullConvexHullLib.obj
 0002:00001e20       ??_C@_0GA@HEKCAEOM@C?3?2Projects?2ExternLibrary?2PhysX@ 000000018004ae20     QuickHullConvexHullLib.obj
 0002:00001e80       ??_C@_0GA@EPPAEJPM@QuickHullConvexHullLib?3?3findSim@ 000000018004ae80     QuickHullConvexHullLib.obj
 0002:00001ee0       ??_C@_0FB@NEBIJMML@QuickHullConvexHullLib?3?3findSim@ 000000018004aee0     QuickHullConvexHullLib.obj
 0002:00001f40       ??_C@_0FB@CLLCBEMM@QuickHullConvexHullLib?3?3findSim@ 000000018004af40     QuickHullConvexHullLib.obj
 0002:00001f94       __real@34c00000            000000018004af94     QuickHullConvexHullLib.obj
 0002:00001f98       __real@3e800000            000000018004af98     QuickHullConvexHullLib.obj
 0002:00001fc0       __real@00000000            000000018004afc0     VolumeIntegration.obj
 0002:00001fc8       __real@3fe0000000000000    000000018004afc8     VolumeIntegration.obj
 0002:00001fd0       __real@3ff0000000000000    000000018004afd0     VolumeIntegration.obj
 0002:00001fe0       __xmm@3c0888893c0888893c0888893c088889 000000018004afe0     VolumeIntegration.obj
 0002:00001ff0       __xmm@3c8888893c8888893c8888893c888889 000000018004aff0     VolumeIntegration.obj
 0002:00002000       __xmm@3d2aaaab3d2aaaab3d2aaaab3d2aaaab 000000018004b000     VolumeIntegration.obj
 0002:00002010       __xmm@3e2aaaab3e2aaaab3e2aaaab3e2aaaab 000000018004b010     VolumeIntegration.obj
 0002:00002020       __xmm@3f811111111111113f81111111111111 000000018004b020     VolumeIntegration.obj
 0002:00002030       __xmm@3f811111111111113f91111111111111 000000018004b030     VolumeIntegration.obj
 0002:00002040       __xmm@3f911111111111113f91111111111111 000000018004b040     VolumeIntegration.obj
 0002:00002050       __xmm@3fa55555555555553fa5555555555555 000000018004b050     VolumeIntegration.obj
 0002:00002060       __xmm@3fa55555555555553fc5555555555555 000000018004b060     VolumeIntegration.obj
 0002:00002070       ??_C@_0BA@EGLNOO@PhysXFoundation@ 000000018004b070     WindowsCookingDelayLoadHook.obj
 0002:00002080       ??_C@_0M@ILKNCJKN@PhysXCommon@ 000000018004b080     WindowsCookingDelayLoadHook.obj
 0002:00002090       __sz_PhysXCommon_64_dll    000000018004b090     PhysXCommon_64:PhysXCommon_64.dll
 0002:000020b0       __sz_PhysXFoundation_64_dll 000000018004b0b0     PhysXFoundation_64:PhysXFoundation_64.dll
 0002:000020c8       ??_C@_1BK@DBDEIDLH@?$AAK?$AAE?$AAR?$AAN?$AAE?$AAL?$AA3?$AA2?$AA?4?$AAD?$AAL?$AAL@ 000000018004b0c8     Delayimp:delayhlp.obj
 0002:000020e8       ??_C@_0BI@OMNLIJDB@AcquireSRWLockExclusive@ 000000018004b0e8     Delayimp:delayhlp.obj
 0002:00002100       ??_C@_0BI@HMIEPCNJ@ReleaseSRWLockExclusive@ 000000018004b100     Delayimp:delayhlp.obj
 0002:00002118       __pfnDliFailureHook2       000000018004b118     Delayimp:delayhk1.obj
 0002:00002128       ??_7type_info@@6B@         000000018004b128     LIBCMT:std_type_info_static.obj
 0002:00002190       _pRawDllMain               000000018004b190     LIBCMT:dll_dllmain.obj
 0002:00002190       _pDefaultRawDllMain        000000018004b190     LIBCMT:dll_dllmain.obj
 0002:000021a0       _load_config_used          000000018004b1a0     LIBCMT:loadcfg.obj
 0002:000022e0       __xmm@ffffffffffffffffffffffffffffffff 000000018004b2e0     LIBCMT:utility.obj
 0002:000022f0       _pDestructExceptionObject  000000018004b2f0     libvcruntime:ehhelpers.obj
 0002:00002a00       ??_C@_08EHJDFFNH@__based?$CI@ 000000018004ba00     libvcruntime:undname.obj
 0002:00002a10       ??_C@_07KOLFKCDI@__cdecl@  000000018004ba10     libvcruntime:undname.obj
 0002:00002a18       ??_C@_08GHMPAG@__pascal@   000000018004ba18     libvcruntime:undname.obj
 0002:00002a28       ??_C@_09IFJBGAPI@__stdcall@ 000000018004ba28     libvcruntime:undname.obj
 0002:00002a38       ??_C@_0L@NPHFGOKO@__thiscall@ 000000018004ba38     libvcruntime:undname.obj
 0002:00002a48       ??_C@_0L@JMKHOMEK@__fastcall@ 000000018004ba48     libvcruntime:undname.obj
 0002:00002a58       ??_C@_0N@BCKKPABJ@__vectorcall@ 000000018004ba58     libvcruntime:undname.obj
 0002:00002a68       ??_C@_09HIJEGCPM@__clrcall@ 000000018004ba68     libvcruntime:undname.obj
 0002:00002a74       ??_C@_06GHPCKEAG@__eabi@   000000018004ba74     libvcruntime:undname.obj
 0002:00002a80       ??_C@_09IOPIDJLG@__swift_1@ 000000018004ba80     libvcruntime:undname.obj
 0002:00002a90       ??_C@_09KFNFGKHF@__swift_2@ 000000018004ba90     libvcruntime:undname.obj
 0002:00002aa0       ??_C@_07JOMMBBKO@__ptr64@  000000018004baa0     libvcruntime:undname.obj
 0002:00002aa8       ??_C@_0L@PILCLIHE@__restrict@ 000000018004baa8     libvcruntime:undname.obj
 0002:00002ab8       ??_C@_0M@GFIIJFMG@__unaligned@ 000000018004bab8     libvcruntime:undname.obj
 0002:00002ac8       ??_C@_09DHDLOLLB@restrict?$CI@ 000000018004bac8     libvcruntime:undname.obj
 0002:00002ad2       ??_C@_00CNPNBAHC@@         000000018004bad2     libvcruntime:undname.obj
 0002:00002ad4       ??_C@_04NIHEBCM@?5new@     000000018004bad4     libvcruntime:undname.obj
 0002:00002ae0       ??_C@_07FPCDHGMM@?5delete@ 000000018004bae0     libvcruntime:undname.obj
 0002:00002ae8       ??_C@_01NEMOKFLO@?$DN@     000000018004bae8     libvcruntime:undname.obj
 0002:00002aec       ??_C@_02GPIOPFAK@?$DO?$DO@ 000000018004baec     libvcruntime:undname.obj
 0002:00002af0       ??_C@_02FODMEDOG@?$DM?$DM@ 000000018004baf0     libvcruntime:undname.obj
 0002:00002af4       ??_C@_01DCLJPIOD@?$CB@     000000018004baf4     libvcruntime:undname.obj
 0002:00002af8       ??_C@_02EGOFBIJA@?$DN?$DN@ 000000018004baf8     libvcruntime:undname.obj
 0002:00002afc       ??_C@_02FDNJECIE@?$CB?$DN@ 000000018004bafc     libvcruntime:undname.obj
 0002:00002b00       ??_C@_02GPECMEKF@?$FL?$FN@ 000000018004bb00     libvcruntime:undname.obj
 0002:00002b08       ??_C@_08LHJFAFGD@operator@ 000000018004bb08     libvcruntime:undname.obj
 0002:00002b14       ??_C@_02HBOOOICD@?9?$DO@   000000018004bb14     libvcruntime:undname.obj
 0002:00002b18       ??_C@_01NBENCBCI@?$CK@     000000018004bb18     libvcruntime:undname.obj
 0002:00002b1c       ??_C@_02ECNGHCIF@?$CL?$CL@ 000000018004bb1c     libvcruntime:undname.obj
 0002:00002b20       ??_C@_02BAABKJLB@?9?9@     000000018004bb20     libvcruntime:undname.obj
 0002:00002b24       ??_C@_01JOAMLHOP@?9@       000000018004bb24     libvcruntime:undname.obj
 0002:00002b28       ??_C@_01MIFGBAGJ@?$CL@     000000018004bb28     libvcruntime:undname.obj
 0002:00002b2c       ??_C@_01HNPIGOCE@?$CG@     000000018004bb2c     libvcruntime:undname.obj
 0002:00002b30       ??_C@_03MNHNFDLC@?9?$DO?$CK@ 000000018004bb30     libvcruntime:undname.obj
 0002:00002b34       ??_C@_01KMDKNFGN@?1@       000000018004bb34     libvcruntime:undname.obj
 0002:00002b38       ??_C@_01FGNFDNOH@?$CF@     000000018004bb38     libvcruntime:undname.obj
 0002:00002b3c       ??_C@_01MNNFJEPP@?$DM@     000000018004bb3c     libvcruntime:undname.obj
 0002:00002b40       ??_C@_02EHCHHCKH@?$DM?$DN@ 000000018004bb40     libvcruntime:undname.obj
 0002:00002b44       ??_C@_01PPODPGHN@?$DO@     000000018004bb44     libvcruntime:undname.obj
 0002:00002b48       ??_C@_02EEKDKGMJ@?$DO?$DN@ 000000018004bb48     libvcruntime:undname.obj
 0002:00002b4c       ??_C@_01IHBHIGKO@?0@       000000018004bb4c     libvcruntime:undname.obj
 0002:00002b50       ??_C@_02HCKGKOFO@?$CI?$CJ@ 000000018004bb50     libvcruntime:undname.obj
 0002:00002b54       ??_C@_01PJKLJHI@?$HO@      000000018004bb54     libvcruntime:undname.obj
 0002:00002b58       ??_C@_01JKBOJNNK@?$FO@     000000018004bb58     libvcruntime:undname.obj
 0002:00002b5c       ??_C@_01DNKMNLPK@?$HM@     000000018004bb5c     libvcruntime:undname.obj
 0002:00002b60       ??_C@_02PPKAJPJL@?$CG?$CG@ 000000018004bb60     libvcruntime:undname.obj
 0002:00002b64       ??_C@_02NONPIBCD@?$HM?$HM@ 000000018004bb64     libvcruntime:undname.obj
 0002:00002b68       ??_C@_02FPIMKNGF@?$CK?$DN@ 000000018004bb68     libvcruntime:undname.obj
 0002:00002b6c       ??_C@_02FOEOMHFC@?$CL?$DN@ 000000018004bb6c     libvcruntime:undname.obj
 0002:00002b70       ??_C@_02FKMDLLOA@?9?$DN@   000000018004bb70     libvcruntime:undname.obj
 0002:00002b74       ??_C@_02FJEHGPIO@?1?$DN@   000000018004bb74     libvcruntime:undname.obj
 0002:00002b78       ??_C@_02FENAOKFI@?$CF?$DN@ 000000018004bb78     libvcruntime:undname.obj
 0002:00002b7c       ??_C@_03IKFCCPFF@?$DO?$DO?$DN@ 000000018004bb7c     libvcruntime:undname.obj
 0002:00002b80       ??_C@_03CDNPDDLA@?$DM?$DM?$DN@ 000000018004bb80     libvcruntime:undname.obj
 0002:00002b84       ??_C@_02FGJGFEAB@?$CG?$DN@ 000000018004bb84     libvcruntime:undname.obj
 0002:00002b88       ??_C@_02DHLNPPGH@?$HM?$DN@ 000000018004bb88     libvcruntime:undname.obj
 0002:00002b8c       ??_C@_02MHEGNOJ@?$FO?$DN@  000000018004bb8c     libvcruntime:undname.obj
 0002:00002b90       ??_C@_09IFPLHPGF@?$GAvftable?8@ 000000018004bb90     libvcruntime:undname.obj
 0002:00002ba0       ??_C@_09BLBHBJP@?$GAvbtable?8@ 000000018004bba0     libvcruntime:undname.obj
 0002:00002bb0       ??_C@_07FEEIOKP@?$GAvcall?8@ 000000018004bbb0     libvcruntime:undname.obj
 0002:00002bb8       ??_C@_08LLFFHHDJ@?$GAtypeof?8@ 000000018004bbb8     libvcruntime:undname.obj
 0002:00002bc8       ??_C@_0BF@KDPPACIK@?$GAlocal?5static?5guard?8@ 000000018004bbc8     libvcruntime:undname.obj
 0002:00002be0       ??_C@_08OBABFOLI@?$GAstring?8@ 000000018004bbe0     libvcruntime:undname.obj
 0002:00002bf0       ??_C@_0BD@JDLKDPAB@?$GAvbase?5destructor?8@ 000000018004bbf0     libvcruntime:undname.obj
 0002:00002c08       ??_C@_0BN@DEGPLNFK@?$GAvector?5deleting?5destructor?8@ 000000018004bc08     libvcruntime:undname.obj
 0002:00002c28       ??_C@_0BO@OBMKPJIG@?$GAdefault?5constructor?5closure?8@ 000000018004bc28     libvcruntime:undname.obj
 0002:00002c48       ??_C@_0BN@IMDCHIKM@?$GAscalar?5deleting?5destructor?8@ 000000018004bc48     libvcruntime:undname.obj
 0002:00002c68       ??_C@_0BO@PFGOCPJJ@?$GAvector?5constructor?5iterator?8@ 000000018004bc68     libvcruntime:undname.obj
 0002:00002c88       ??_C@_0BN@LFPFMEDL@?$GAvector?5destructor?5iterator?8@ 000000018004bc88     libvcruntime:undname.obj
 0002:00002ca8       ??_C@_0CE@IKBNEHA@?$GAvector?5vbase?5constructor?5itera@ 000000018004bca8     libvcruntime:undname.obj
 0002:00002cd0       ??_C@_0BL@NILFHHPC@?$GAvirtual?5displacement?5map?8@ 000000018004bcd0     libvcruntime:undname.obj
 0002:00002cf0       ??_C@_0CB@JONCMFFK@?$GAeh?5vector?5constructor?5iterator@ 000000018004bcf0     libvcruntime:undname.obj
 0002:00002d18       ??_C@_0CA@GCEOPDGL@?$GAeh?5vector?5destructor?5iterator?8@ 000000018004bd18     libvcruntime:undname.obj
 0002:00002d38       ??_C@_0CH@OOJPLCPH@?$GAeh?5vector?5vbase?5constructor?5it@ 000000018004bd38     libvcruntime:undname.obj
 0002:00002d60       ??_C@_0BL@LLKPOHJI@?$GAcopy?5constructor?5closure?8@ 000000018004bd60     libvcruntime:undname.obj
 0002:00002d80       ??_C@_0BA@KBCDOMBN@?$GAudt?5returning?8@ 000000018004bd80     libvcruntime:undname.obj
 0002:00002d90       ??_C@_03KLGMFNMG@?$GAEH@   000000018004bd90     libvcruntime:undname.obj
 0002:00002d94       ??_C@_05KHLCHHI@?$GARTTI@  000000018004bd94     libvcruntime:undname.obj
 0002:00002da0       ??_C@_0BA@KKLDJDLB@?$GAlocal?5vftable?8@ 000000018004bda0     libvcruntime:undname.obj
 0002:00002db0       ??_C@_0CE@IIHCMGGL@?$GAlocal?5vftable?5constructor?5clos@ 000000018004bdb0     libvcruntime:undname.obj
 0002:00002dd4       ??_C@_06FHBGPFGH@?5new?$FL?$FN@ 000000018004bdd4     libvcruntime:undname.obj
 0002:00002de0       ??_C@_09LBNFPBCA@?5delete?$FL?$FN@ 000000018004bde0     libvcruntime:undname.obj
 0002:00002df0       ??_C@_0P@HJKNJFNN@?$GAomni?5callsig?8@ 000000018004bdf0     libvcruntime:undname.obj
 0002:00002e00       ??_C@_0BL@CNOONJFP@?$GAplacement?5delete?5closure?8@ 000000018004be00     libvcruntime:undname.obj
 0002:00002e20       ??_C@_0BN@CKNJLHMB@?$GAplacement?5delete?$FL?$FN?5closure?8@ 000000018004be20     libvcruntime:undname.obj
 0002:00002e40       ??_C@_0CG@CFDHKGGD@?$GAmanaged?5vector?5constructor?5ite@ 000000018004be40     libvcruntime:undname.obj
 0002:00002e68       ??_C@_0CF@IMGKMJNO@?$GAmanaged?5vector?5destructor?5iter@ 000000018004be68     libvcruntime:undname.obj
 0002:00002e90       ??_C@_0CG@HLDDJMAG@?$GAeh?5vector?5copy?5constructor?5ite@ 000000018004be90     libvcruntime:undname.obj
 0002:00002eb8       ??_C@_0CM@FCBBDIGB@?$GAeh?5vector?5vbase?5copy?5construct@ 000000018004beb8     libvcruntime:undname.obj
 0002:00002ee8       ??_C@_0BL@CLIPGLGB@?$GAdynamic?5initializer?5for?5?8@ 000000018004bee8     libvcruntime:undname.obj
 0002:00002f08       ??_C@_0CB@PDBIFEP@?$GAdynamic?5atexit?5destructor?5for?5@ 000000018004bf08     libvcruntime:undname.obj
 0002:00002f30       ??_C@_0CD@CGAJBKEJ@?$GAvector?5copy?5constructor?5iterat@ 000000018004bf30     libvcruntime:undname.obj
 0002:00002f58       ??_C@_0CJ@GJELGAMM@?$GAvector?5vbase?5copy?5constructor?5@ 000000018004bf58     libvcruntime:undname.obj
 0002:00002f88       ??_C@_0CL@FGIJHLCE@?$GAmanaged?5vector?5copy?5constructo@ 000000018004bf88     libvcruntime:undname.obj
 0002:00002fb8       ??_C@_0BM@PMGGMLDN@?$GAlocal?5static?5thread?5guard?8@ 000000018004bfb8     libvcruntime:undname.obj
 0002:00002fd8       ??_C@_0N@BDNMDMOL@operator?5?$CC?$CC?5@ 000000018004bfd8     libvcruntime:undname.obj
 0002:00002fe8       ??_C@_0BC@GGEBGALA@operator?5co_await@ 000000018004bfe8     libvcruntime:undname.obj
 0002:00003000       ??_C@_0M@GAAIMMOH@operator?$DM?$DN?$DO@ 000000018004c000     libvcruntime:undname.obj
 0002:00003010       ??_C@_0BC@DAFEJGAK@?5Type?5Descriptor?8@ 000000018004c010     libvcruntime:undname.obj
 0002:00003028       ??_C@_0BM@LDKODKLH@?5Base?5Class?5Descriptor?5at?5?$CI@ 000000018004c028     libvcruntime:undname.obj
 0002:00003048       ??_C@_0BD@LGICGFMM@?5Base?5Class?5Array?8@ 000000018004c048     libvcruntime:undname.obj
 0002:00003060       ??_C@_0BN@MECKDCOJ@?5Class?5Hierarchy?5Descriptor?8@ 000000018004c060     libvcruntime:undname.obj
 0002:00003080       ??_C@_0BK@CFCOFLF@?5Complete?5Object?5Locator?8@ 000000018004c080     libvcruntime:undname.obj
 0002:000030a0       ??_C@_0BG@JNJLAMPM@?$GAanonymous?5namespace?8@ 000000018004c0a0     libvcruntime:undname.obj
 0002:000030b8       ??_C@_04HEJADOOB@CV?3?5@   000000018004c0b8     libvcruntime:undname.obj
 0002:000030c0       ??_C@_02MOLJINC@?3?3@      000000018004c0c0     libvcruntime:undname.obj
 0002:000030c8       ??_C@_0BE@JAEOCHPE@template?9parameter?9@ 000000018004c0c8     libvcruntime:undname.obj
 0002:000030e0       ??_C@_0BF@LNLGBBNL@?$GAtemplate?9parameter?9@ 000000018004c0e0     libvcruntime:undname.obj
 0002:000030f8       ??_C@_0O@KHGCOMHP@generic?9type?9@ 000000018004c0f8     libvcruntime:undname.obj
 0002:00003108       ??_C@_0P@ODDENDLM@?$GAgeneric?9type?9@ 000000018004c108     libvcruntime:undname.obj
 0002:00003118       ??_C@_02OHHJMEON@?8?8@     000000018004c118     libvcruntime:undname.obj
 0002:00003120       ??_C@_0BN@IBLMMFAP@?$GAnon?9type?9template?9parameter@ 000000018004c120     libvcruntime:undname.obj
 0002:00003140       ??_C@_03DLDNIBIK@?$CFlf@   000000018004c140     libvcruntime:undname.obj
 0002:00003144       ??_C@_04OFALKAJ@?$DP?$DP_C@ 000000018004c144     libvcruntime:undname.obj
 0002:0000314c       ??_C@_03KHICJKCI@?4?4?4@   000000018004c14c     libvcruntime:undname.obj
 0002:00003150       ??_C@_04HIBGFPH@NULL@      000000018004c150     libvcruntime:undname.obj
 0002:00003158       ??_C@_02DPKJAMEF@?$CFd@    000000018004c158     libvcruntime:undname.obj
 0002:00003160       ??_C@_0BK@IHCCFNEL@?$GAtemplate?9type?9parameter?9@ 000000018004c160     libvcruntime:undname.obj
 0002:00003180       ??_C@_0BK@OFCNNNKO@?$GAgeneric?9class?9parameter?9@ 000000018004c180     libvcruntime:undname.obj
 0002:000031a0       ??_C@_0BL@NGJBLFIL@?$GAgeneric?9method?9parameter?9@ 000000018004c1a0     libvcruntime:undname.obj
 0002:000031c0       ??_C@_07OHNGEDJK@nullptr@  000000018004c1c0     libvcruntime:undname.obj
 0002:000031c8       ??_C@_04GKJNKENE@void@     000000018004c1c8     libvcruntime:undname.obj
 0002:000031d0       ??_C@_0BE@EODMJLIF@?$GAtemplate?9parameter@ 000000018004c1d0     libvcruntime:undname.obj
 0002:000031e4       ??_C@_03OPGICMGF@?$HN?8?5@ 000000018004c1e4     libvcruntime:undname.obj
 0002:000031e8       ??_C@_02IGFCGPIL@?$HN?8@   000000018004c1e8     libvcruntime:undname.obj
 0002:000031f0       ??_C@_0N@CBHHHENL@?$GAvtordispex?$HL@ 000000018004c1f0     libvcruntime:undname.obj
 0002:00003200       ??_C@_0L@GHPFDFH@?$GAvtordisp?$HL@ 000000018004c200     libvcruntime:undname.obj
 0002:00003210       ??_C@_0L@HNGCOGAE@?$GAadjustor?$HL@ 000000018004c210     libvcruntime:undname.obj
 0002:00003220       ??_C@_0CB@KJDOOODE@?$GAlocal?5static?5destructor?5helper@ 000000018004c220     libvcruntime:undname.obj
 0002:00003248       ??_C@_0DB@ILEFOCIJ@?$GAtemplate?5static?5data?5member?5co@ 000000018004c248     libvcruntime:undname.obj
 0002:00003280       ??_C@_0DA@HGFJFBBE@?$GAtemplate?5static?5data?5member?5de@ 000000018004c280     libvcruntime:undname.obj
 0002:000032b0       ??_C@_07PGOEDBHP@static?5@ 000000018004c2b0     libvcruntime:undname.obj
 0002:000032b8       ??_C@_08NIEOINHE@virtual?5@ 000000018004c2b8     libvcruntime:undname.obj
 0002:000032c8       ??_C@_09LAPHOOG@private?3?5@ 000000018004c2c8     libvcruntime:undname.obj
 0002:000032d8       ??_C@_0M@GAIFPFIP@protected?3?5@ 000000018004c2d8     libvcruntime:undname.obj
 0002:000032e8       ??_C@_08GPDDCMKI@public?3?5@ 000000018004c2e8     libvcruntime:undname.obj
 0002:000032f8       ??_C@_08KJLFOPNE@?$FLthunk?$FN?3@ 000000018004c2f8     libvcruntime:undname.obj
 0002:00003308       ??_C@_0M@DHNBOJMP@extern?5?$CCC?$CC?5@ 000000018004c308     libvcruntime:undname.obj
 0002:00003314       ??_C@_02KCKGHPCA@?$CJ?5@   000000018004c314     libvcruntime:undname.obj
 0002:00003318       ??_C@_05CIHEBHNO@char?5@   000000018004c318     libvcruntime:undname.obj
 0002:00003320       ??_C@_06EHJMALKF@short?5@  000000018004c320     libvcruntime:undname.obj
 0002:00003328       ??_C@_04LAHKHJMA@int?5@    000000018004c328     libvcruntime:undname.obj
 0002:00003330       ??_C@_05CJIMAING@long?5@   000000018004c330     libvcruntime:undname.obj
 0002:00003338       ??_C@_09EBBEKKIH@unsigned?5@ 000000018004c338     libvcruntime:undname.obj
 0002:00003344       ??_C@_05BEFAKPML@void?5@   000000018004c344     libvcruntime:undname.obj
 0002:00003350       ??_C@_09GAIEOBLP@volatile?5@ 000000018004c350     libvcruntime:undname.obj
 0002:00003360       ??_C@_08PABEKFH@volatile@  000000018004c360     libvcruntime:undname.obj
 0002:00003370       ??_C@_0BA@LKIJLKPP@std?3?3nullptr_t?5@ 000000018004c370     libvcruntime:undname.obj
 0002:00003380       ??_C@_0P@GCOCNKDM@std?3?3nullptr_t@ 000000018004c380     libvcruntime:undname.obj
 0002:00003390       ??_C@_0L@EGPHHEKN@?$DMellipsis?$DO@ 000000018004c390     libvcruntime:undname.obj
 0002:0000339c       ??_C@_04EENFHACM@?0?4?4?4@ 000000018004c39c     libvcruntime:undname.obj
 0002:000033a8       ??_C@_0M@ELJOJFFH@?0?$DMellipsis?$DO@ 000000018004c3a8     libvcruntime:undname.obj
 0002:000033b8       ??_C@_09DNHFEOJI@?5noexcept@ 000000018004c3b8     libvcruntime:undname.obj
 0002:000033c4       ??_C@_03PBJBJNON@cpu@      000000018004c3c4     libvcruntime:undname.obj
 0002:000033c8       ??_C@_03DCBBJBAA@amp@      000000018004c3c8     libvcruntime:undname.obj
 0002:000033cc       ??_C@_02KEGNLNML@?0?5@     000000018004c3cc     libvcruntime:undname.obj
 0002:000033d0       ??_C@_04ENMBGAPA@char@     000000018004c3d0     libvcruntime:undname.obj
 0002:000033d8       ??_C@_05BFKKPKCG@short@    000000018004c3d8     libvcruntime:undname.obj
 0002:000033e0       ??_C@_03JBIPMCLC@int@      000000018004c3e0     libvcruntime:undname.obj
 0002:000033e4       ??_C@_04GOKPGOLB@long@     000000018004c3e4     libvcruntime:undname.obj
 0002:000033ec       ??_C@_05KNFBNCOH@float@    000000018004c3ec     libvcruntime:undname.obj
 0002:000033f4       ??_C@_06BNJCAIGJ@double@   000000018004c3f4     libvcruntime:undname.obj
 0002:000033fc       ??_C@_04DDKJGDCM@bool@     000000018004c3fc     libvcruntime:undname.obj
 0002:00003404       ??_C@_06EBGKOKIG@__int8@   000000018004c404     libvcruntime:undname.obj
 0002:00003410       ??_C@_07ICFHOGAF@__int16@  000000018004c410     libvcruntime:undname.obj
 0002:00003418       ??_C@_07OFLPPHGP@__int32@  000000018004c418     libvcruntime:undname.obj
 0002:00003420       ??_C@_07LFCOJCAC@__int64@  000000018004c420     libvcruntime:undname.obj
 0002:00003428       ??_C@_08GAHOLHEO@__int128@ 000000018004c428     libvcruntime:undname.obj
 0002:00003438       ??_C@_09EEKGDCPH@?$DMunknown?$DO@ 000000018004c438     libvcruntime:undname.obj
 0002:00003448       ??_C@_07CFHGOPCN@char8_t@  000000018004c448     libvcruntime:undname.obj
 0002:00003450       ??_C@_08HBIPOFJB@char16_t@ 000000018004c450     libvcruntime:undname.obj
 0002:00003460       ??_C@_08IECNCBKG@char32_t@ 000000018004c460     libvcruntime:undname.obj
 0002:00003470       ??_C@_07CLGGIAMF@wchar_t@  000000018004c470     libvcruntime:undname.obj
 0002:00003478       ??_C@_04HAPDLBFF@auto@     000000018004c478     libvcruntime:undname.obj
 0002:00003480       ??_C@_0P@LHCGKIGK@decltype?$CIauto?$CJ@ 000000018004c480     libvcruntime:undname.obj
 0002:00003490       ??_C@_06GCICPBLB@__w64?5@  000000018004c490     libvcruntime:undname.obj
 0002:00003498       ??_C@_07NFANNNEC@UNKNOWN@  000000018004c498     libvcruntime:undname.obj
 0002:000034a0       ??_C@_07EDHNAJHC@signed?5@ 000000018004c4a0     libvcruntime:undname.obj
 0002:000034a8       ??_C@_05BNCCCJPP@const@    000000018004c4a8     libvcruntime:undname.obj
 0002:000034b0       ??_C@_09EFNPDFFP@?5volatile@ 000000018004c4b0     libvcruntime:undname.obj
 0002:000034c0       ??_C@_0P@GCIFDJCJ@?$GAunknown?5ecsu?8@ 000000018004c4c0     libvcruntime:undname.obj
 0002:000034d0       ??_C@_06MOJHIBMG@union?5@  000000018004c4d0     libvcruntime:undname.obj
 0002:000034d8       ??_C@_07DIBCDNGL@struct?5@ 000000018004c4d8     libvcruntime:undname.obj
 0002:000034e0       ??_C@_06LJBABKPM@class?5@  000000018004c4e0     libvcruntime:undname.obj
 0002:000034e8       ??_C@_08KOFANOFK@coclass?5@ 000000018004c4e8     libvcruntime:undname.obj
 0002:000034f8       ??_C@_0N@DLIEFKNA@cointerface?5@ 000000018004c4f8     libvcruntime:undname.obj
 0002:00003508       ??_C@_05LJGMCFOG@enum?5@   000000018004c508     libvcruntime:undname.obj
 0002:00003510       ??_C@_06LIJLOJAG@const?5@  000000018004c510     libvcruntime:undname.obj
 0002:00003518       ??_C@_02KJPKDIBN@?$CG?5@   000000018004c518     libvcruntime:undname.obj
 0002:0000351c       ??_C@_03PCKGMOPB@?$CG?$CG?5@ 000000018004c51c     libvcruntime:undname.obj
 0002:00003520       ??_C@_0M@EALIELKG@cli?3?3array?$DM@ 000000018004c520     libvcruntime:undname.obj
 0002:00003530       ??_C@_0O@GKABPPIF@cli?3?3pin_ptr?$DM@ 000000018004c530     libvcruntime:undname.obj
 0002:00003540       ??_C@_02GOGNNPBN@?$CJ?$FL@ 000000018004c540     libvcruntime:undname.obj
 0002:00003544       ??_C@_06EEGAIFAK@?$HLflat?$HN@ 000000018004c544     libvcruntime:undname.obj
 0002:0000354c       ??_C@_05JIBOFOHK@?$HLfor?5@ 000000018004c54c     libvcruntime:undname.obj
 0002:00003554       ??_C@_02MDINNEEG@s?5@      000000018004c554     libvcruntime:undname.obj
 0002:00003560       ??_7charNode@@6B@          000000018004c560     libvcruntime:undname.obj
 0002:00003588       ??_7pcharNode@@6B@         000000018004c588     libvcruntime:undname.obj
 0002:000035b0       ??_7pDNameNode@@6B@        000000018004c5b0     libvcruntime:undname.obj
 0002:000035d8       ??_7DNameStatusNode@@6B@   000000018004c5d8     libvcruntime:undname.obj
 0002:00003600       ??_7pairNode@@6B@          000000018004c600     libvcruntime:undname.obj
 0002:00003720       ??_C@_04OKOHEJBO@?5?$DP?$DP?5@ 000000018004c720     libvcruntime:undname.obj
 0002:00003730       ?nodes@?1??make@DNameStatusNode@@SAPEBV2@W4DNameStatus@@@Z@4QBV2@B 000000018004c730     libvcruntime:undname.obj
 0002:00003770       ?s_negLengthTab@FH4@@3QBCB 000000018004c770     libvcruntime:risctrnsctrl.obj
 0002:00003780       ?s_shiftTab@FH4@@3QBEB     000000018004c780     libvcruntime:risctrnsctrl.obj
 0002:000038e0       ??_C@_1DM@KHCHBNEB@?$AAa?$AAp?$AAi?$AA?9?$AAm?$AAs?$AA?9?$AAw?$AAi?$AAn?$AA?9?$AAc?$AAo?$AAr?$AAe@ 000000018004c8e0     libvcruntime:winapi_downlevel.obj
 0002:00003920       ??_C@_1DK@LPPGFMPP@?$AAa?$AAp?$AAi?$AA?9?$AAm?$AAs?$AA?9?$AAw?$AAi?$AAn?$AA?9?$AAc?$AAo?$AAr?$AAe@ 000000018004c920     libvcruntime:winapi_downlevel.obj
 0002:00003960       ??_C@_1BC@GDMECMAK@?$AAk?$AAe?$AAr?$AAn?$AAe?$AAl?$AA3?$AA2@ 000000018004c960     libvcruntime:winapi_downlevel.obj
 0002:00003978       ??_C@_1BA@PFFKHIOG@?$AAa?$AAp?$AAi?$AA?9?$AAm?$AAs?$AA?9@ 000000018004c978     libvcruntime:winapi_downlevel.obj
 0002:00003990       ??_C@_08KNHFBNJ@FlsAlloc@  000000018004c990     libvcruntime:winapi_downlevel.obj
 0002:000039a8       ??_C@_07PEJMOBNF@FlsFree@  000000018004c9a8     libvcruntime:winapi_downlevel.obj
 0002:000039b8       ??_C@_0M@GDNOONDI@FlsGetValue@ 000000018004c9b8     libvcruntime:winapi_downlevel.obj
 0002:000039d0       ??_C@_0M@JCPCPOEF@FlsSetValue@ 000000018004c9d0     libvcruntime:winapi_downlevel.obj
 0002:000039e8       ??_C@_0BM@HCFOFFN@InitializeCriticalSectionEx@ 000000018004c9e8     libvcruntime:winapi_downlevel.obj
 0002:00003a10       ??_7exception@std@@6B@     000000018004ca10     libvcruntime:frame.obj
 0002:00003a20       ??_C@_0BC@EOODALEL@Unknown?5exception@ 000000018004ca20     libvcruntime:frame.obj
 0002:00003a40       ??_7bad_exception@std@@6B@ 000000018004ca40     libvcruntime:frame.obj
 0002:00003a50       ??_C@_0O@DPKOEFFH@bad?5exception@ 000000018004ca50     libvcruntime:frame.obj
 0002:000041e8       __real@3f1a36e2eb1c432d    000000018004d1e8     libucrt:atan2f.obj
 0002:000041f0       __real@3f490fdb            000000018004d1f0     libucrt:atan2f.obj
 0002:000041f8       __real@3fb0000000000000    000000018004d1f8     libucrt:atan2f.obj
 0002:00004200       __real@3fc2492482bd6be1    000000018004d200     libucrt:atan2f.obj
 0002:00004208       __real@3fc90fdb            000000018004d208     libucrt:atan2f.obj
 0002:00004210       __real@3fc99999999643a3    000000018004d210     libucrt:atan2f.obj
 0002:00004218       __real@3fd5555555550877    000000018004d218     libucrt:atan2f.obj
 0002:00004220       __real@3fd5555555555538    000000018004d220     libucrt:atan2f.obj
 0002:00004228       __real@3ff921fb54442d18    000000018004d228     libucrt:atan2f.obj
 0002:00004230       __real@400921fb54442d18    000000018004d230     libucrt:atan2f.obj
 0002:00004238       __real@4016cbe4            000000018004d238     libucrt:atan2f.obj
 0002:0000423c       __real@40490fdb            000000018004d23c     libucrt:atan2f.obj
 0002:00004240       __real@4070000000000000    000000018004d240     libucrt:atan2f.obj
 0002:00004248       __real@80000000            000000018004d248     libucrt:atan2f.obj
 0002:0000424c       __real@bf490fdb            000000018004d24c     libucrt:atan2f.obj
 0002:00004250       __real@bfc90fdb            000000018004d250     libucrt:atan2f.obj
 0002:00004254       __real@c016cbe4            000000018004d254     libucrt:atan2f.obj
 0002:00004258       __real@c0490fdb            000000018004d258     libucrt:atan2f.obj
 0002:000044b0       __acrt_exception_action_table 000000018004d4b0     libucrt:exception_filter.obj
 0002:00004570       __acrt_signal_action_table_count 000000018004d570     libucrt:exception_filter.obj
 0002:00004578       __acrt_signal_action_first_fpe_index 000000018004d578     libucrt:exception_filter.obj
 0002:00004580       __acrt_signal_action_fpe_count 000000018004d580     libucrt:exception_filter.obj
 0002:000045d8       ??_C@_1BI@BGOHAHKC@?$AAm?$AAs?$AAc?$AAo?$AAr?$AAe?$AAe?$AA?4?$AAd?$AAl?$AAl@ 000000018004d5d8     libucrt:exit.obj
 0002:000045f0       ??_C@_0P@MIGLKIOC@CorExitProcess@ 000000018004d5f0     libucrt:exit.obj
 0002:00004750       ?format_validation_lookup_table_spectre@__crt_stdio_output@@3V?$spectre_mitigated_lookup_table@Ustate_transition_pair@__crt_stdio_output@@$0IA@@1@B 000000018004d750     libucrt:output.obj
 0002:00004850       ??_C@_1O@CEDCILHN@?$AA?$CI?$AAn?$AAu?$AAl?$AAl?$AA?$CJ@ 000000018004d850     libucrt:output.obj
 0002:00004860       ??_C@_06OJHGLDPL@?$CInull?$CJ@ 000000018004d860     libucrt:output.obj
 0002:000049e0       ??_C@_04LAGPAAHP@sinf@     000000018004d9e0     libucrt:sincos_special.obj
 0002:000049e8       ??_C@_04OBBKPIAC@cosf@     000000018004d9e8     libucrt:sincos_special.obj
 0002:000049f0       __Lcosfarray               000000018004d9f0     libucrt:lsincosf_array.obj
 0002:00004a20       __Lsinfarray               000000018004da20     libucrt:lsincosf_array.obj
 0002:00004a40       __L_2_by_pi_bits           000000018004da40     libucrt:l2_by_pi_bits.obj
 0002:00004d18       ??_C@_1M@HPNHIDJI@?$AAj?$AAa?$AA?9?$AAJ?$AAP@ 000000018004dd18     libucrt:mbctype.obj
 0002:00004d28       ??_C@_1M@BIBDDEMK@?$AAz?$AAh?$AA?9?$AAC?$AAN@ 000000018004dd28     libucrt:mbctype.obj
 0002:00004d38       ??_C@_1M@JLOOOEGK@?$AAk?$AAo?$AA?9?$AAK?$AAR@ 000000018004dd38     libucrt:mbctype.obj
 0002:00004d48       ??_C@_1M@CLNBBOPM@?$AAz?$AAh?$AA?9?$AAT?$AAW@ 000000018004dd48     libucrt:mbctype.obj
 0002:00004e10       ??_C@_1EA@JGEFHKEI@?$AAa?$AAp?$AAi?$AA?9?$AAm?$AAs?$AA?9?$AAw?$AAi?$AAn?$AA?9?$AAc?$AAo?$AAr?$AAe@ 000000018004de10     libucrt:winapi_thunks.obj
 0002:00004e50       ??_C@_1DI@KMEPCBPN@?$AAa?$AAp?$AAi?$AA?9?$AAm?$AAs?$AA?9?$AAw?$AAi?$AAn?$AA?9?$AAc?$AAo?$AAr?$AAe@ 000000018004de50     libucrt:winapi_thunks.obj
 0002:00004e88       ??_C@_1DI@IJCEHOCB@?$AAa?$AAp?$AAi?$AA?9?$AAm?$AAs?$AA?9?$AAw?$AAi?$AAn?$AA?9?$AAc?$AAo?$AAr?$AAe@ 000000018004de88     libucrt:winapi_thunks.obj
 0002:00004ec0       ??_C@_1EI@MPIAOHOC@?$AAa?$AAp?$AAi?$AA?9?$AAm?$AAs?$AA?9?$AAw?$AAi?$AAn?$AA?9?$AAc?$AAo?$AAr?$AAe@ 000000018004dec0     libucrt:winapi_thunks.obj
 0002:00004f10       ??_C@_1FK@FPHCKFIE@?$AAa?$AAp?$AAi?$AA?9?$AAm?$AAs?$AA?9?$AAw?$AAi?$AAn?$AA?9?$AAc?$AAo?$AAr?$AAe@ 000000018004df10     libucrt:winapi_thunks.obj
 0002:00004f70       ??_C@_1EM@DILCGIIO@?$AAa?$AAp?$AAi?$AA?9?$AAm?$AAs?$AA?9?$AAw?$AAi?$AAn?$AA?9?$AAc?$AAo?$AAr?$AAe@ 000000018004df70     libucrt:winapi_thunks.obj
 0002:00004fc0       ??_C@_1DM@LNCGDDPN@?$AAa?$AAp?$AAi?$AA?9?$AAm?$AAs?$AA?9?$AAw?$AAi?$AAn?$AA?9?$AAc?$AAo?$AAr?$AAe@ 000000018004dfc0     libucrt:winapi_thunks.obj
 0002:00005000       ??_C@_1DO@FPAPJEMD@?$AAa?$AAp?$AAi?$AA?9?$AAm?$AAs?$AA?9?$AAw?$AAi?$AAn?$AA?9?$AAc?$AAo?$AAr?$AAe@ 000000018004e000     libucrt:winapi_thunks.obj
 0002:00005040       ??_C@_1DK@NDHNAHIO@?$AAa?$AAp?$AAi?$AA?9?$AAm?$AAs?$AA?9?$AAw?$AAi?$AAn?$AA?9?$AAc?$AAo?$AAr?$AAe@ 000000018004e040     libucrt:winapi_thunks.obj
 0002:00005080       ??_C@_1DM@KGHDGBCM@?$AAa?$AAp?$AAi?$AA?9?$AAm?$AAs?$AA?9?$AAw?$AAi?$AAn?$AA?9?$AAc?$AAo?$AAr?$AAe@ 000000018004e080     libucrt:winapi_thunks.obj
 0002:000050c0       ??_C@_1EO@IJIOEFOH@?$AAa?$AAp?$AAi?$AA?9?$AAm?$AAs?$AA?9?$AAw?$AAi?$AAn?$AA?9?$AAr?$AAt?$AAc?$AAo@ 000000018004e0c0     libucrt:winapi_thunks.obj
 0002:00005110       ??_C@_1FG@HHGEKANL@?$AAa?$AAp?$AAi?$AA?9?$AAm?$AAs?$AA?9?$AAw?$AAi?$AAn?$AA?9?$AAs?$AAe?$AAc?$AAu@ 000000018004e110     libucrt:winapi_thunks.obj
 0002:00005170       ??_C@_1EG@DBIOJECG@?$AAe?$AAx?$AAt?$AA?9?$AAm?$AAs?$AA?9?$AAw?$AAi?$AAn?$AA?9?$AAn?$AAt?$AAu?$AAs@ 000000018004e170     libucrt:winapi_thunks.obj
 0002:000051c0       ??_C@_1EO@FIHMJCLF@?$AAe?$AAx?$AAt?$AA?9?$AAm?$AAs?$AA?9?$AAw?$AAi?$AAn?$AA?9?$AAn?$AAt?$AAu?$AAs@ 000000018004e1c0     libucrt:winapi_thunks.obj
 0002:00005210       ??_C@_1BC@DNHGCMLG@?$AAa?$AAd?$AAv?$AAa?$AAp?$AAi?$AA3?$AA2@ 000000018004e210     libucrt:winapi_thunks.obj
 0002:00005228       ??_C@_1BG@CJPGBMEF@?$AAk?$AAe?$AAr?$AAn?$AAe?$AAl?$AAb?$AAa?$AAs?$AAe@ 000000018004e228     libucrt:winapi_thunks.obj
 0002:00005240       ??_C@_1M@OAIMIKLP@?$AAn?$AAt?$AAd?$AAl?$AAl@ 000000018004e240     libucrt:winapi_thunks.obj
 0002:00005250       ??_C@_1EG@DPGNFKGC@?$AAa?$AAp?$AAi?$AA?9?$AAm?$AAs?$AA?9?$AAw?$AAi?$AAn?$AA?9?$AAa?$AAp?$AAp?$AAm@ 000000018004e250     libucrt:winapi_thunks.obj
 0002:00005298       ??_C@_1O@BCCLBEOE@?$AAu?$AAs?$AAe?$AAr?$AA3?$AA2@ 000000018004e298     libucrt:winapi_thunks.obj
 0002:000052a8       ??_C@_1BA@IAIFMGEF@?$AAe?$AAx?$AAt?$AA?9?$AAm?$AAs?$AA?9@ 000000018004e2a8     libucrt:winapi_thunks.obj
 0002:000052c0       ??_C@_0BA@FHFNEAED@AreFileApisANSI@ 000000018004e2c0     libucrt:winapi_thunks.obj
 0002:000052e0       ??_C@_0O@KKBNKAPF@LCMapStringEx@ 000000018004e2e0     libucrt:winapi_thunks.obj
 0002:000052f8       ??_C@_0BB@HBDEELFH@LocaleNameToLCID@ 000000018004e2f8     libucrt:winapi_thunks.obj
 0002:00005310       ??_C@_0CF@OJOFEIGO@AppPolicyGetProcessTerminationM@ 000000018004e310     libucrt:winapi_thunks.obj
 0002:00005340       __lc_time_c                000000018004e340     libucrt:nlsdata.obj
 0002:00005600       ??_C@_03KOEHGMDN@Sun@      000000018004e600     libucrt:nlsdata.obj
 0002:00005604       ??_C@_03PDAGKDH@Mon@       000000018004e604     libucrt:nlsdata.obj
 0002:00005608       ??_C@_03NAGEINEP@Tue@      000000018004e608     libucrt:nlsdata.obj
 0002:0000560c       ??_C@_03MHOMLAJA@Wed@      000000018004e60c     libucrt:nlsdata.obj
 0002:00005610       ??_C@_03IOFIKPDN@Thu@      000000018004e610     libucrt:nlsdata.obj
 0002:00005614       ??_C@_03IDIOELNC@Fri@      000000018004e614     libucrt:nlsdata.obj
 0002:00005618       ??_C@_03FEFJNEK@Sat@       000000018004e618     libucrt:nlsdata.obj
 0002:0000561c       ??_C@_06OOPIFAJ@Sunday@    000000018004e61c     libucrt:nlsdata.obj
 0002:00005624       ??_C@_06JLEDEDGH@Monday@   000000018004e624     libucrt:nlsdata.obj
 0002:00005630       ??_C@_07BAAGCFCM@Tuesday@  000000018004e630     libucrt:nlsdata.obj
 0002:00005638       ??_C@_09DLIGFAKA@Wednesday@ 000000018004e638     libucrt:nlsdata.obj
 0002:00005648       ??_C@_08HACCIKIA@Thursday@ 000000018004e648     libucrt:nlsdata.obj
 0002:00005654       ??_C@_06JECMNKMI@Friday@   000000018004e654     libucrt:nlsdata.obj
 0002:00005660       ??_C@_08INBOOONO@Saturday@ 000000018004e660     libucrt:nlsdata.obj
 0002:0000566c       ??_C@_03JIHJHPIE@Jan@      000000018004e66c     libucrt:nlsdata.obj
 0002:00005670       ??_C@_03HJBDCHOM@Feb@      000000018004e670     libucrt:nlsdata.obj
 0002:00005674       ??_C@_03ODNJBKGA@Mar@      000000018004e674     libucrt:nlsdata.obj
 0002:00005678       ??_C@_03LEOLGMJP@Apr@      000000018004e678     libucrt:nlsdata.obj
 0002:0000567c       ??_C@_03CNMDKL@May@        000000018004e67c     libucrt:nlsdata.obj
 0002:00005680       ??_C@_03IDFGHECI@Jun@      000000018004e680     libucrt:nlsdata.obj
 0002:00005684       ??_C@_03LBGABGKK@Jul@      000000018004e684     libucrt:nlsdata.obj
 0002:00005688       ??_C@_03IFJFEIGA@Aug@      000000018004e688     libucrt:nlsdata.obj
 0002:0000568c       ??_C@_03GGCAPAJC@Sep@      000000018004e68c     libucrt:nlsdata.obj
 0002:00005690       ??_C@_03BMAOKBAD@Oct@      000000018004e690     libucrt:nlsdata.obj
 0002:00005694       ??_C@_03JPJOFNIA@Nov@      000000018004e694     libucrt:nlsdata.obj
 0002:00005698       ??_C@_03MKABNOCG@Dec@      000000018004e698     libucrt:nlsdata.obj
 0002:000056a0       ??_C@_07CGJPFGJA@January@  000000018004e6a0     libucrt:nlsdata.obj
 0002:000056a8       ??_C@_08GNJGEPFN@February@ 000000018004e6a8     libucrt:nlsdata.obj
 0002:000056b4       ??_C@_05HPCKOFNC@March@    000000018004e6b4     libucrt:nlsdata.obj
 0002:000056bc       ??_C@_05DMJDNLEJ@April@    000000018004e6bc     libucrt:nlsdata.obj
 0002:000056c4       ??_C@_04CNLMGBGM@June@     000000018004e6c4     libucrt:nlsdata.obj
 0002:000056cc       ??_C@_04MIEPOIFP@July@     000000018004e6cc     libucrt:nlsdata.obj
 0002:000056d4       ??_C@_06LBBHFDDG@August@   000000018004e6d4     libucrt:nlsdata.obj
 0002:000056e0       ??_C@_09BHHEALKD@September@ 000000018004e6e0     libucrt:nlsdata.obj
 0002:000056f0       ??_C@_07JJNFCEND@October@  000000018004e6f0     libucrt:nlsdata.obj
 0002:000056f8       ??_C@_08HCHEGEOA@November@ 000000018004e6f8     libucrt:nlsdata.obj
 0002:00005708       ??_C@_08EDHMEBNP@December@ 000000018004e708     libucrt:nlsdata.obj
 0002:00005714       ??_C@_02DEDBPAFC@AM@       000000018004e714     libucrt:nlsdata.obj
 0002:00005718       ??_C@_02CJNFDJBF@PM@       000000018004e718     libucrt:nlsdata.obj
 0002:00005720       ??_C@_08BPBNCDIB@MM?1dd?1yy@ 000000018004e720     libucrt:nlsdata.obj
 0002:00005730       ??_C@_0BE@CKGJFCPC@dddd?0?5MMMM?5dd?0?5yyyy@ 000000018004e730     libucrt:nlsdata.obj
 0002:00005748       ??_C@_08JCCMCCIL@HH?3mm?3ss@ 000000018004e748     libucrt:nlsdata.obj
 0002:00005758       ??_C@_17MBGCMIPB@?$AAS?$AAu?$AAn@ 000000018004e758     libucrt:nlsdata.obj
 0002:00005760       ??_C@_17KBOMKBF@?$AAM?$AAo?$AAn@ 000000018004e760     libucrt:nlsdata.obj
 0002:00005768       ??_C@_17BMKGEGOJ@?$AAT?$AAu?$AAe@ 000000018004e768     libucrt:nlsdata.obj
 0002:00005770       ??_C@_17CJEDCEPE@?$AAW?$AAe?$AAd@ 000000018004e770     libucrt:nlsdata.obj
 0002:00005778       ??_C@_17PDPHAADD@?$AAT?$AAh?$AAu@ 000000018004e778     libucrt:nlsdata.obj
 0002:00005780       ??_C@_17HFOLPPLP@?$AAF?$AAr?$AAi@ 000000018004e780     libucrt:nlsdata.obj
 0002:00005788       ??_C@_17GGIBDPIH@?$AAS?$AAa?$AAt@ 000000018004e788     libucrt:nlsdata.obj
 0002:00005790       ??_C@_1O@IHNHDHPB@?$AAS?$AAu?$AAn?$AAd?$AAa?$AAy@ 000000018004e790     libucrt:nlsdata.obj
 0002:000057a0       ??_C@_1O@MMNBFLIA@?$AAM?$AAo?$AAn?$AAd?$AAa?$AAy@ 000000018004e7a0     libucrt:nlsdata.obj
 0002:000057b0       ??_C@_1BA@ENFBFFEK@?$AAT?$AAu?$AAe?$AAs?$AAd?$AAa?$AAy@ 000000018004e7b0     libucrt:nlsdata.obj
 0002:000057c0       ??_C@_1BE@EBOGMDOH@?$AAW?$AAe?$AAd?$AAn?$AAe?$AAs?$AAd?$AAa?$AAy@ 000000018004e7c0     libucrt:nlsdata.obj
 0002:000057d8       ??_C@_1BC@HHMNLIHE@?$AAT?$AAh?$AAu?$AAr?$AAs?$AAd?$AAa?$AAy@ 000000018004e7d8     libucrt:nlsdata.obj
 0002:000057f0       ??_C@_1O@PDICJHAG@?$AAF?$AAr?$AAi?$AAd?$AAa?$AAy@ 000000018004e7f0     libucrt:nlsdata.obj
 0002:00005800       ??_C@_1BC@ENMNNPAJ@?$AAS?$AAa?$AAt?$AAu?$AAr?$AAd?$AAa?$AAy@ 000000018004e800     libucrt:nlsdata.obj
 0002:00005818       ??_C@_17DKNBKCHM@?$AAJ?$AAa?$AAn@ 000000018004e818     libucrt:nlsdata.obj
 0002:00005820       ??_C@_17LMDJEKJN@?$AAF?$AAe?$AAb@ 000000018004e820     libucrt:nlsdata.obj
 0002:00005828       ??_C@_17CKNLEDEC@?$AAM?$AAa?$AAr@ 000000018004e828     libucrt:nlsdata.obj
 0002:00005830       ??_C@_17LFPOIHDD@?$AAA?$AAp?$AAr@ 000000018004e830     libucrt:nlsdata.obj
 0002:00005838       ??_C@_17PNNKMEED@?$AAM?$AAa?$AAy@ 000000018004e838     libucrt:nlsdata.obj
 0002:00005840       ??_C@_17KCJGOCPB@?$AAJ?$AAu?$AAn@ 000000018004e840     libucrt:nlsdata.obj
 0002:00005848       ??_C@_17IJPCKHK@?$AAJ?$AAu?$AAl@ 000000018004e848     libucrt:nlsdata.obj
 0002:00005850       ??_C@_17ICPELBCN@?$AAA?$AAu?$AAg@ 000000018004e850     libucrt:nlsdata.obj
 0002:00005858       ??_C@_17HCHCOKMG@?$AAS?$AAe?$AAp@ 000000018004e858     libucrt:nlsdata.obj
 0002:00005860       ??_C@_17FNLKOI@?$AAO?$AAc?$AAt@ 000000018004e860     libucrt:nlsdata.obj
 0002:00005868       ??_C@_17BBDMLCIG@?$AAN?$AAo?$AAv@ 000000018004e868     libucrt:nlsdata.obj
 0002:00005870       ??_C@_17EGKACKIF@?$AAD?$AAe?$AAc@ 000000018004e870     libucrt:nlsdata.obj
 0002:00005878       ??_C@_1BA@EFMEIEBA@?$AAJ?$AAa?$AAn?$AAu?$AAa?$AAr?$AAy@ 000000018004e878     libucrt:nlsdata.obj
 0002:00005888       ??_C@_1BC@JGDDFFAM@?$AAF?$AAe?$AAb?$AAr?$AAu?$AAa?$AAr?$AAy@ 000000018004e888     libucrt:nlsdata.obj
 0002:000058a0       ??_C@_1M@IKEENEDF@?$AAM?$AAa?$AAr?$AAc?$AAh@ 000000018004e8a0     libucrt:nlsdata.obj
 0002:000058b0       ??_C@_1M@GJNLMHFD@?$AAA?$AAp?$AAr?$AAi?$AAl@ 000000018004e8b0     libucrt:nlsdata.obj
 0002:000058c0       ??_C@_19EPFLPGAP@?$AAJ?$AAu?$AAn?$AAe@ 000000018004e8c0     libucrt:nlsdata.obj
 0002:000058d0       ??_C@_19BIFMLPCD@?$AAJ?$AAu?$AAl?$AAy@ 000000018004e8d0     libucrt:nlsdata.obj
 0002:000058e0       ??_C@_1O@PAHLKOAC@?$AAA?$AAu?$AAg?$AAu?$AAs?$AAt@ 000000018004e8e0     libucrt:nlsdata.obj
 0002:000058f0       ??_C@_1BE@DKAAMBJL@?$AAS?$AAe?$AAp?$AAt?$AAe?$AAm?$AAb?$AAe?$AAr@ 000000018004e8f0     libucrt:nlsdata.obj
 0002:00005908       ??_C@_1BA@EPANDLNG@?$AAO?$AAc?$AAt?$AAo?$AAb?$AAe?$AAr@ 000000018004e908     libucrt:nlsdata.obj
 0002:00005918       ??_C@_1BC@BGLIFPF@?$AAN?$AAo?$AAv?$AAe?$AAm?$AAb?$AAe?$AAr@ 000000018004e918     libucrt:nlsdata.obj
 0002:00005930       ??_C@_1BC@FEMKIFH@?$AAD?$AAe?$AAc?$AAe?$AAm?$AAb?$AAe?$AAr@ 000000018004e930     libucrt:nlsdata.obj
 0002:00005944       ??_C@_15ODEHAHHF@?$AAA?$AAM@ 000000018004e944     libucrt:nlsdata.obj
 0002:0000594c       ??_C@_15CLMNNGEL@?$AAP?$AAM@ 000000018004e94c     libucrt:nlsdata.obj
 0002:00005958       ??_C@_1BC@IEBCMHCM@?$AAM?$AAM?$AA?1?$AAd?$AAd?$AA?1?$AAy?$AAy@ 000000018004e958     libucrt:nlsdata.obj
 0002:00005970       ??_C@_1CI@KNAKOEBC@?$AAd?$AAd?$AAd?$AAd?$AA?0?$AA?5?$AAM?$AAM?$AAM?$AAM?$AA?5?$AAd?$AAd?$AA?0?$AA?5@ 000000018004e970     libucrt:nlsdata.obj
 0002:00005998       ??_C@_1BC@GDGBMEMK@?$AAH?$AAH?$AA?3?$AAm?$AAm?$AA?3?$AAs?$AAs@ 000000018004e998     libucrt:nlsdata.obj
 0002:000059b0       ??_C@_1M@BMHNFIME@?$AAe?$AAn?$AA?9?$AAU?$AAS@ 000000018004e9b0     libucrt:nlsdata.obj
 0002:00005a40       ??_C@_03OEIAHPBN@INF@      000000018004ea40     libucrt:cvt.obj
 0002:00005a44       ??_C@_03OJHLLCGB@inf@      000000018004ea44     libucrt:cvt.obj
 0002:00005a48       ??_C@_03LKNCIKJB@NAN@      000000018004ea48     libucrt:cvt.obj
 0002:00005a4c       ??_C@_03LHCJEHON@nan@      000000018004ea4c     libucrt:cvt.obj
 0002:00005a50       ??_C@_09OFJJIMPC@NAN?$CISNAN?$CJ@ 000000018004ea50     libucrt:cvt.obj
 0002:00005a60       ??_C@_09IPFBKMDL@nan?$CIsnan?$CJ@ 000000018004ea60     libucrt:cvt.obj
 0002:00005a70       ??_C@_08IKHNHAJ@NAN?$CIIND?$CJ@ 000000018004ea70     libucrt:cvt.obj
 0002:00005a80       ??_C@_08OFCDMILK@nan?$CIind?$CJ@ 000000018004ea80     libucrt:cvt.obj
 0002:00005a8c       ??_C@_05KLBDPFGC@e?$CL000@ 000000018004ea8c     libucrt:cvt.obj
 0002:00005aa0       __newctype                 000000018004eaa0     libucrt:ctype.obj
 0002:00005da0       __newclmap                 000000018004eda0     libucrt:ctype.obj
 0002:00005f20       __newcumap                 000000018004ef20     libucrt:ctype.obj
 0002:000060b0       ??_C@_05HGHHAHAP@log10@    000000018004f0b0     libucrt:fpexcept.obj
 0002:00006f00       ??_C@_15EMKDOKLE@?$AAa?$AAr@ 000000018004ff00     libucrt:lcidtoname_downlevel.obj
 0002:00006f08       ??_C@_15KNPADPLH@?$AAb?$AAg@ 000000018004ff08     libucrt:lcidtoname_downlevel.obj
 0002:00006f10       ??_C@_15EDMHLDMO@?$AAc?$AAa@ 000000018004ff10     libucrt:lcidtoname_downlevel.obj
 0002:00006f18       ??_C@_1O@BPEAJADD@?$AAz?$AAh?$AA?9?$AAC?$AAH?$AAS@ 000000018004ff18     libucrt:lcidtoname_downlevel.obj
 0002:00006f28       ??_C@_15LJNHCMNK@?$AAc?$AAs@ 000000018004ff28     libucrt:lcidtoname_downlevel.obj
 0002:00006f30       ??_C@_15FOMCIDHG@?$AAd?$AAa@ 000000018004ff30     libucrt:lcidtoname_downlevel.obj
 0002:00006f38       ??_C@_15NBKABECB@?$AAd?$AAe@ 000000018004ff38     libucrt:lcidtoname_downlevel.obj
 0002:00006f40       ??_C@_15GHPEIIAO@?$AAe?$AAl@ 000000018004ff40     libucrt:lcidtoname_downlevel.obj
 0002:00006f48       ??_C@_15MNPNEAIF@?$AAe?$AAn@ 000000018004ff48     libucrt:lcidtoname_downlevel.obj
 0002:00006f50       ??_C@_15GPIOMPMH@?$AAe?$AAs@ 000000018004ff50     libucrt:lcidtoname_downlevel.obj
 0002:00006f58       ??_C@_15NGLOAKJC@?$AAf?$AAi@ 000000018004ff58     libucrt:lcidtoname_downlevel.obj
 0002:00006f60       ??_C@_15FBKGNKAM@?$AAf?$AAr@ 000000018004ff60     libucrt:lcidtoname_downlevel.obj
 0002:00006f68       ??_C@_15KGGCNEFK@?$AAh?$AAe@ 000000018004ff68     libucrt:lcidtoname_downlevel.obj
 0002:00006f70       ??_C@_15PGHLIDMF@?$AAh?$AAu@ 000000018004ff70     libucrt:lcidtoname_downlevel.obj
 0002:00006f78       ??_C@_15BIEMAPLM@?$AAi?$AAs@ 000000018004ff78     libucrt:lcidtoname_downlevel.obj
 0002:00006f80       ??_C@_15IFJLDHAF@?$AAi?$AAt@ 000000018004ff80     libucrt:lcidtoname_downlevel.obj
 0002:00006f88       ??_C@_15GEMIOCAG@?$AAj?$AAa@ 000000018004ff88     libucrt:lcidtoname_downlevel.obj
 0002:00006f90       ??_C@_15EPELEGJA@?$AAk?$AAo@ 000000018004ff90     libucrt:lcidtoname_downlevel.obj
 0002:00006f98       ??_C@_15NDDHIMN@?$AAn?$AAl@ 000000018004ff98     libucrt:lcidtoname_downlevel.obj
 0002:00006fa0       ??_C@_15BPIGNHCD@?$AAn?$AAo@ 000000018004ffa0     libucrt:lcidtoname_downlevel.obj
 0002:00006fa8       ??_C@_15DEOPBLCG@?$AAp?$AAl@ 000000018004ffa8     libucrt:lcidtoname_downlevel.obj
 0002:00006fb0       ??_C@_15KBECGEFG@?$AAp?$AAt@ 000000018004ffb0     libucrt:lcidtoname_downlevel.obj
 0002:00006fb8       ??_C@_15GLJCBFMD@?$AAr?$AAo@ 000000018004ffb8     libucrt:lcidtoname_downlevel.obj
 0002:00006fc0       ??_C@_15FEDGKCDI@?$AAr?$AAu@ 000000018004ffc0     libucrt:lcidtoname_downlevel.obj
 0002:00006fc8       ??_C@_15GLKMLLHM@?$AAh?$AAr@ 000000018004ffc8     libucrt:lcidtoname_downlevel.obj
 0002:00006fd0       ??_C@_15CPKMFBDB@?$AAs?$AAk@ 000000018004ffd0     libucrt:lcidtoname_downlevel.obj
 0002:00006fd8       ??_C@_15BAAIOGMK@?$AAs?$AAq@ 000000018004ffd8     libucrt:lcidtoname_downlevel.obj
 0002:00006fe0       ??_C@_15INNPNOHD@?$AAs?$AAv@ 000000018004ffe0     libucrt:lcidtoname_downlevel.obj
 0002:00006fe8       ??_C@_15CABMMOGH@?$AAt?$AAh@ 000000018004ffe8     libucrt:lcidtoname_downlevel.obj
 0002:00006ff0       ??_C@_15BPLIHJJM@?$AAt?$AAr@ 000000018004fff0     libucrt:lcidtoname_downlevel.obj
 0002:00006ff8       ??_C@_15NEOEKKDJ@?$AAu?$AAr@ 000000018004fff8     libucrt:lcidtoname_downlevel.obj
 0002:00007000       ??_C@_15NFICGAJK@?$AAi?$AAd@ 0000000180050000     libucrt:lcidtoname_downlevel.obj
 0002:00007008       ??_C@_15PJPFLCCM@?$AAu?$AAk@ 0000000180050008     libucrt:lcidtoname_downlevel.obj
 0002:00007010       ??_C@_15HPJPHDM@?$AAb?$AAe@ 0000000180050010     libucrt:lcidtoname_downlevel.obj
 0002:00007018       ??_C@_15LCHLGJII@?$AAs?$AAl@ 0000000180050018     libucrt:lcidtoname_downlevel.obj
 0002:00007020       ??_C@_15PCFJPHHO@?$AAe?$AAt@ 0000000180050020     libucrt:lcidtoname_downlevel.obj
 0002:00007028       ??_C@_15HPFPGODN@?$AAl?$AAv@ 0000000180050028     libucrt:lcidtoname_downlevel.obj
 0002:00007030       ??_C@_15NFFGKGLG@?$AAl?$AAt@ 0000000180050030     libucrt:lcidtoname_downlevel.obj
 0002:00007038       ??_C@_15BDAKCCHN@?$AAf?$AAa@ 0000000180050038     libucrt:lcidtoname_downlevel.obj
 0002:00007040       ??_C@_15NFGIAIAJ@?$AAv?$AAi@ 0000000180050040     libucrt:lcidtoname_downlevel.obj
 0002:00007048       ??_C@_15LMKNDMHN@?$AAh?$AAy@ 0000000180050048     libucrt:lcidtoname_downlevel.obj
 0002:00007050       ??_C@_15IJBHMCFL@?$AAa?$AAz@ 0000000180050050     libucrt:lcidtoname_downlevel.obj
 0002:00007058       ??_C@_15EKOFJABL@?$AAe?$AAu@ 0000000180050058     libucrt:lcidtoname_downlevel.obj
 0002:00007060       ??_C@_15BGHADCNK@?$AAm?$AAk@ 0000000180050060     libucrt:lcidtoname_downlevel.obj
 0002:00007068       ??_C@_15JDNICKHM@?$AAa?$AAf@ 0000000180050068     libucrt:lcidtoname_downlevel.obj
 0002:00007070       ??_C@_15KPJEDBKD@?$AAk?$AAa@ 0000000180050070     libucrt:lcidtoname_downlevel.obj
 0002:00007078       ??_C@_15PDNFFFEO@?$AAf?$AAo@ 0000000180050078     libucrt:lcidtoname_downlevel.obj
 0002:00007080       ??_C@_15OMLEGLOC@?$AAh?$AAi@ 0000000180050080     libucrt:lcidtoname_downlevel.obj
 0002:00007088       ??_C@_15IDNNENKK@?$AAm?$AAs@ 0000000180050088     libucrt:lcidtoname_downlevel.obj
 0002:00007090       ??_C@_15MACJNBMH@?$AAk?$AAk@ 0000000180050090     libucrt:lcidtoname_downlevel.obj
 0002:00007098       ??_C@_15DKDJEOND@?$AAk?$AAy@ 0000000180050098     libucrt:lcidtoname_downlevel.obj
 0002:000070a0       ??_C@_15DFGDLJBG@?$AAs?$AAw@ 00000001800500a0     libucrt:lcidtoname_downlevel.obj
 0002:000070a8       ??_C@_15BBFAICNG@?$AAu?$AAz@ 00000001800500a8     libucrt:lcidtoname_downlevel.obj
 0002:000070b0       ??_C@_15DKNDCGEA@?$AAt?$AAt@ 00000001800500b0     libucrt:lcidtoname_downlevel.obj
 0002:000070b8       ??_C@_15MGIFMDPL@?$AAp?$AAa@ 00000001800500b8     libucrt:lcidtoname_downlevel.obj
 0002:000070c0       ??_C@_15HCNDBBA@?$AAg?$AAu@ 00000001800500c0     libucrt:lcidtoname_downlevel.obj
 0002:000070c8       ??_C@_15FNBEIBON@?$AAt?$AAa@ 00000001800500c8     libucrt:lcidtoname_downlevel.obj
 0002:000070d0       ??_C@_15NCHGBGLK@?$AAt?$AAe@ 00000001800500d0     libucrt:lcidtoname_downlevel.obj
 0002:000070d8       ??_C@_15PHPHCBPF@?$AAk?$AAn@ 00000001800500d8     libucrt:lcidtoname_downlevel.obj
 0002:000070e0       ??_C@_15DLGBCKMP@?$AAm?$AAr@ 00000001800500e0     libucrt:lcidtoname_downlevel.obj
 0002:000070e8       ??_C@_15EABBLBFF@?$AAs?$AAa@ 00000001800500e8     libucrt:lcidtoname_downlevel.obj
 0002:000070f0       ??_C@_15CBKOMCOI@?$AAm?$AAn@ 00000001800500f0     libucrt:lcidtoname_downlevel.obj
 0002:000070f8       ??_C@_15CKDMCJAF@?$AAg?$AAl@ 00000001800500f8     libucrt:lcidtoname_downlevel.obj
 0002:00007100       ??_C@_17CNJFBPG@?$AAk?$AAo?$AAk@ 0000000180050100     libucrt:lcidtoname_downlevel.obj
 0002:00007108       ??_C@_17FFBJICPL@?$AAs?$AAy?$AAr@ 0000000180050108     libucrt:lcidtoname_downlevel.obj
 0002:00007110       ??_C@_17KPNDCPAF@?$AAd?$AAi?$AAv@ 0000000180050110     libucrt:lcidtoname_downlevel.obj
 0002:00007118       ??_C@_11LOCGONAA@@         0000000180050118     libucrt:lcidtoname_downlevel.obj
 0002:00007120       ??_C@_1M@OKAHONE@?$AAa?$AAr?$AA?9?$AAS?$AAA@ 0000000180050120     libucrt:lcidtoname_downlevel.obj
 0002:00007130       ??_C@_1M@FFFIGIGK@?$AAb?$AAg?$AA?9?$AAB?$AAG@ 0000000180050130     libucrt:lcidtoname_downlevel.obj
 0002:00007140       ??_C@_1M@BJNKEDC@?$AAc?$AAa?$AA?9?$AAE?$AAS@ 0000000180050140     libucrt:lcidtoname_downlevel.obj
 0002:00007150       ??_C@_1M@IJJHFJHA@?$AAc?$AAs?$AA?9?$AAC?$AAZ@ 0000000180050150     libucrt:lcidtoname_downlevel.obj
 0002:00007160       ??_C@_1M@CLPEOBGI@?$AAd?$AAa?$AA?9?$AAD?$AAK@ 0000000180050160     libucrt:lcidtoname_downlevel.obj
 0002:00007170       ??_C@_1M@MCMADGCB@?$AAd?$AAe?$AA?9?$AAD?$AAE@ 0000000180050170     libucrt:lcidtoname_downlevel.obj
 0002:00007180       ??_C@_1M@OOCKEMAM@?$AAe?$AAl?$AA?9?$AAG?$AAR@ 0000000180050180     libucrt:lcidtoname_downlevel.obj
 0002:00007190       ??_C@_1M@DDNJFGID@?$AAf?$AAi?$AA?9?$AAF?$AAI@ 0000000180050190     libucrt:lcidtoname_downlevel.obj
 0002:000071a0       ??_C@_1M@GLIPPMAC@?$AAf?$AAr?$AA?9?$AAF?$AAR@ 00000001800501a0     libucrt:lcidtoname_downlevel.obj
 0002:000071b0       ??_C@_1M@GFMCHPE@?$AAh?$AAe?$AA?9?$AAI?$AAL@ 00000001800501b0     libucrt:lcidtoname_downlevel.obj
 0002:000071c0       ??_C@_1M@MHLPGNKM@?$AAh?$AAu?$AA?9?$AAH?$AAU@ 00000001800501c0     libucrt:lcidtoname_downlevel.obj
 0002:000071d0       ??_C@_1M@LPDDNNPN@?$AAi?$AAs?$AA?9?$AAI?$AAS@ 00000001800501d0     libucrt:lcidtoname_downlevel.obj
 0002:000071e0       ??_C@_1M@MADIPODN@?$AAi?$AAt?$AA?9?$AAI?$AAT@ 00000001800501e0     libucrt:lcidtoname_downlevel.obj
 0002:000071f0       ??_C@_1M@IHBJJGG@?$AAn?$AAl?$AA?9?$AAN?$AAL@ 00000001800501f0     libucrt:lcidtoname_downlevel.obj
 0002:00007200       ??_C@_1M@EANAGDL@?$AAn?$AAb?$AA?9?$AAN?$AAO@ 0000000180050200     libucrt:lcidtoname_downlevel.obj
 0002:00007210       ??_C@_1M@NEIEMEGP@?$AAp?$AAl?$AA?9?$AAP?$AAL@ 0000000180050210     libucrt:lcidtoname_downlevel.obj
 0002:00007220       ??_C@_1M@BOCFIGEP@?$AAp?$AAt?$AA?9?$AAB?$AAR@ 0000000180050220     libucrt:lcidtoname_downlevel.obj
 0002:00007230       ??_C@_1M@IMPFOPBG@?$AAr?$AAo?$AA?9?$AAR?$AAO@ 0000000180050230     libucrt:lcidtoname_downlevel.obj
 0002:00007240       ??_C@_1M@IDNNEJMM@?$AAr?$AAu?$AA?9?$AAR?$AAU@ 0000000180050240     libucrt:lcidtoname_downlevel.obj
 0002:00007250       ??_C@_1M@LILEEOGM@?$AAh?$AAr?$AA?9?$AAH?$AAR@ 0000000180050250     libucrt:lcidtoname_downlevel.obj
 0002:00007260       ??_C@_1M@FKIFEHPB@?$AAs?$AAk?$AA?9?$AAS?$AAK@ 0000000180050260     libucrt:lcidtoname_downlevel.obj
 0002:00007270       ??_C@_1M@LJMAMNPJ@?$AAs?$AAq?$AA?9?$AAA?$AAL@ 0000000180050270     libucrt:lcidtoname_downlevel.obj
 0002:00007280       ??_C@_1M@GIAKDKJK@?$AAs?$AAv?$AA?9?$AAS?$AAE@ 0000000180050280     libucrt:lcidtoname_downlevel.obj
 0002:00007290       ??_C@_1M@MKJKIKCL@?$AAt?$AAh?$AA?9?$AAT?$AAH@ 0000000180050290     libucrt:lcidtoname_downlevel.obj
 0002:000072a0       ??_C@_1M@MFLCCMPB@?$AAt?$AAr?$AA?9?$AAT?$AAR@ 00000001800502a0     libucrt:lcidtoname_downlevel.obj
 0002:000072b0       ??_C@_1M@OIJHDKJN@?$AAu?$AAr?$AA?9?$AAP?$AAK@ 00000001800502b0     libucrt:lcidtoname_downlevel.obj
 0002:000072c0       ??_C@_1M@LHIPCIEK@?$AAi?$AAd?$AA?9?$AAI?$AAD@ 00000001800502c0     libucrt:lcidtoname_downlevel.obj
 0002:000072d0       ??_C@_1M@MFMOBGI@?$AAu?$AAk?$AA?9?$AAU?$AAA@ 00000001800502d0     libucrt:lcidtoname_downlevel.obj
 0002:000072e0       ??_C@_1M@OBGLJIPL@?$AAb?$AAe?$AA?9?$AAB?$AAY@ 00000001800502e0     libucrt:lcidtoname_downlevel.obj
 0002:000072f0       ??_C@_1M@BCFAJEAD@?$AAs?$AAl?$AA?9?$AAS?$AAI@ 00000001800502f0     libucrt:lcidtoname_downlevel.obj
 0002:00007300       ??_C@_1M@FKFFEDDN@?$AAe?$AAt?$AA?9?$AAE?$AAE@ 0000000180050300     libucrt:lcidtoname_downlevel.obj
 0002:00007310       ??_C@_1M@KGKKAACI@?$AAl?$AAv?$AA?9?$AAL?$AAV@ 0000000180050310     libucrt:lcidtoname_downlevel.obj
 0002:00007320       ??_C@_1M@IFGBIJO@?$AAl?$AAt?$AA?9?$AAL?$AAT@ 0000000180050320     libucrt:lcidtoname_downlevel.obj
 0002:00007330       ??_C@_1M@FGEAHEDM@?$AAf?$AAa?$AA?9?$AAI?$AAR@ 0000000180050330     libucrt:lcidtoname_downlevel.obj
 0002:00007340       ??_C@_1M@KBMAIBFN@?$AAv?$AAi?$AA?9?$AAV?$AAN@ 0000000180050340     libucrt:lcidtoname_downlevel.obj
 0002:00007350       ??_C@_1M@GPCBKDJK@?$AAh?$AAy?$AA?9?$AAA?$AAM@ 0000000180050350     libucrt:lcidtoname_downlevel.obj
 0002:00007360       ??_C@_1BG@BECMDDJB@?$AAa?$AAz?$AA?9?$AAA?$AAZ?$AA?9?$AAL?$AAa?$AAt?$AAn@ 0000000180050360     libucrt:lcidtoname_downlevel.obj
 0002:00007378       ??_C@_1M@MAOFCAEA@?$AAe?$AAu?$AA?9?$AAE?$AAS@ 0000000180050378     libucrt:lcidtoname_downlevel.obj
 0002:00007388       ??_C@_1M@IGHABKPI@?$AAm?$AAk?$AA?9?$AAM?$AAK@ 0000000180050388     libucrt:lcidtoname_downlevel.obj
 0002:00007398       ??_C@_1M@IAIGNEJG@?$AAt?$AAn?$AA?9?$AAZ?$AAA@ 0000000180050398     libucrt:lcidtoname_downlevel.obj
 0002:000073a8       ??_C@_1M@IIJCOJFA@?$AAx?$AAh?$AA?9?$AAZ?$AAA@ 00000001800503a8     libucrt:lcidtoname_downlevel.obj
 0002:000073b8       ??_C@_1M@LGPJHNJH@?$AAz?$AAu?$AA?9?$AAZ?$AAA@ 00000001800503b8     libucrt:lcidtoname_downlevel.obj
 0002:000073c8       ??_C@_1M@HOKAOIO@?$AAa?$AAf?$AA?9?$AAZ?$AAA@ 00000001800503c8     libucrt:lcidtoname_downlevel.obj
 0002:000073d8       ??_C@_1M@DPCLHLIE@?$AAk?$AAa?$AA?9?$AAG?$AAE@ 00000001800503d8     libucrt:lcidtoname_downlevel.obj
 0002:000073e8       ??_C@_1M@BLKMHJBI@?$AAf?$AAo?$AA?9?$AAF?$AAO@ 00000001800503e8     libucrt:lcidtoname_downlevel.obj
 0002:000073f8       ??_C@_1M@LGGJAPPB@?$AAh?$AAi?$AA?9?$AAI?$AAN@ 00000001800503f8     libucrt:lcidtoname_downlevel.obj
 0002:00007408       ??_C@_1M@FIKPIHFE@?$AAm?$AAt?$AA?9?$AAM?$AAT@ 0000000180050408     libucrt:lcidtoname_downlevel.obj
 0002:00007418       ??_C@_1M@HEGGPBFA@?$AAs?$AAe?$AA?9?$AAN?$AAO@ 0000000180050418     libucrt:lcidtoname_downlevel.obj
 0002:00007428       ??_C@_1M@EIBJEEPA@?$AAm?$AAs?$AA?9?$AAM?$AAY@ 0000000180050428     libucrt:lcidtoname_downlevel.obj
 0002:00007438       ??_C@_1M@FHLBGMPP@?$AAk?$AAk?$AA?9?$AAK?$AAZ@ 0000000180050438     libucrt:lcidtoname_downlevel.obj
 0002:00007448       ??_C@_1M@NGJJLCGI@?$AAk?$AAy?$AA?9?$AAK?$AAG@ 0000000180050448     libucrt:lcidtoname_downlevel.obj
 0002:00007458       ??_C@_1M@GIENNBFC@?$AAs?$AAw?$AA?9?$AAK?$AAE@ 0000000180050458     libucrt:lcidtoname_downlevel.obj
 0002:00007468       ??_C@_1BG@NDGMJIMJ@?$AAu?$AAz?$AA?9?$AAU?$AAZ?$AA?9?$AAL?$AAa?$AAt?$AAn@ 0000000180050468     libucrt:lcidtoname_downlevel.obj
 0002:00007480       ??_C@_1M@IDCCIHBC@?$AAt?$AAt?$AA?9?$AAR?$AAU@ 0000000180050480     libucrt:lcidtoname_downlevel.obj
 0002:00007490       ??_C@_1M@LOICPMOJ@?$AAb?$AAn?$AA?9?$AAI?$AAN@ 0000000180050490     libucrt:lcidtoname_downlevel.obj
 0002:000074a0       ??_C@_1M@KPKKNEAH@?$AAp?$AAa?$AA?9?$AAI?$AAN@ 00000001800504a0     libucrt:lcidtoname_downlevel.obj
 0002:000074b0       ??_C@_1M@PJGPPBOG@?$AAg?$AAu?$AA?9?$AAI?$AAN@ 00000001800504b0     libucrt:lcidtoname_downlevel.obj
 0002:000074c0       ??_C@_1M@KMKMOPHI@?$AAt?$AAa?$AA?9?$AAI?$AAN@ 00000001800504c0     libucrt:lcidtoname_downlevel.obj
 0002:000074d0       ??_C@_1M@KFEHEPAC@?$AAt?$AAe?$AA?9?$AAI?$AAN@ 00000001800504d0     libucrt:lcidtoname_downlevel.obj
 0002:000074e0       ??_C@_1M@CDCLMGHI@?$AAk?$AAn?$AA?9?$AAI?$AAN@ 00000001800504e0     libucrt:lcidtoname_downlevel.obj
 0002:000074f0       ??_C@_1M@MIODLDKF@?$AAm?$AAl?$AA?9?$AAI?$AAN@ 00000001800504f0     libucrt:lcidtoname_downlevel.obj
 0002:00007500       ??_C@_1M@PBIEACPO@?$AAm?$AAr?$AA?9?$AAI?$AAN@ 0000000180050500     libucrt:lcidtoname_downlevel.obj
 0002:00007510       ??_C@_1M@NIDEAGPH@?$AAs?$AAa?$AA?9?$AAI?$AAN@ 0000000180050510     libucrt:lcidtoname_downlevel.obj
 0002:00007520       ??_C@_1M@FHIHCBIO@?$AAm?$AAn?$AA?9?$AAM?$AAN@ 0000000180050520     libucrt:lcidtoname_downlevel.obj
 0002:00007530       ??_C@_1M@JAIJPENP@?$AAc?$AAy?$AA?9?$AAG?$AAB@ 0000000180050530     libucrt:lcidtoname_downlevel.obj
 0002:00007540       ??_C@_1M@PHGFBEPN@?$AAg?$AAl?$AA?9?$AAE?$AAS@ 0000000180050540     libucrt:lcidtoname_downlevel.obj
 0002:00007550       ??_C@_1O@KPIPDNCP@?$AAk?$AAo?$AAk?$AA?9?$AAI?$AAN@ 0000000180050550     libucrt:lcidtoname_downlevel.obj
 0002:00007560       ??_C@_1O@KNHJLDJA@?$AAs?$AAy?$AAr?$AA?9?$AAS?$AAY@ 0000000180050560     libucrt:lcidtoname_downlevel.obj
 0002:00007570       ??_C@_1O@MKEKBLAH@?$AAd?$AAi?$AAv?$AA?9?$AAM?$AAV@ 0000000180050570     libucrt:lcidtoname_downlevel.obj
 0002:00007580       ??_C@_1O@OHDCKDDF@?$AAq?$AAu?$AAz?$AA?9?$AAB?$AAO@ 0000000180050580     libucrt:lcidtoname_downlevel.obj
 0002:00007590       ??_C@_1M@LEPJNLFD@?$AAn?$AAs?$AA?9?$AAZ?$AAA@ 0000000180050590     libucrt:lcidtoname_downlevel.obj
 0002:000075a0       ??_C@_1M@OMLEIIJB@?$AAm?$AAi?$AA?9?$AAN?$AAZ@ 00000001800505a0     libucrt:lcidtoname_downlevel.obj
 0002:000075b0       ??_C@_1M@PMPEAILG@?$AAa?$AAr?$AA?9?$AAI?$AAQ@ 00000001800505b0     libucrt:lcidtoname_downlevel.obj
 0002:000075c0       ??_C@_1M@CNKPNOEE@?$AAd?$AAe?$AA?9?$AAC?$AAH@ 00000001800505c0     libucrt:lcidtoname_downlevel.obj
 0002:000075d0       ??_C@_1M@LKMGMLKO@?$AAe?$AAn?$AA?9?$AAG?$AAB@ 00000001800505d0     libucrt:lcidtoname_downlevel.obj
 0002:000075e0       ??_C@_1M@PGKJFFGL@?$AAe?$AAs?$AA?9?$AAM?$AAX@ 00000001800505e0     libucrt:lcidtoname_downlevel.obj
 0002:000075f0       ??_C@_1M@DNNANBDC@?$AAf?$AAr?$AA?9?$AAB?$AAE@ 00000001800505f0     libucrt:lcidtoname_downlevel.obj
 0002:00007600       ??_C@_1M@HLGMDFHM@?$AAi?$AAt?$AA?9?$AAC?$AAH@ 0000000180050600     libucrt:lcidtoname_downlevel.obj
 0002:00007610       ??_C@_1M@CLLBGJH@?$AAn?$AAl?$AA?9?$AAB?$AAE@ 0000000180050610     libucrt:lcidtoname_downlevel.obj
 0002:00007620       ??_C@_1M@BODBOGLF@?$AAn?$AAn?$AA?9?$AAN?$AAO@ 0000000180050620     libucrt:lcidtoname_downlevel.obj
 0002:00007630       ??_C@_1M@HFFAHKAD@?$AAp?$AAt?$AA?9?$AAP?$AAT@ 0000000180050630     libucrt:lcidtoname_downlevel.obj
 0002:00007640       ??_C@_1BG@LNOAKHIE@?$AAs?$AAr?$AA?9?$AAS?$AAP?$AA?9?$AAL?$AAa?$AAt?$AAn@ 0000000180050640     libucrt:lcidtoname_downlevel.obj
 0002:00007658       ??_C@_1M@HBMHBGAK@?$AAs?$AAv?$AA?9?$AAF?$AAI@ 0000000180050658     libucrt:lcidtoname_downlevel.obj
 0002:00007668       ??_C@_1BG@DGCJGJBE@?$AAa?$AAz?$AA?9?$AAA?$AAZ?$AA?9?$AAC?$AAy?$AAr?$AAl@ 0000000180050668     libucrt:lcidtoname_downlevel.obj
 0002:00007680       ??_C@_1M@KEJDAAHB@?$AAs?$AAe?$AA?9?$AAS?$AAE@ 0000000180050680     libucrt:lcidtoname_downlevel.obj
 0002:00007690       ??_C@_1M@HEIBJJAD@?$AAm?$AAs?$AA?9?$AAB?$AAN@ 0000000180050690     libucrt:lcidtoname_downlevel.obj
 0002:000076a0       ??_C@_1BG@PBGJMCEM@?$AAu?$AAz?$AA?9?$AAU?$AAZ?$AA?9?$AAC?$AAy?$AAr?$AAl@ 00000001800506a0     libucrt:lcidtoname_downlevel.obj
 0002:000076b8       ??_C@_1O@LAOBCMDF@?$AAq?$AAu?$AAz?$AA?9?$AAE?$AAC@ 00000001800506b8     libucrt:lcidtoname_downlevel.obj
 0002:000076c8       ??_C@_1M@POEEMAIO@?$AAa?$AAr?$AA?9?$AAE?$AAG@ 00000001800506c8     libucrt:lcidtoname_downlevel.obj
 0002:000076d8       ??_C@_1M@EFAKDEDL@?$AAz?$AAh?$AA?9?$AAH?$AAK@ 00000001800506d8     libucrt:lcidtoname_downlevel.obj
 0002:000076e8       ??_C@_1M@HKKIJHGI@?$AAd?$AAe?$AA?9?$AAA?$AAT@ 00000001800506e8     libucrt:lcidtoname_downlevel.obj
 0002:000076f8       ??_C@_1M@KBFBEHJF@?$AAe?$AAn?$AA?9?$AAA?$AAU@ 00000001800506f8     libucrt:lcidtoname_downlevel.obj
 0002:00007708       ??_C@_1M@MNPLFAAH@?$AAe?$AAs?$AA?9?$AAE?$AAS@ 0000000180050708     libucrt:lcidtoname_downlevel.obj
 0002:00007718       ??_C@_1M@HJOOJFMA@?$AAf?$AAr?$AA?9?$AAC?$AAA@ 0000000180050718     libucrt:lcidtoname_downlevel.obj
 0002:00007728       ??_C@_1BG@JPOFPNAB@?$AAs?$AAr?$AA?9?$AAS?$AAP?$AA?9?$AAC?$AAy?$AAr?$AAl@ 0000000180050728     libucrt:lcidtoname_downlevel.obj
 0002:00007740       ??_C@_1M@LNFOCMOB@?$AAs?$AAe?$AA?9?$AAF?$AAI@ 0000000180050740     libucrt:lcidtoname_downlevel.obj
 0002:00007750       ??_C@_1O@MGJBOAMB@?$AAq?$AAu?$AAz?$AA?9?$AAP?$AAE@ 0000000180050750     libucrt:lcidtoname_downlevel.obj
 0002:00007760       ??_C@_1M@GJINLBOK@?$AAa?$AAr?$AA?9?$AAL?$AAY@ 0000000180050760     libucrt:lcidtoname_downlevel.obj
 0002:00007770       ??_C@_1M@GGMNHJNL@?$AAz?$AAh?$AA?9?$AAS?$AAG@ 0000000180050770     libucrt:lcidtoname_downlevel.obj
 0002:00007780       ??_C@_1M@HOIKODND@?$AAd?$AAe?$AA?9?$AAL?$AAU@ 0000000180050780     libucrt:lcidtoname_downlevel.obj
 0002:00007790       ??_C@_1M@DDOCCGFG@?$AAe?$AAn?$AA?9?$AAC?$AAA@ 0000000180050790     libucrt:lcidtoname_downlevel.obj
 0002:000077a0       ??_C@_1M@BNOEMJLF@?$AAe?$AAs?$AA?9?$AAG?$AAT@ 00000001800507a0     libucrt:lcidtoname_downlevel.obj
 0002:000077b0       ??_C@_1M@EOGNKEK@?$AAf?$AAr?$AA?9?$AAC?$AAH@ 00000001800507b0     libucrt:lcidtoname_downlevel.obj
 0002:000077c0       ??_C@_1M@FLIDJFHL@?$AAh?$AAr?$AA?9?$AAB?$AAA@ 00000001800507c0     libucrt:lcidtoname_downlevel.obj
 0002:000077d0       ??_C@_1O@FMCELNAJ@?$AAs?$AAm?$AAj?$AA?9?$AAN?$AAO@ 00000001800507d0     libucrt:lcidtoname_downlevel.obj
 0002:000077e0       ??_C@_1M@JHGLJMGJ@?$AAa?$AAr?$AA?9?$AAD?$AAZ@ 00000001800507e0     libucrt:lcidtoname_downlevel.obj
 0002:000077f0       ??_C@_1M@JKKFDCNP@?$AAz?$AAh?$AA?9?$AAM?$AAO@ 00000001800507f0     libucrt:lcidtoname_downlevel.obj
 0002:00007800       ??_C@_1M@GEEFALPE@?$AAd?$AAe?$AA?9?$AAL?$AAI@ 0000000180050800     libucrt:lcidtoname_downlevel.obj
 0002:00007810       ??_C@_1M@IGEOFBG@?$AAe?$AAn?$AA?9?$AAN?$AAZ@ 0000000180050810     libucrt:lcidtoname_downlevel.obj
 0002:00007820       ??_C@_1M@KDBONEHP@?$AAe?$AAs?$AA?9?$AAC?$AAR@ 0000000180050820     libucrt:lcidtoname_downlevel.obj
 0002:00007830       ??_C@_1M@FHMDOHNN@?$AAf?$AAr?$AA?9?$AAL?$AAU@ 0000000180050830     libucrt:lcidtoname_downlevel.obj
 0002:00007840       ??_C@_1BG@NFKKMAFG@?$AAb?$AAs?$AA?9?$AAB?$AAA?$AA?9?$AAL?$AAa?$AAt?$AAn@ 0000000180050840     libucrt:lcidtoname_downlevel.obj
 0002:00007858       ??_C@_1O@IMNBEMCI@?$AAs?$AAm?$AAj?$AA?9?$AAS?$AAE@ 0000000180050858     libucrt:lcidtoname_downlevel.obj
 0002:00007868       ??_C@_1M@DHHMBNDP@?$AAa?$AAr?$AA?9?$AAM?$AAA@ 0000000180050868     libucrt:lcidtoname_downlevel.obj
 0002:00007878       ??_C@_1M@BNBLJCGH@?$AAe?$AAn?$AA?9?$AAI?$AAE@ 0000000180050878     libucrt:lcidtoname_downlevel.obj
 0002:00007888       ??_C@_1M@GEPAFMDL@?$AAe?$AAs?$AA?9?$AAP?$AAA@ 0000000180050888     libucrt:lcidtoname_downlevel.obj
 0002:00007898       ??_C@_1M@OJONDMDL@?$AAf?$AAr?$AA?9?$AAM?$AAC@ 0000000180050898     libucrt:lcidtoname_downlevel.obj
 0002:000078a8       ??_C@_1BG@OBCNFJB@?$AAs?$AAr?$AA?9?$AAB?$AAA?$AA?9?$AAL?$AAa?$AAt?$AAn@ 00000001800508a8     libucrt:lcidtoname_downlevel.obj
 0002:000078c0       ??_C@_1O@KEMEEGPO@?$AAs?$AAm?$AAa?$AA?9?$AAN?$AAO@ 00000001800508c0     libucrt:lcidtoname_downlevel.obj
 0002:000078d0       ??_C@_1M@ELMGFODK@?$AAa?$AAr?$AA?9?$AAT?$AAN@ 00000001800508d0     libucrt:lcidtoname_downlevel.obj
 0002:000078e0       ??_C@_1M@BHDLHFAF@?$AAe?$AAn?$AA?9?$AAZ?$AAA@ 00000001800508e0     libucrt:lcidtoname_downlevel.obj
 0002:000078f0       ??_C@_1M@BMGIGLIF@?$AAe?$AAs?$AA?9?$AAD?$AAO@ 00000001800508f0     libucrt:lcidtoname_downlevel.obj
 0002:00007900       ??_C@_1BG@CMBHIPBE@?$AAs?$AAr?$AA?9?$AAB?$AAA?$AA?9?$AAC?$AAy?$AAr?$AAl@ 0000000180050900     libucrt:lcidtoname_downlevel.obj
 0002:00007918       ??_C@_1O@HEDBLHNP@?$AAs?$AAm?$AAa?$AA?9?$AAS?$AAE@ 0000000180050918     libucrt:lcidtoname_downlevel.obj
 0002:00007928       ??_C@_1M@DAGCADIM@?$AAa?$AAr?$AA?9?$AAO?$AAM@ 0000000180050928     libucrt:lcidtoname_downlevel.obj
 0002:00007938       ??_C@_1M@FODLMICG@?$AAe?$AAn?$AA?9?$AAJ?$AAM@ 0000000180050938     libucrt:lcidtoname_downlevel.obj
 0002:00007948       ??_C@_1M@DNMLCIHB@?$AAe?$AAs?$AA?9?$AAV?$AAE@ 0000000180050948     libucrt:lcidtoname_downlevel.obj
 0002:00007958       ??_C@_1O@EOKHMKJK@?$AAs?$AAm?$AAs?$AA?9?$AAF?$AAI@ 0000000180050958     libucrt:lcidtoname_downlevel.obj
 0002:00007968       ??_C@_1M@CAFJMKOF@?$AAa?$AAr?$AA?9?$AAY?$AAE@ 0000000180050968     libucrt:lcidtoname_downlevel.obj
 0002:00007978       ??_C@_1M@CBFHIJLI@?$AAe?$AAn?$AA?9?$AAC?$AAB@ 0000000180050978     libucrt:lcidtoname_downlevel.obj
 0002:00007988       ??_C@_1M@BGNFLDN@?$AAe?$AAs?$AA?9?$AAC?$AAO@ 0000000180050988     libucrt:lcidtoname_downlevel.obj
 0002:00007998       ??_C@_1O@JMPHMAMC@?$AAs?$AAm?$AAn?$AA?9?$AAF?$AAI@ 0000000180050998     libucrt:lcidtoname_downlevel.obj
 0002:000079a8       ??_C@_1M@JLANABKE@?$AAa?$AAr?$AA?9?$AAS?$AAY@ 00000001800509a8     libucrt:lcidtoname_downlevel.obj
 0002:000079b8       ??_C@_1M@HPKGCFGN@?$AAe?$AAn?$AA?9?$AAB?$AAZ@ 00000001800509b8     libucrt:lcidtoname_downlevel.obj
 0002:000079c8       ??_C@_1M@OLJCMLGM@?$AAe?$AAs?$AA?9?$AAP?$AAE@ 00000001800509c8     libucrt:lcidtoname_downlevel.obj
 0002:000079d8       ??_C@_1M@MKKGFKLE@?$AAa?$AAr?$AA?9?$AAJ?$AAO@ 00000001800509d8     libucrt:lcidtoname_downlevel.obj
 0002:000079e8       ??_C@_1M@EKPGLDNI@?$AAe?$AAn?$AA?9?$AAT?$AAT@ 00000001800509e8     libucrt:lcidtoname_downlevel.obj
 0002:000079f8       ??_C@_1M@OONGHFHE@?$AAe?$AAs?$AA?9?$AAA?$AAR@ 00000001800509f8     libucrt:lcidtoname_downlevel.obj
 0002:00007a08       ??_C@_1M@OOJFGBHE@?$AAa?$AAr?$AA?9?$AAL?$AAB@ 0000000180050a08     libucrt:lcidtoname_downlevel.obj
 0002:00007a18       ??_C@_1M@GCEJHNEG@?$AAe?$AAn?$AA?9?$AAZ?$AAW@ 0000000180050a18     libucrt:lcidtoname_downlevel.obj
 0002:00007a28       ??_C@_1M@JNOCAHJI@?$AAe?$AAs?$AA?9?$AAE?$AAC@ 0000000180050a28     libucrt:lcidtoname_downlevel.obj
 0002:00007a38       ??_C@_1M@JEFHPGGB@?$AAa?$AAr?$AA?9?$AAK?$AAW@ 0000000180050a38     libucrt:lcidtoname_downlevel.obj
 0002:00007a48       ??_C@_1M@MLKIBJOJ@?$AAe?$AAn?$AA?9?$AAP?$AAH@ 0000000180050a48     libucrt:lcidtoname_downlevel.obj
 0002:00007a58       ??_C@_1M@BDNIPEND@?$AAe?$AAs?$AA?9?$AAC?$AAL@ 0000000180050a58     libucrt:lcidtoname_downlevel.obj
 0002:00007a68       ??_C@_1M@MPNMEKBD@?$AAa?$AAr?$AA?9?$AAA?$AAE@ 0000000180050a68     libucrt:lcidtoname_downlevel.obj
 0002:00007a78       ??_C@_1M@KBJALCPI@?$AAe?$AAs?$AA?9?$AAU?$AAY@ 0000000180050a78     libucrt:lcidtoname_downlevel.obj
 0002:00007a88       ??_C@_1M@LLCCOAGA@?$AAa?$AAr?$AA?9?$AAB?$AAH@ 0000000180050a88     libucrt:lcidtoname_downlevel.obj
 0002:00007a98       ??_C@_1M@PBFNCDEL@?$AAe?$AAs?$AA?9?$AAP?$AAY@ 0000000180050a98     libucrt:lcidtoname_downlevel.obj
 0002:00007aa8       ??_C@_1M@EDGINPNP@?$AAa?$AAr?$AA?9?$AAQ?$AAA@ 0000000180050aa8     libucrt:lcidtoname_downlevel.obj
 0002:00007ab8       ??_C@_1M@MKDBIIJI@?$AAe?$AAs?$AA?9?$AAB?$AAO@ 0000000180050ab8     libucrt:lcidtoname_downlevel.obj
 0002:00007ac8       ??_C@_1M@CPKKEBLD@?$AAe?$AAs?$AA?9?$AAS?$AAV@ 0000000180050ac8     libucrt:lcidtoname_downlevel.obj
 0002:00007ad8       ??_C@_1M@NDBGMMJL@?$AAe?$AAs?$AA?9?$AAH?$AAN@ 0000000180050ad8     libucrt:lcidtoname_downlevel.obj
 0002:00007ae8       ??_C@_1M@JIJIBHDP@?$AAe?$AAs?$AA?9?$AAN?$AAI@ 0000000180050ae8     libucrt:lcidtoname_downlevel.obj
 0002:00007af8       ??_C@_1M@CGFMKEEK@?$AAe?$AAs?$AA?9?$AAP?$AAR@ 0000000180050af8     libucrt:lcidtoname_downlevel.obj
 0002:00007b08       ??_C@_1O@ICJHKIIK@?$AAz?$AAh?$AA?9?$AAC?$AAH?$AAT@ 0000000180050b08     libucrt:lcidtoname_downlevel.obj
 0002:00007b18       ??_C@_15CLNEJCE@?$AAs?$AAr@ 0000000180050b18     libucrt:lcidtoname_downlevel.obj
 0002:00008960       ??_C@_1M@KAHEKEIG@?$AAa?$AAf?$AA?9?$AAz?$AAa@ 0000000180051960     libucrt:lcidtoname_downlevel.obj
 0002:00008970       ??_C@_1M@GIECOABL@?$AAa?$AAr?$AA?9?$AAa?$AAe@ 0000000180051970     libucrt:lcidtoname_downlevel.obj
 0002:00008980       ??_C@_1M@BMLMEKGI@?$AAa?$AAr?$AA?9?$AAb?$AAh@ 0000000180051980     libucrt:lcidtoname_downlevel.obj
 0002:00008990       ??_C@_1M@DAPFDGGB@?$AAa?$AAr?$AA?9?$AAd?$AAz@ 0000000180051990     libucrt:lcidtoname_downlevel.obj
 0002:000089a0       ??_C@_1M@FJNKGKIG@?$AAa?$AAr?$AA?9?$AAe?$AAg@ 00000001800519a0     libucrt:lcidtoname_downlevel.obj
 0002:000089b0       ??_C@_1M@FLGKKCLO@?$AAa?$AAr?$AA?9?$AAi?$AAq@ 00000001800519b0     libucrt:lcidtoname_downlevel.obj
 0002:000089c0       ??_C@_1M@GNDIPALM@?$AAa?$AAr?$AA?9?$AAj?$AAo@ 00000001800519c0     libucrt:lcidtoname_downlevel.obj
 0002:000089d0       ??_C@_1M@DDMJFMGJ@?$AAa?$AAr?$AA?9?$AAk?$AAw@ 00000001800519d0     libucrt:lcidtoname_downlevel.obj
 0002:000089e0       ??_C@_1M@EJALMLHM@?$AAa?$AAr?$AA?9?$AAl?$AAb@ 00000001800519e0     libucrt:lcidtoname_downlevel.obj
 0002:000089f0       ??_C@_1M@MOBDBLOC@?$AAa?$AAr?$AA?9?$AAl?$AAy@ 00000001800519f0     libucrt:lcidtoname_downlevel.obj
 0002:00008a00       ??_C@_1M@JAOCLHDH@?$AAa?$AAr?$AA?9?$AAm?$AAa@ 0000000180051a00     libucrt:lcidtoname_downlevel.obj
 0002:00008a10       ??_C@_1M@JHPMKJIE@?$AAa?$AAr?$AA?9?$AAo?$AAm@ 0000000180051a10     libucrt:lcidtoname_downlevel.obj
 0002:00008a20       ??_C@_1M@OEPGHFNH@?$AAa?$AAr?$AA?9?$AAq?$AAa@ 0000000180051a20     libucrt:lcidtoname_downlevel.obj
 0002:00008a30       ??_C@_1M@KJDONENM@?$AAa?$AAr?$AA?9?$AAs?$AAa@ 0000000180051a30     libucrt:lcidtoname_downlevel.obj
 0002:00008a40       ??_C@_1M@DMJDKLKM@?$AAa?$AAr?$AA?9?$AAs?$AAy@ 0000000180051a40     libucrt:lcidtoname_downlevel.obj
 0002:00008a50       ??_C@_1M@OMFIPEDC@?$AAa?$AAr?$AA?9?$AAt?$AAn@ 0000000180051a50     libucrt:lcidtoname_downlevel.obj
 0002:00008a60       ??_C@_1M@IHMHGAON@?$AAa?$AAr?$AA?9?$AAy?$AAe@ 0000000180051a60     libucrt:lcidtoname_downlevel.obj
 0002:00008a70       ??_C@_1BG@KDCPGJGB@?$AAa?$AAz?$AA?9?$AAa?$AAz?$AA?9?$AAc?$AAy?$AAr?$AAl@ 0000000180051a70     libucrt:lcidtoname_downlevel.obj
 0002:00008a88       ??_C@_1BG@IBCKDDOE@?$AAa?$AAz?$AA?9?$AAa?$AAz?$AA?9?$AAl?$AAa?$AAt?$AAn@ 0000000180051a88     libucrt:lcidtoname_downlevel.obj
 0002:00008aa0       ??_C@_1M@EGPFDCPD@?$AAb?$AAe?$AA?9?$AAb?$AAy@ 0000000180051aa0     libucrt:lcidtoname_downlevel.obj
 0002:00008ab0       ??_C@_1M@PCMGMCGC@?$AAb?$AAg?$AA?9?$AAb?$AAg@ 0000000180051ab0     libucrt:lcidtoname_downlevel.obj
 0002:00008ac0       ??_C@_1M@BJBMFGOB@?$AAb?$AAn?$AA?9?$AAi?$AAn@ 0000000180051ac0     libucrt:lcidtoname_downlevel.obj
 0002:00008ad0       ??_C@_1BG@EAKMMACD@?$AAb?$AAs?$AA?9?$AAb?$AAa?$AA?9?$AAl?$AAa?$AAt?$AAn@ 0000000180051ad0     libucrt:lcidtoname_downlevel.obj
 0002:00008ae8       ??_C@_1M@KGADAODK@?$AAc?$AAa?$AA?9?$AAe?$AAs@ 0000000180051ae8     libucrt:lcidtoname_downlevel.obj
 0002:00008af8       ??_C@_1M@COAJPDHI@?$AAc?$AAs?$AA?9?$AAc?$AAz@ 0000000180051af8     libucrt:lcidtoname_downlevel.obj
 0002:00008b08       ??_C@_1M@DHBHFONH@?$AAc?$AAy?$AA?9?$AAg?$AAb@ 0000000180051b08     libucrt:lcidtoname_downlevel.obj
 0002:00008b18       ??_C@_1M@IMGKELGA@?$AAd?$AAa?$AA?9?$AAd?$AAk@ 0000000180051b18     libucrt:lcidtoname_downlevel.obj
 0002:00008b28       ??_C@_1M@NNDGDNGA@?$AAd?$AAe?$AA?9?$AAa?$AAt@ 0000000180051b28     libucrt:lcidtoname_downlevel.obj
 0002:00008b38       ??_C@_1M@IKDBHEEM@?$AAd?$AAe?$AA?9?$AAc?$AAh@ 0000000180051b38     libucrt:lcidtoname_downlevel.obj
 0002:00008b48       ??_C@_1M@GFFOJMCJ@?$AAd?$AAe?$AA?9?$AAd?$AAe@ 0000000180051b48     libucrt:lcidtoname_downlevel.obj
 0002:00008b58       ??_C@_1M@MDNLKBPM@?$AAd?$AAe?$AA?9?$AAl?$AAi@ 0000000180051b58     libucrt:lcidtoname_downlevel.obj
 0002:00008b68       ??_C@_1M@NJBEEJNL@?$AAd?$AAe?$AA?9?$AAl?$AAu@ 0000000180051b68     libucrt:lcidtoname_downlevel.obj
 0002:00008b78       ??_C@_1O@GNNELBAP@?$AAd?$AAi?$AAv?$AA?9?$AAm?$AAv@ 0000000180051b78     libucrt:lcidtoname_downlevel.obj
 0002:00008b88       ??_C@_1M@EJLEOGAE@?$AAe?$AAl?$AA?9?$AAg?$AAr@ 0000000180051b88     libucrt:lcidtoname_downlevel.obj
 0002:00008b98       ??_C@_1M@GMPONJN@?$AAe?$AAn?$AA?9?$AAa?$AAu@ 0000000180051b98     libucrt:lcidtoname_downlevel.obj
 0002:00008ba8       ??_C@_1M@NIDIIPGF@?$AAe?$AAn?$AA?9?$AAb?$AAz@ 0000000180051ba8     libucrt:lcidtoname_downlevel.obj
 0002:00008bb8       ??_C@_1M@JEHMIMFO@?$AAe?$AAn?$AA?9?$AAc?$AAa@ 0000000180051bb8     libucrt:lcidtoname_downlevel.obj
 0002:00008bc8       ??_C@_1M@IGMJCDLA@?$AAe?$AAn?$AA?9?$AAc?$AAb@ 0000000180051bc8     libucrt:lcidtoname_downlevel.obj
 0002:00008bd8       ??_C@_1M@BNFIGBKG@?$AAe?$AAn?$AA?9?$AAg?$AAb@ 0000000180051bd8     libucrt:lcidtoname_downlevel.obj
 0002:00008be8       ??_C@_1M@LKIFDIGP@?$AAe?$AAn?$AA?9?$AAi?$AAe@ 0000000180051be8     libucrt:lcidtoname_downlevel.obj
 0002:00008bf8       ??_C@_1M@PJKFGCCO@?$AAe?$AAn?$AA?9?$AAj?$AAm@ 0000000180051bf8     libucrt:lcidtoname_downlevel.obj
 0002:00008c08       ??_C@_1M@KPPKEPBO@?$AAe?$AAn?$AA?9?$AAn?$AAz@ 0000000180051c08     libucrt:lcidtoname_downlevel.obj
 0002:00008c18       ??_C@_1M@GMDGLDOB@?$AAe?$AAn?$AA?9?$AAp?$AAh@ 0000000180051c18     libucrt:lcidtoname_downlevel.obj
 0002:00008c28       ??_C@_1M@ONGIBJNA@?$AAe?$AAn?$AA?9?$AAt?$AAt@ 0000000180051c28     libucrt:lcidtoname_downlevel.obj
 0002:00008c38       ??_C@_1M@LLODPCMM@?$AAe?$AAn?$AA?9?$AAu?$AAs@ 0000000180051c38     libucrt:lcidtoname_downlevel.obj
 0002:00008c48       ??_C@_1M@LAKFNPAN@?$AAe?$AAn?$AA?9?$AAz?$AAa@ 0000000180051c48     libucrt:lcidtoname_downlevel.obj
 0002:00008c58       ??_C@_1M@MFNHNHEO@?$AAe?$AAn?$AA?9?$AAz?$AAw@ 0000000180051c58     libucrt:lcidtoname_downlevel.obj
 0002:00008c68       ??_C@_1M@EJEINPHM@?$AAe?$AAs?$AA?9?$AAa?$AAr@ 0000000180051c68     libucrt:lcidtoname_downlevel.obj
 0002:00008c78       ??_C@_1M@GNKPCCJA@?$AAe?$AAs?$AA?9?$AAb?$AAo@ 0000000180051c78     libucrt:lcidtoname_downlevel.obj
 0002:00008c88       ??_C@_1M@LEEGFONL@?$AAe?$AAs?$AA?9?$AAc?$AAl@ 0000000180051c88     libucrt:lcidtoname_downlevel.obj
 0002:00008c98       ??_C@_1M@KGPDPBDF@?$AAe?$AAs?$AA?9?$AAc?$AAo@ 0000000180051c98     libucrt:lcidtoname_downlevel.obj
 0002:00008ca8       ??_C@_1M@EIAHOHH@?$AAe?$AAs?$AA?9?$AAc?$AAr@ 0000000180051ca8     libucrt:lcidtoname_downlevel.obj
 0002:00008cb8       ??_C@_1M@LLPGMBIN@?$AAe?$AAs?$AA?9?$AAd?$AAo@ 0000000180051cb8     libucrt:lcidtoname_downlevel.obj
 0002:00008cc8       ??_C@_1M@DKHMKNJA@?$AAe?$AAs?$AA?9?$AAe?$AAc@ 0000000180051cc8     libucrt:lcidtoname_downlevel.obj
 0002:00008cd8       ??_C@_1M@GKGFPKAP@?$AAe?$AAs?$AA?9?$AAe?$AAs@ 0000000180051cd8     libucrt:lcidtoname_downlevel.obj
 0002:00008ce8       ??_C@_1M@LKHKGDLN@?$AAe?$AAs?$AA?9?$AAg?$AAt@ 0000000180051ce8     libucrt:lcidtoname_downlevel.obj
 0002:00008cf8       ??_C@_1M@HEIIGGJD@?$AAe?$AAs?$AA?9?$AAh?$AAn@ 0000000180051cf8     libucrt:lcidtoname_downlevel.obj
 0002:00008d08       ??_C@_1M@FBDHPPGD@?$AAe?$AAs?$AA?9?$AAm?$AAx@ 0000000180051d08     libucrt:lcidtoname_downlevel.obj
 0002:00008d18       ??_C@_1M@DPAGLNDH@?$AAe?$AAs?$AA?9?$AAn?$AAi@ 0000000180051d18     libucrt:lcidtoname_downlevel.obj
 0002:00008d28       ??_C@_1M@MDGOPGDD@?$AAe?$AAs?$AA?9?$AAp?$AAa@ 0000000180051d28     libucrt:lcidtoname_downlevel.obj
 0002:00008d38       ??_C@_1M@EMAMGBGE@?$AAe?$AAs?$AA?9?$AAp?$AAe@ 0000000180051d38     libucrt:lcidtoname_downlevel.obj
 0002:00008d48       ??_C@_1M@IBMCAOEC@?$AAe?$AAs?$AA?9?$AAp?$AAr@ 0000000180051d48     libucrt:lcidtoname_downlevel.obj
 0002:00008d58       ??_C@_1M@FGMDIJED@?$AAe?$AAs?$AA?9?$AAp?$AAy@ 0000000180051d58     libucrt:lcidtoname_downlevel.obj
 0002:00008d68       ??_C@_1M@IIDEOLLL@?$AAe?$AAs?$AA?9?$AAs?$AAv@ 0000000180051d68     libucrt:lcidtoname_downlevel.obj
 0002:00008d78       ??_C@_1M@GAOBIPA@?$AAe?$AAs?$AA?9?$AAu?$AAy@ 0000000180051d78     libucrt:lcidtoname_downlevel.obj
 0002:00008d88       ??_C@_1M@JKFFICHJ@?$AAe?$AAs?$AA?9?$AAv?$AAe@ 0000000180051d88     libucrt:lcidtoname_downlevel.obj
 0002:00008d98       ??_C@_1M@PNMLOJDF@?$AAe?$AAt?$AA?9?$AAe?$AAe@ 0000000180051d98     libucrt:lcidtoname_downlevel.obj
 0002:00008da8       ??_C@_1M@GHHLIKEI@?$AAe?$AAu?$AA?9?$AAe?$AAs@ 0000000180051da8     libucrt:lcidtoname_downlevel.obj
 0002:00008db8       ??_C@_1M@PBNONODE@?$AAf?$AAa?$AA?9?$AAi?$AAr@ 0000000180051db8     libucrt:lcidtoname_downlevel.obj
 0002:00008dc8       ??_C@_1M@JEEHPMIL@?$AAf?$AAi?$AA?9?$AAf?$AAi@ 0000000180051dc8     libucrt:lcidtoname_downlevel.obj
 0002:00008dd8       ??_C@_1M@LMDCNDBA@?$AAf?$AAo?$AA?9?$AAf?$AAo@ 0000000180051dd8     libucrt:lcidtoname_downlevel.obj
 0002:00008de8       ??_C@_1M@JKEOHLDK@?$AAf?$AAr?$AA?9?$AAb?$AAe@ 0000000180051de8     libucrt:lcidtoname_downlevel.obj
 0002:00008df8       ??_C@_1M@NOHADPMI@?$AAf?$AAr?$AA?9?$AAc?$AAa@ 0000000180051df8     libucrt:lcidtoname_downlevel.obj
 0002:00008e08       ??_C@_1M@KDHIHAEC@?$AAf?$AAr?$AA?9?$AAc?$AAh@ 0000000180051e08     libucrt:lcidtoname_downlevel.obj
 0002:00008e18       ??_C@_1M@MMBBFGAK@?$AAf?$AAr?$AA?9?$AAf?$AAr@ 0000000180051e18     libucrt:lcidtoname_downlevel.obj
 0002:00008e28       ??_C@_1M@PAFNENNF@?$AAf?$AAr?$AA?9?$AAl?$AAu@ 0000000180051e28     libucrt:lcidtoname_downlevel.obj
 0002:00008e38       ??_C@_1M@EOHDJGDD@?$AAf?$AAr?$AA?9?$AAm?$AAc@ 0000000180051e38     libucrt:lcidtoname_downlevel.obj
 0002:00008e48       ??_C@_1M@FAPLLOPF@?$AAg?$AAl?$AA?9?$AAe?$AAs@ 0000000180051e48     libucrt:lcidtoname_downlevel.obj
 0002:00008e58       ??_C@_1M@FOPBFLOO@?$AAg?$AAu?$AA?9?$AAi?$AAn@ 0000000180051e58     libucrt:lcidtoname_downlevel.obj
 0002:00008e68       ??_C@_1M@KBMCINPM@?$AAh?$AAe?$AA?9?$AAi?$AAl@ 0000000180051e68     libucrt:lcidtoname_downlevel.obj
 0002:00008e78       ??_C@_1M@BBPHKFPJ@?$AAh?$AAi?$AA?9?$AAi?$AAn@ 0000000180051e78     libucrt:lcidtoname_downlevel.obj
 0002:00008e88       ??_C@_1M@PMBNDPHD@?$AAh?$AAr?$AA?9?$AAb?$AAa@ 0000000180051e88     libucrt:lcidtoname_downlevel.obj
 0002:00008e98       ??_C@_1M@BPCKOEGE@?$AAh?$AAr?$AA?9?$AAh?$AAr@ 0000000180051e98     libucrt:lcidtoname_downlevel.obj
 0002:00008ea8       ??_C@_1M@GACBMHKE@?$AAh?$AAu?$AA?9?$AAh?$AAu@ 0000000180051ea8     libucrt:lcidtoname_downlevel.obj
 0002:00008eb8       ??_C@_1M@MILPAJJC@?$AAh?$AAy?$AA?9?$AAa?$AAm@ 0000000180051eb8     libucrt:lcidtoname_downlevel.obj
 0002:00008ec8       ??_C@_1M@BABBICEC@?$AAi?$AAd?$AA?9?$AAi?$AAd@ 0000000180051ec8     libucrt:lcidtoname_downlevel.obj
 0002:00008ed8       ??_C@_1M@BIKNHHPF@?$AAi?$AAs?$AA?9?$AAi?$AAs@ 0000000180051ed8     libucrt:lcidtoname_downlevel.obj
 0002:00008ee8       ??_C@_1M@NMPCJPHE@?$AAi?$AAt?$AA?9?$AAc?$AAh@ 0000000180051ee8     libucrt:lcidtoname_downlevel.obj
 0002:00008ef8       ??_C@_1M@GHKGFEDF@?$AAi?$AAt?$AA?9?$AAi?$AAt@ 0000000180051ef8     libucrt:lcidtoname_downlevel.obj
 0002:00008f08       ??_C@_1M@NIEJCJJA@?$AAj?$AAa?$AA?9?$AAj?$AAp@ 0000000180051f08     libucrt:lcidtoname_downlevel.obj
 0002:00008f18       ??_C@_1M@JILFNBIM@?$AAk?$AAa?$AA?9?$AAg?$AAe@ 0000000180051f18     libucrt:lcidtoname_downlevel.obj
 0002:00008f28       ??_C@_1M@PACPMGPH@?$AAk?$AAk?$AA?9?$AAk?$AAz@ 0000000180051f28     libucrt:lcidtoname_downlevel.obj
 0002:00008f38       ??_C@_1M@IELFGMHA@?$AAk?$AAn?$AA?9?$AAi?$AAn@ 0000000180051f38     libucrt:lcidtoname_downlevel.obj
 0002:00008f48       ??_C@_1O@IBBJHCH@?$AAk?$AAo?$AAk?$AA?9?$AAi?$AAn@ 0000000180051f48     libucrt:lcidtoname_downlevel.obj
 0002:00008f58       ??_C@_1M@DMHAEOGC@?$AAk?$AAo?$AA?9?$AAk?$AAr@ 0000000180051f58     libucrt:lcidtoname_downlevel.obj
 0002:00008f68       ??_C@_1M@HBAHBIGA@?$AAk?$AAy?$AA?9?$AAk?$AAg@ 0000000180051f68     libucrt:lcidtoname_downlevel.obj
 0002:00008f78       ??_C@_1M@KPMILCJG@?$AAl?$AAt?$AA?9?$AAl?$AAt@ 0000000180051f78     libucrt:lcidtoname_downlevel.obj
 0002:00008f88       ??_C@_1M@BDEKKCA@?$AAl?$AAv?$AA?9?$AAl?$AAv@ 0000000180051f88     libucrt:lcidtoname_downlevel.obj
 0002:00008f98       ??_C@_1M@ELCKCCJJ@?$AAm?$AAi?$AA?9?$AAn?$AAz@ 0000000180051f98     libucrt:lcidtoname_downlevel.obj
 0002:00008fa8       ??_C@_1M@CBOOLAPA@?$AAm?$AAk?$AA?9?$AAm?$AAk@ 0000000180051fa8     libucrt:lcidtoname_downlevel.obj
 0002:00008fb8       ??_C@_1M@GPHNBJKN@?$AAm?$AAl?$AA?9?$AAi?$AAn@ 0000000180051fb8     libucrt:lcidtoname_downlevel.obj
 0002:00008fc8       ??_C@_1M@PABJILIG@?$AAm?$AAn?$AA?9?$AAm?$AAn@ 0000000180051fc8     libucrt:lcidtoname_downlevel.obj
 0002:00008fd8       ??_C@_1M@FGBKKIPG@?$AAm?$AAr?$AA?9?$AAi?$AAn@ 0000000180051fd8     libucrt:lcidtoname_downlevel.obj
 0002:00008fe8       ??_C@_1M@NDBPDDAL@?$AAm?$AAs?$AA?9?$AAb?$AAn@ 0000000180051fe8     libucrt:lcidtoname_downlevel.obj
 0002:00008ff8       ??_C@_1M@OPIHOOPI@?$AAm?$AAs?$AA?9?$AAm?$AAy@ 0000000180051ff8     libucrt:lcidtoname_downlevel.obj
 0002:00009008       ??_C@_1M@PPDBCNFM@?$AAm?$AAt?$AA?9?$AAm?$AAt@ 0000000180052008     libucrt:lcidtoname_downlevel.obj
 0002:00009018       ??_C@_1M@KDJDKMDD@?$AAn?$AAb?$AA?9?$AAn?$AAo@ 0000000180052018     libucrt:lcidtoname_downlevel.obj
 0002:00009028       ??_C@_1M@KFCFLMJP@?$AAn?$AAl?$AA?9?$AAb?$AAe@ 0000000180052028     libucrt:lcidtoname_downlevel.obj
 0002:00009038       ??_C@_1M@KPOPDDGO@?$AAn?$AAl?$AA?9?$AAn?$AAl@ 0000000180052038     libucrt:lcidtoname_downlevel.obj
 0002:00009048       ??_C@_1M@LJKPEMLN@?$AAn?$AAn?$AA?9?$AAn?$AAo@ 0000000180052048     libucrt:lcidtoname_downlevel.obj
 0002:00009058       ??_C@_1M@BDGHHBFL@?$AAn?$AAs?$AA?9?$AAz?$AAa@ 0000000180052058     libucrt:lcidtoname_downlevel.obj
 0002:00009068       ??_C@_1M@IDEHOAP@?$AAp?$AAa?$AA?9?$AAi?$AAn@ 0000000180052068     libucrt:lcidtoname_downlevel.obj
 0002:00009078       ??_C@_1M@HDBKGOGH@?$AAp?$AAl?$AA?9?$AAp?$AAl@ 0000000180052078     libucrt:lcidtoname_downlevel.obj
 0002:00009088       ??_C@_1M@LJLLCMEH@?$AAp?$AAt?$AA?9?$AAb?$AAr@ 0000000180052088     libucrt:lcidtoname_downlevel.obj
 0002:00009098       ??_C@_1M@NCMONAAL@?$AAp?$AAt?$AA?9?$AAp?$AAt@ 0000000180052098     libucrt:lcidtoname_downlevel.obj
 0002:000090a8       ??_C@_1O@EAKMAJDN@?$AAq?$AAu?$AAz?$AA?9?$AAb?$AAo@ 00000001800520a8     libucrt:lcidtoname_downlevel.obj
 0002:000090b8       ??_C@_1O@BHHPIGDN@?$AAq?$AAu?$AAz?$AA?9?$AAe?$AAc@ 00000001800520b8     libucrt:lcidtoname_downlevel.obj
 0002:000090c8       ??_C@_1O@GBAPEKMJ@?$AAq?$AAu?$AAz?$AA?9?$AAp?$AAe@ 00000001800520c8     libucrt:lcidtoname_downlevel.obj
 0002:000090d8       ??_C@_1M@CLGLEFBO@?$AAr?$AAo?$AA?9?$AAr?$AAo@ 00000001800520d8     libucrt:lcidtoname_downlevel.obj
 0002:000090e8       ??_C@_1M@CEEDODME@?$AAr?$AAu?$AA?9?$AAr?$AAu@ 00000001800520e8     libucrt:lcidtoname_downlevel.obj
 0002:000090f8       ??_C@_1M@HPKKKMPP@?$AAs?$AAa?$AA?9?$AAi?$AAn@ 00000001800520f8     libucrt:lcidtoname_downlevel.obj
 0002:00009108       ??_C@_1M@BKMAIGOJ@?$AAs?$AAe?$AA?9?$AAf?$AAi@ 0000000180052108     libucrt:lcidtoname_downlevel.obj
 0002:00009118       ??_C@_1M@NDPIFLFI@?$AAs?$AAe?$AA?9?$AAn?$AAo@ 0000000180052118     libucrt:lcidtoname_downlevel.obj
 0002:00009128       ??_C@_1M@DANKKHJ@?$AAs?$AAe?$AA?9?$AAs?$AAe@ 0000000180052128     libucrt:lcidtoname_downlevel.obj
 0002:00009138       ??_C@_1M@PNBLONPJ@?$AAs?$AAk?$AA?9?$AAs?$AAk@ 0000000180052138     libucrt:lcidtoname_downlevel.obj
 0002:00009148       ??_C@_1M@LFMODOAL@?$AAs?$AAl?$AA?9?$AAs?$AAi@ 0000000180052148     libucrt:lcidtoname_downlevel.obj
 0002:00009158       ??_C@_1O@DFKOMPG@?$AAs?$AAm?$AAa?$AA?9?$AAn?$AAo@ 0000000180052158     libucrt:lcidtoname_downlevel.obj
 0002:00009168       ??_C@_1O@NDKPBNNH@?$AAs?$AAm?$AAa?$AA?9?$AAs?$AAe@ 0000000180052168     libucrt:lcidtoname_downlevel.obj
 0002:00009178       ??_C@_1O@PLLKBHAB@?$AAs?$AAm?$AAj?$AA?9?$AAn?$AAo@ 0000000180052178     libucrt:lcidtoname_downlevel.obj
 0002:00009188       ??_C@_1O@CLEPOGCA@?$AAs?$AAm?$AAj?$AA?9?$AAs?$AAe@ 0000000180052188     libucrt:lcidtoname_downlevel.obj
 0002:00009198       ??_C@_1O@DLGJGKMK@?$AAs?$AAm?$AAn?$AA?9?$AAf?$AAi@ 0000000180052198     libucrt:lcidtoname_downlevel.obj
 0002:000091a8       ??_C@_1O@OJDJGAJC@?$AAs?$AAm?$AAs?$AA?9?$AAf?$AAi@ 00000001800521a8     libucrt:lcidtoname_downlevel.obj
 0002:000091b8       ??_C@_1M@BOFOGHPB@?$AAs?$AAq?$AA?9?$AAa?$AAl@ 00000001800521b8     libucrt:lcidtoname_downlevel.obj
 0002:000091c8       ??_C@_1BG@LJBBIPGB@?$AAs?$AAr?$AA?9?$AAb?$AAa?$AA?9?$AAc?$AAy?$AAr?$AAl@ 00000001800521c8     libucrt:lcidtoname_downlevel.obj
 0002:000091e0       ??_C@_1BG@JLBENFOE@?$AAs?$AAr?$AA?9?$AAb?$AAa?$AA?9?$AAl?$AAa?$AAt?$AAn@ 00000001800521e0     libucrt:lcidtoname_downlevel.obj
 0002:000091f8       ??_C@_1BG@KODPNHE@?$AAs?$AAr?$AA?9?$AAs?$AAp?$AA?9?$AAc?$AAy?$AAr?$AAl@ 00000001800521f8     libucrt:lcidtoname_downlevel.obj
 0002:00009210       ??_C@_1BG@CIOGKHPB@?$AAs?$AAr?$AA?9?$AAs?$AAp?$AA?9?$AAl?$AAa?$AAt?$AAn@ 0000000180052210     libucrt:lcidtoname_downlevel.obj
 0002:00009228       ??_C@_1M@NGFJLMAC@?$AAs?$AAv?$AA?9?$AAf?$AAi@ 0000000180052228     libucrt:lcidtoname_downlevel.obj
 0002:00009238       ??_C@_1M@MPJEJAJC@?$AAs?$AAv?$AA?9?$AAs?$AAe@ 0000000180052238     libucrt:lcidtoname_downlevel.obj
 0002:00009248       ??_C@_1M@MPNDHLFK@?$AAs?$AAw?$AA?9?$AAk?$AAe@ 0000000180052248     libucrt:lcidtoname_downlevel.obj
 0002:00009258       ??_C@_1O@KOHBJJI@?$AAs?$AAy?$AAr?$AA?9?$AAs?$AAy@ 0000000180052258     libucrt:lcidtoname_downlevel.obj
 0002:00009268       ??_C@_1M@LDCEFHA@?$AAt?$AAa?$AA?9?$AAi?$AAn@ 0000000180052268     libucrt:lcidtoname_downlevel.obj
 0002:00009278       ??_C@_1M@CNJOFAK@?$AAt?$AAe?$AA?9?$AAi?$AAn@ 0000000180052278     libucrt:lcidtoname_downlevel.obj
 0002:00009288       ??_C@_1M@GNAECACD@?$AAt?$AAh?$AA?9?$AAt?$AAh@ 0000000180052288     libucrt:lcidtoname_downlevel.obj
 0002:00009298       ??_C@_1M@CHBIHOJO@?$AAt?$AAn?$AA?9?$AAz?$AAa@ 0000000180052298     libucrt:lcidtoname_downlevel.obj
 0002:000092a8       ??_C@_1M@GCCMIGPJ@?$AAt?$AAr?$AA?9?$AAt?$AAr@ 00000001800522a8     libucrt:lcidtoname_downlevel.obj
 0002:000092b8       ??_C@_1M@CELMCNBK@?$AAt?$AAt?$AA?9?$AAr?$AAu@ 00000001800522b8     libucrt:lcidtoname_downlevel.obj
 0002:000092c8       ??_C@_1M@KLMCELGA@?$AAu?$AAk?$AA?9?$AAu?$AAa@ 00000001800522c8     libucrt:lcidtoname_downlevel.obj
 0002:000092d8       ??_C@_1M@EPAJJAJF@?$AAu?$AAr?$AA?9?$AAp?$AAk@ 00000001800522d8     libucrt:lcidtoname_downlevel.obj
 0002:000092e8       ??_C@_1BG@GEGPMCDJ@?$AAu?$AAz?$AA?9?$AAu?$AAz?$AA?9?$AAc?$AAy?$AAr?$AAl@ 00000001800522e8     libucrt:lcidtoname_downlevel.obj
 0002:00009300       ??_C@_1BG@EGGKJILM@?$AAu?$AAz?$AA?9?$AAu?$AAz?$AA?9?$AAl?$AAa?$AAt?$AAn@ 0000000180052300     libucrt:lcidtoname_downlevel.obj
 0002:00009318       ??_C@_1M@GFOCLFF@?$AAv?$AAi?$AA?9?$AAv?$AAn@ 0000000180052318     libucrt:lcidtoname_downlevel.obj
 0002:00009328       ??_C@_1M@CPAMEDFI@?$AAx?$AAh?$AA?9?$AAz?$AAa@ 0000000180052328     libucrt:lcidtoname_downlevel.obj
 0002:00009338       ??_C@_1O@EBKIFIGN@?$AAz?$AAh?$AA?9?$AAc?$AAh?$AAs@ 0000000180052338     libucrt:lcidtoname_downlevel.obj
 0002:00009348       ??_C@_1O@NMHPGANE@?$AAz?$AAh?$AA?9?$AAc?$AAh?$AAt@ 0000000180052348     libucrt:lcidtoname_downlevel.obj
 0002:00009358       ??_C@_1M@LPINJOMC@?$AAz?$AAh?$AA?9?$AAc?$AAn@ 0000000180052358     libucrt:lcidtoname_downlevel.obj
 0002:00009368       ??_C@_1M@OCJEJODD@?$AAz?$AAh?$AA?9?$AAh?$AAk@ 0000000180052368     libucrt:lcidtoname_downlevel.obj
 0002:00009378       ??_C@_1M@DNDLJINH@?$AAz?$AAh?$AA?9?$AAm?$AAo@ 0000000180052378     libucrt:lcidtoname_downlevel.obj
 0002:00009388       ??_C@_1M@MBFDNDND@?$AAz?$AAh?$AA?9?$AAs?$AAg@ 0000000180052388     libucrt:lcidtoname_downlevel.obj
 0002:00009398       ??_C@_1M@IMEPLEPE@?$AAz?$AAh?$AA?9?$AAt?$AAw@ 0000000180052398     libucrt:lcidtoname_downlevel.obj
 0002:000093a8       ??_C@_1M@BBGHNHJP@?$AAz?$AAu?$AA?9?$AAz?$AAa@ 00000001800523a8     libucrt:lcidtoname_downlevel.obj
 0002:000093e0       ?large_power_data@?1??multiply_by_power_of_ten@__crt_strtox@@YA_NAEAUbig_integer@2@I@Z@4QBIB 00000001800523e0     libucrt:cfout.obj
 0002:00009cf0       ?large_power_indices@?1??multiply_by_power_of_ten@__crt_strtox@@YA_NAEAUbig_integer@2@I@Z@4QBUunpack_index@?1??12@YA_N0I@Z@B 0000000180052cf0     libucrt:cfout.obj
 0002:00009d88       ?small_powers_of_ten@?1??multiply_by_power_of_ten@__crt_strtox@@YA_NAEAUbig_integer@2@I@Z@4QBIB 0000000180052d88     libucrt:cfout.obj
 0002:00009dac       ??_C@_01GBGANLPD@0@        0000000180052dac     libucrt:cfout.obj
 0002:00009db0       ??_C@_05DNEBIAHO@1?$CDINF@ 0000000180052db0     libucrt:cfout.obj
 0002:00009db8       ??_C@_06IMKFLFPG@1?$CDQNAN@ 0000000180052db8     libucrt:cfout.obj
 0002:00009dc0       ??_C@_06PGGFOGJG@1?$CDSNAN@ 0000000180052dc0     libucrt:cfout.obj
 0002:00009dc8       ??_C@_05PHHOCPM@1?$CDIND@  0000000180052dc8     libucrt:cfout.obj
 0002:0000a020       ??_C@_1BA@BALFACEM@?$AAC?$AAO?$AAN?$AAO?$AAU?$AAT?$AA$@ 0000000180053020     libucrt:initcon.obj
 0002:0000a030       __log10_256_lead           0000000180053030     libucrt:log10_256_lead_tail_table.obj
 0002:0000a840       __log10_256_tail           0000000180053840     libucrt:log10_256_lead_tail_table.obj
 0002:0000b050       __log_F_inv_qword          0000000180054050     libucrt:log_f_inv_qword_table.obj
 0002:0000b900       ??_R4type_info@@6B@        0000000180054900     LIBCMT:std_type_info_static.obj
 0002:0000b928       ??_R3type_info@@8          0000000180054928     LIBCMT:std_type_info_static.obj
 0002:0000b940       ??_R2type_info@@8          0000000180054940     LIBCMT:std_type_info_static.obj
 0002:0000b950       ??_R1A@?0A@EA@type_info@@8 0000000180054950     LIBCMT:std_type_info_static.obj
 0002:0000b978       ??_R3DNameNode@@8          0000000180054978     libvcruntime:undname.obj
 0002:0000b990       ??_R2DNameNode@@8          0000000180054990     libvcruntime:undname.obj
 0002:0000b9a0       ??_R1A@?0A@EA@DNameNode@@8 00000001800549a0     libvcruntime:undname.obj
 0002:0000b9c8       ??_R4charNode@@6B@         00000001800549c8     libvcruntime:undname.obj
 0002:0000b9f0       ??_R3charNode@@8           00000001800549f0     libvcruntime:undname.obj
 0002:0000ba08       ??_R2charNode@@8           0000000180054a08     libvcruntime:undname.obj
 0002:0000ba20       ??_R1A@?0A@EA@charNode@@8  0000000180054a20     libvcruntime:undname.obj
 0002:0000ba48       ??_R4pcharNode@@6B@        0000000180054a48     libvcruntime:undname.obj
 0002:0000ba70       ??_R3pcharNode@@8          0000000180054a70     libvcruntime:undname.obj
 0002:0000ba88       ??_R2pcharNode@@8          0000000180054a88     libvcruntime:undname.obj
 0002:0000baa0       ??_R1A@?0A@EA@pcharNode@@8 0000000180054aa0     libvcruntime:undname.obj
 0002:0000bac8       ??_R4pDNameNode@@6B@       0000000180054ac8     libvcruntime:undname.obj
 0002:0000baf0       ??_R3pDNameNode@@8         0000000180054af0     libvcruntime:undname.obj
 0002:0000bb08       ??_R2pDNameNode@@8         0000000180054b08     libvcruntime:undname.obj
 0002:0000bb20       ??_R1A@?0A@EA@pDNameNode@@8 0000000180054b20     libvcruntime:undname.obj
 0002:0000bb48       ??_R4DNameStatusNode@@6B@  0000000180054b48     libvcruntime:undname.obj
 0002:0000bb70       ??_R3DNameStatusNode@@8    0000000180054b70     libvcruntime:undname.obj
 0002:0000bb88       ??_R2DNameStatusNode@@8    0000000180054b88     libvcruntime:undname.obj
 0002:0000bba0       ??_R1A@?0A@EA@DNameStatusNode@@8 0000000180054ba0     libvcruntime:undname.obj
 0002:0000bbc8       ??_R4pairNode@@6B@         0000000180054bc8     libvcruntime:undname.obj
 0002:0000bbf0       ??_R3pairNode@@8           0000000180054bf0     libvcruntime:undname.obj
 0002:0000bc08       ??_R2pairNode@@8           0000000180054c08     libvcruntime:undname.obj
 0002:0000bc20       ??_R1A@?0A@EA@pairNode@@8  0000000180054c20     libvcruntime:undname.obj
 0002:0000bc48       ??_R4exception@std@@6B@    0000000180054c48     libvcruntime:frame.obj
 0002:0000bc70       ??_R3exception@std@@8      0000000180054c70     libvcruntime:frame.obj
 0002:0000bc88       ??_R2exception@std@@8      0000000180054c88     libvcruntime:frame.obj
 0002:0000bc98       ??_R1A@?0A@EA@exception@std@@8 0000000180054c98     libvcruntime:frame.obj
 0002:0000bcc0       ??_R4bad_exception@std@@6B@ 0000000180054cc0     libvcruntime:frame.obj
 0002:0000bce8       ??_R3bad_exception@std@@8  0000000180054ce8     libvcruntime:frame.obj
 0002:0000bd00       ??_R2bad_exception@std@@8  0000000180054d00     libvcruntime:frame.obj
 0002:0000bd18       ??_R1A@?0A@EA@bad_exception@std@@8 0000000180054d18     libvcruntime:frame.obj
 0002:0000bd3c       __volatile_metadata        0000000180054d3c     <linker-defined>
 0002:0000c328       __rtc_iaa                  0000000180055328     LIBCMT:initsect.obj
 0002:0000c330       __rtc_izz                  0000000180055330     LIBCMT:initsect.obj
 0002:0000c338       __rtc_taa                  0000000180055338     LIBCMT:initsect.obj
 0002:0000c340       __rtc_tzz                  0000000180055340     LIBCMT:initsect.obj
 0002:00010340       _TI2?AVbad_exception@std@@ 0000000180059340     libvcruntime:frame.obj
 0002:00010360       _CTA2?AVbad_exception@std@@ 0000000180059360     libvcruntime:frame.obj
 0002:00010378       _CT??_R0?AVbad_exception@std@@@8??0bad_exception@std@@QEAA@AEBV01@@Z24 0000000180059378     libvcruntime:frame.obj
 0002:000103a0       _CT??_R0?AVexception@std@@@8??0exception@std@@QEAA@AEBV01@@Z24 00000001800593a0     libvcruntime:frame.obj
 0002:000103c4       __DELAY_IMPORT_DESCRIPTOR_physxcommon_64_dll 00000001800593c4     PhysXCommon_64:PhysXCommon_64.dll
 0002:000103e4       __DELAY_IMPORT_DESCRIPTOR_physxfoundation_64_dll 00000001800593e4     PhysXFoundation_64:PhysXFoundation_64.dll
 0002:00010404       __NULL_DELAY_IMPORT_DESCRIPTOR 0000000180059404     PhysXCommon_64:PhysXCommon_64.dll
 0002:00010548       \177PhysXCommon_64_NULL_THUNK_DATA_DLN 0000000180059548     PhysXCommon_64:PhysXCommon_64.dll
 0002:000105a8       \177PhysXFoundation_64_NULL_THUNK_DATA_DLN 00000001800595a8     PhysXFoundation_64:PhysXFoundation_64.dll
 0002:00010f08       \177PhysXCommon_64_NULL_THUNK_DATA_DLB 0000000180059f08     PhysXCommon_64:PhysXCommon_64.dll
 0002:00011030       \177PhysXFoundation_64_NULL_THUNK_DATA_DLB 000000018005a030     PhysXFoundation_64:PhysXFoundation_64.dll
 0002:00012d90       __IMPORT_DESCRIPTOR_KERNEL32 000000018005bd90     kernel32:KERNEL32.dll
 0002:00012da4       __NULL_IMPORT_DESCRIPTOR   000000018005bda4     kernel32:KERNEL32.dll
 0003:00000008       __pfnDliNotifyHook2        000000018005d008     WindowsCookingDelayLoadHook.obj
 0003:00000010       _fltused                   000000018005d010     LIBCMT:fltused.obj
 0003:00000020       __isa_available            000000018005d020     LIBCMT:cpu_disp.obj
 0003:00000024       __isa_enabled              000000018005d024     LIBCMT:cpu_disp.obj
 0003:00000028       __memcpy_nt_iters          000000018005d028     LIBCMT:cpu_disp.obj
 0003:00000030       __memset_nt_iters          000000018005d030     LIBCMT:cpu_disp.obj
 0003:00000040       __scrt_native_dllmain_reason 000000018005d040     LIBCMT:utility.obj
 0003:00000048       __security_cookie_complement 000000018005d048     LIBCMT:gs_cookie.obj
 0003:00000050       __security_cookie          000000018005d050     LIBCMT:gs_cookie.obj
 0003:00000080       __abort_behavior           000000018005d080     libucrt:abort.obj
 0003:000000b0       __acrt_initial_multibyte_data 000000018005d0b0     libucrt:mbctype.obj
 0003:000005f0       __acrt_initial_locale_data 000000018005d5f0     libucrt:nlsdata.obj
 0003:00000748       __acrt_initial_locale_pointers 000000018005d748     libucrt:nlsdata.obj
 0003:00000758       __acrt_wide_c_locale_string 000000018005d758     libucrt:nlsdata.obj
 0003:00000760       _iob                       000000018005d760     libucrt:_file.obj
 0003:00000870       __globallocalestatus       000000018005d870     libucrt:glstatus.obj
 0003:00000880       __acrt_lconv_c             000000018005d880     libucrt:localeconv.obj
 0003:00000918       __acrt_lconv_static_decimal 000000018005d918     libucrt:localeconv.obj
 0003:0000091c       __acrt_lconv_static_W_decimal 000000018005d91c     libucrt:localeconv.obj
 0003:00000920       _lookuptrailbytes          000000018005d920     libucrt:read.obj
 0003:00000a30       ??_R0?AVAdjEdge@@@8        000000018005da30     Adjacencies.obj
 0003:00000a50       ??_R0I@8                   000000018005da50     Adjacencies.obj
 0003:00000a68       ??_R0?AVAdjTriangle@physx@@@8 000000018005da68     Adjacencies.obj
 0003:00000a90       ??_R0?AVCooking@physx@@@8  000000018005da90     Cooking.obj
 0003:00000ab8       ??_R0?AVHeightField@Gu@physx@@@8 000000018005dab8     Cooking.obj
 0003:00000ae8       ??_R0?AVQuickHullConvexHullLib@physx@@@8 000000018005dae8     Cooking.obj
 0003:00000b20       ??_R0?AUPxDebugLine@physx@@@8 000000018005db20     Cooking.obj
 0003:00000b48       ??_R0M@8                   000000018005db48     CookingUtils.obj
 0003:00000b60       ??_R0?AUEdgeData@Gu@physx@@@8 000000018005db60     EdgeList.obj
 0003:00000b88       ??_R0?AUEdgeTriangleData@Gu@physx@@@8 000000018005db88     EdgeList.obj
 0003:00000bb8       ??_R0?AVQuantizerImpl@@@8  000000018005dbb8     Quantizer.obj
 0003:00000be0       ??_R0?AVPxVec3@physx@@@8   000000018005dbe0     Quantizer.obj
 0003:00000c08       ??_R0?AUSlab@NodeAllocator@Gu@physx@@@8 000000018005dc08     BVHStructureBuilder.obj
 0003:00000c40       ??_R0?AUInterval@physx@@@8 000000018005dc40     RTreeCooking.obj
 0003:00000c68       ??_R0?AURTreeNodeQ@Gu@physx@@@8 000000018005dc68     RTreeCooking.obj
 0003:00000c98       ??_R0?AURTreeNodeNQ@physx@@@8 000000018005dc98     RTreeCooking.obj
 0003:00000cc0       ??_R0?AUPxBounds3V@physx@@@8 000000018005dcc0     RTreeCooking.obj
 0003:00000ce8       ??_R0?AVEdgeListBuilder@Gu@physx@@@8 000000018005dce8     TriangleMeshBuilder.obj
 0003:00000d18       ??_R0?AVBV32Tree@Gu@physx@@@8 000000018005dd18     TriangleMeshBuilder.obj
 0003:00000d40       ??_R0E@8                   000000018005dd40     TriangleMeshBuilder.obj
 0003:00000d58       ??_R0G@8                   000000018005dd58     TriangleMeshBuilder.obj
 0003:00000d70       ??_R0?AUEdgeTriLookup@physx@@@8 000000018005dd70     TriangleMeshBuilder.obj
 0003:00000da0       ??_R0?AUEdgeDescData@Gu@physx@@@8 000000018005dda0     ConvexHullBuilder.obj
 0003:00000dd0       ??_R0_N@8                  000000018005ddd0     ConvexHullBuilder.obj
 0003:00000de8       ??_R0?AVConvexHull@physx@@@8 000000018005dde8     ConvexHullUtils.obj
 0003:00000e10       ??_R0?AVPxPlane@physx@@@8  000000018005de10     ConvexHullUtils.obj
 0003:00000e38       ??_R0?AVHalfEdge@ConvexHull@physx@@@8 000000018005de38     ConvexHullUtils.obj
 0003:00000e68       ??_R0?AVBigConvexData@physx@@@8 000000018005de68     ConvexMeshBuilder.obj
 0003:00000e98       ??_R0?AUHullTriangleData@physx@@@8 000000018005de98     ConvexPolygonsBuilder.obj
 0003:00000ec8       ??_R0?AVPair@@@8           000000018005dec8     ConvexPolygonsBuilder.obj
 0003:00000ee8       ??_R0?AVQuickHull@local@@@8 000000018005dee8     QuickHullConvexHullLib.obj
 0003:00000f10       ??_R0?AUExpandPoint@local@@@8 000000018005df10     QuickHullConvexHullLib.obj
 0003:00000f38       ??_R0PEAUQuickHullVertex@local@@@8 000000018005df38     QuickHullConvexHullLib.obj
 0003:00000f68       ??_R0PEAUQuickHullFace@local@@@8 000000018005df68     QuickHullConvexHullLib.obj
 0003:00000f98       ??_R0PEAUQuickHullHalfEdge@local@@@8 000000018005df98     QuickHullConvexHullLib.obj
 0003:00000fc8       ??_R0?AVbad_exception@std@@@8 000000018005dfc8     libvcruntime:frame.obj
 0003:00000ff0       ??_R0?AVexception@std@@@8  000000018005dff0     libvcruntime:frame.obj
 0003:00001018       ??_R0?AVtype_info@@@8      000000018005e018     LIBCMT:std_type_info_static.obj
 0003:00001038       ??_R0?AVDNameNode@@@8      000000018005e038     libvcruntime:undname.obj
 0003:00001058       ??_R0?AVcharNode@@@8       000000018005e058     libvcruntime:undname.obj
 0003:00001078       ??_R0?AVpcharNode@@@8      000000018005e078     libvcruntime:undname.obj
 0003:00001098       ??_R0?AVpDNameNode@@@8     000000018005e098     libvcruntime:undname.obj
 0003:000010c0       ??_R0?AVDNameStatusNode@@@8 000000018005e0c0     libvcruntime:undname.obj
 0003:000010e8       ??_R0?AVpairNode@@@8       000000018005e0e8     libvcruntime:undname.obj
 0003:00001108       __imp_??0RadixSortBuffered@Cm@physx@@QEAA@XZ 000000018005e108     PhysXCommon_64:PhysXCommon_64.dll
 0003:00001110       __imp_??1BigConvexData@physx@@QEAA@XZ 000000018005e110     PhysXCommon_64:PhysXCommon_64.dll
 0003:00001118       __imp_??1RadixSortBuffered@Cm@physx@@UEAA@XZ 000000018005e118     PhysXCommon_64:PhysXCommon_64.dll
 0003:00001120       __imp_?Sort@RadixSortBuffered@Cm@physx@@QEAAAEAV123@PEBIIW4RadixHint@23@@Z 000000018005e120     PhysXCommon_64:PhysXCommon_64.dll
 0003:00001128       __imp_??0HeightField@Gu@physx@@QEAA@PEAVGuMeshFactory@2@@Z 000000018005e128     PhysXCommon_64:PhysXCommon_64.dll
 0003:00001130       __imp_?loadFromDesc@HeightField@Gu@physx@@QEAA_NAEBVPxHeightFieldDesc@3@@Z 000000018005e130     PhysXCommon_64:PhysXCommon_64.dll
 0003:00001138       __imp_?computeCellCoordinates@HeightField@Gu@physx@@QEBAIMMAEAM0@Z 000000018005e138     PhysXCommon_64:PhysXCommon_64.dll
 0003:00001140       __imp_?releaseMemory@HeightField@Gu@physx@@QEAAXXZ 000000018005e140     PhysXCommon_64:PhysXCommon_64.dll
 0003:00001148       __imp_??1HeightField@Gu@physx@@UEAA@XZ 000000018005e148     PhysXCommon_64:PhysXCommon_64.dll
 0003:00001150       __imp_??0NodeAllocator@Gu@physx@@QEAA@XZ 000000018005e150     PhysXCommon_64:PhysXCommon_64.dll
 0003:00001158       __imp_??1NodeAllocator@Gu@physx@@QEAA@XZ 000000018005e158     PhysXCommon_64:PhysXCommon_64.dll
 0003:00001160       __imp_?release@NodeAllocator@Gu@physx@@QEAAXXZ 000000018005e160     PhysXCommon_64:PhysXCommon_64.dll
 0003:00001168       __imp_?buildAABBTree@Gu@physx@@YA_NAEAVAABBTreeBuildParams@12@AEAVNodeAllocator@12@AEAUBuildStats@12@AEAPEAI@Z 000000018005e168     PhysXCommon_64:PhysXCommon_64.dll
 0003:00001170       __imp_?writeDword@physx@@YAXI_NAEAVPxOutputStream@1@@Z 000000018005e170     PhysXCommon_64:PhysXCommon_64.dll
 0003:00001178       __imp_?writeFloatBuffer@physx@@YAXPEBMI_NAEAVPxOutputStream@1@@Z 000000018005e178     PhysXCommon_64:PhysXCommon_64.dll
 0003:00001180       __imp_?writeHeader@physx@@YA_NCCCCI_NAEAVPxOutputStream@1@@Z 000000018005e180     PhysXCommon_64:PhysXCommon_64.dll
 0003:00001188       __imp_?writeWord@physx@@YAXG_NAEAVPxOutputStream@1@@Z 000000018005e188     PhysXCommon_64:PhysXCommon_64.dll
 0003:00001190       __imp_?writeFloat@physx@@YAXM_NAEAVPxOutputStream@1@@Z 000000018005e190     PhysXCommon_64:PhysXCommon_64.dll
 0003:00001198       __imp_?computeBoundsAroundVertices@Gu@physx@@YAXAEAVPxBounds3@2@IPEIBVPxVec3@2@@Z 000000018005e198     PhysXCommon_64:PhysXCommon_64.dll
 0003:000011a0       __imp_??0SourceMesh@Gu@physx@@QEAA@XZ 000000018005e1a0     PhysXCommon_64:PhysXCommon_64.dll
 0003:000011a8       __imp_??1SourceMesh@Gu@physx@@QEAA@XZ 000000018005e1a8     PhysXCommon_64:PhysXCommon_64.dll
 0003:000011b0       __imp_??0BV4Tree@Gu@physx@@QEAA@XZ 000000018005e1b0     PhysXCommon_64:PhysXCommon_64.dll
 0003:000011b8       __imp_??1BV4Tree@Gu@physx@@QEAA@XZ 000000018005e1b8     PhysXCommon_64:PhysXCommon_64.dll
 0003:000011c0       __imp_??0BV32Tree@Gu@physx@@QEAA@XZ 000000018005e1c0     PhysXCommon_64:PhysXCommon_64.dll
 0003:000011c8       __imp_??1BV32Tree@Gu@physx@@QEAA@XZ 000000018005e1c8     PhysXCommon_64:PhysXCommon_64.dll
 0003:000011d0       __imp_?writeWordBuffer@physx@@YAXPEBGI_NAEAVPxOutputStream@1@@Z 000000018005e1d0     PhysXCommon_64:PhysXCommon_64.dll
 0003:000011d8       __imp_?computeMaxIndex@physx@@YAIPEBII@Z 000000018005e1d8     PhysXCommon_64:PhysXCommon_64.dll
 0003:000011e0       __imp_?storeIndices@physx@@YAXIIPEBIAEAVPxOutputStream@1@_N@Z 000000018005e1e0     PhysXCommon_64:PhysXCommon_64.dll
 0003:000011e8       __imp_?BuildBV4Ex@Gu@physx@@YA_NAEAVBV4Tree@12@AEAVSourceMesh@12@MI@Z 000000018005e1e8     PhysXCommon_64:PhysXCommon_64.dll
 0003:000011f0       __imp_?BuildBV32Ex@Gu@physx@@YA_NAEAVBV32Tree@12@AEAVSourceMesh@12@MI@Z 000000018005e1f0     PhysXCommon_64:PhysXCommon_64.dll
 0003:000011f8       __imp_?computeMaxIndex@physx@@YAGPEBGI@Z 000000018005e1f8     PhysXCommon_64:PhysXCommon_64.dll
 0003:00001200       __imp_?WriteHeader@Gu@physx@@YA_NEEEEI_NAEAVPxOutputStream@2@@Z 000000018005e200     PhysXCommon_64:PhysXCommon_64.dll
 0003:00001208       __imp_?StoreIndices@Gu@physx@@YAXGIPEBGAEAVPxOutputStream@2@_N@Z 000000018005e208     PhysXCommon_64:PhysXCommon_64.dll
 0003:00001210       __imp_?CreateOffsets@BigConvexData@physx@@IEAAXXZ 000000018005e210     PhysXCommon_64:PhysXCommon_64.dll
 0003:00001218       __imp_?computeOBBPoints@Gu@physx@@YAXPEIAVPxVec3@2@AEBV32@1111@Z 000000018005e218     PhysXCommon_64:PhysXCommon_64.dll
 0003:00001220       __imp_??0BigConvexData@physx@@QEAA@XZ 000000018005e220     PhysXCommon_64:PhysXCommon_64.dll
 0003:00001228       \177PhysXCommon_64_NULL_THUNK_DATA_DLA 000000018005e228     PhysXCommon_64:PhysXCommon_64.dll
 0003:00001230       __imp_PxGetFoundation      000000018005e230     PhysXFoundation_64:PhysXFoundation_64.dll
 0003:00001238       __imp_?deallocate@TempAllocator@shdfnd@physx@@QEAAXPEAX@Z 000000018005e238     PhysXFoundation_64:PhysXFoundation_64.dll
 0003:00001240       __imp_?getAllocator@shdfnd@physx@@YAAEAVPxAllocatorCallback@2@XZ 000000018005e240     PhysXFoundation_64:PhysXFoundation_64.dll
 0003:00001248       __imp_?getInstance@Foundation@shdfnd@physx@@SAAEAV123@XZ 000000018005e248     PhysXFoundation_64:PhysXFoundation_64.dll
 0003:00001250       __imp_?error@Foundation@shdfnd@physx@@QEAAXW4Enum@PxErrorCode@3@PEBDH1ZZ 000000018005e250     PhysXFoundation_64:PhysXFoundation_64.dll
 0003:00001258       __imp_?incRefCount@Foundation@shdfnd@physx@@SAXXZ 000000018005e258     PhysXFoundation_64:PhysXFoundation_64.dll
 0003:00001260       __imp_?decRefCount@Foundation@shdfnd@physx@@SAXXZ 000000018005e260     PhysXFoundation_64:PhysXFoundation_64.dll
 0003:00001268       __imp_??0FPUGuard@shdfnd@physx@@QEAA@XZ 000000018005e268     PhysXFoundation_64:PhysXFoundation_64.dll
 0003:00001270       __imp_??1FPUGuard@shdfnd@physx@@QEAA@XZ 000000018005e270     PhysXFoundation_64:PhysXFoundation_64.dll
 0003:00001278       __imp_?allocate@TempAllocator@shdfnd@physx@@QEAAPEAX_KPEBDH@Z 000000018005e278     PhysXFoundation_64:PhysXFoundation_64.dll
 0003:00001280       __imp_?PxDiagonalize@physx@@YA?AVPxVec3@1@AEBVPxMat33@1@AEAVPxQuat@1@@Z 000000018005e280     PhysXFoundation_64:PhysXFoundation_64.dll
 0003:00001288       \177PhysXFoundation_64_NULL_THUNK_DATA_DLA 000000018005e288     PhysXFoundation_64:PhysXFoundation_64.dll
 0003:00001658       __hmod__PhysXCommon_64_dll 000000018005e658     PhysXCommon_64:PhysXCommon_64.dll
 0003:00001660       __hmod__PhysXFoundation_64_dll 000000018005e660     PhysXFoundation_64:PhysXFoundation_64.dll
 0003:00001668       ?DloadKernel32@@3PEAUHINSTANCE__@@EA 000000018005e668     Delayimp:delayhlp.obj
 0003:00001670       ?DloadAcquireSRWLockExclusive@@3P6AXPEA_K@ZEA 000000018005e670     Delayimp:delayhlp.obj
 0003:00001678       ?DloadReleaseSRWLockExclusive@@3P6AXPEA_K@ZEA 000000018005e678     Delayimp:delayhlp.obj
 0003:00001680       ?DloadSrwLock@@3_KA        000000018005e680     Delayimp:delayhlp.obj
 0003:00001688       ?DloadSectionLockCount@@3KA 000000018005e688     Delayimp:delayhlp.obj
 0003:0000168c       ?DloadSectionOldProtection@@3KA 000000018005e68c     Delayimp:delayhlp.obj
 0003:00001690       ?DloadSectionCommitPermanent@@3KA 000000018005e690     Delayimp:delayhlp.obj
 0003:000016a0       ?__type_info_root_node@@3U__type_info_node@@A 000000018005e6a0     LIBCMT:tncleanup.obj
 0003:000016b8       __castguard_check_failure_os_handled_fptr 000000018005e6b8     LIBCMT:guard_support.obj
 0003:000016c0       __favor                    000000018005e6c0     LIBCMT:cpu_disp.obj
 0003:000016c8       ?_OptionsStorage@?1??__local_stdio_printf_options@@9@4_KA 000000018005e6c8     LIBCMT:default_local_stdio_options.obj
 0003:000016d0       ?_OptionsStorage@?1??__local_stdio_scanf_options@@9@4_KA 000000018005e6d0     LIBCMT:default_local_stdio_options.obj
 0003:000016d8       __scrt_current_native_startup_state 000000018005e6d8     LIBCMT:utility.obj
 0003:000016e0       __scrt_native_startup_lock 000000018005e6e0     LIBCMT:utility.obj
 0003:00001720       __scrt_debugger_hook_flag  000000018005e720     LIBCMT:utility_desktop.obj
 0003:00001728       ?__WinRTOutOfMemoryExceptionCallback@@3P6APEAXXZEA 000000018005e728     libvcruntime:ehhelpers.obj
 0003:00001730       __pPurecall                000000018005e730     libvcruntime:purevirt_data.obj
 0003:00001738       ?pArgList@UnDecorator@@0PEAVReplicator@@EA 000000018005e738     libvcruntime:undname.obj
 0003:00001740       ?pZNameList@UnDecorator@@0PEAVReplicator@@EA 000000018005e740     libvcruntime:undname.obj
 0003:00001748       ?pTemplateArgList@UnDecorator@@0PEAVReplicator@@EA 000000018005e748     libvcruntime:undname.obj
 0003:00001750       ?gName@UnDecorator@@0PEBDEB 000000018005e750     libvcruntime:undname.obj
 0003:00001758       ?name@UnDecorator@@0PEBDEB 000000018005e758     libvcruntime:undname.obj
 0003:00001760       ?disableFlags@UnDecorator@@0KA 000000018005e760     libvcruntime:undname.obj
 0003:00001764       ?fExplicitTemplateParams@UnDecorator@@0_NA 000000018005e764     libvcruntime:undname.obj
 0003:00001765       ?fGetTemplateArgumentList@UnDecorator@@0_NA 000000018005e765     libvcruntime:undname.obj
 0003:00001768       ?m_pGetParameter@UnDecorator@@0P6APEADJ@ZEA 000000018005e768     libvcruntime:undname.obj
 0003:00001770       ?m_CHPENameOffset@UnDecorator@@0KA 000000018005e770     libvcruntime:undname.obj
 0003:00001774       ?m_recursionLevel@UnDecorator@@0KA 000000018005e774     libvcruntime:undname.obj
 0003:000019b8       _environ_table             000000018005e9b8     libucrt:environment_initialization.obj
 0003:000019c0       _wenviron_table            000000018005e9c0     libucrt:environment_initialization.obj
 0003:000019c8       __dcrt_initial_wide_environment 000000018005e9c8     libucrt:environment_initialization.obj
 0003:000019d0       __dcrt_initial_narrow_environment 000000018005e9d0     libucrt:environment_initialization.obj
 0003:000019d8       __acrt_atexit_table        000000018005e9d8     libucrt:onexit.obj
 0003:000019f0       __acrt_at_quick_exit_table 000000018005e9f0     libucrt:onexit.obj
 0003:00001a08       __fma3_is_available        000000018005ea08     libucrt:fma3_available.obj
 0003:00001a0c       __use_fma3_lib             000000018005ea0c     libucrt:fma3_available.obj
 0003:00001c50       _mbctype                   000000018005ec50     libucrt:mbctype.obj
 0003:00001c58       _mbcasemap                 000000018005ec58     libucrt:mbctype.obj
 0003:00001c60       __acrt_current_multibyte_data 000000018005ec60     libucrt:mbctype.obj
 0003:00001c70       _pgmptr                    000000018005ec70     libucrt:argv_data.obj
 0003:00001c78       __argc                     000000018005ec78     libucrt:argv_data.obj
 0003:00001c80       __argv                     000000018005ec80     libucrt:argv_data.obj
 0003:00001c88       __wargv                    000000018005ec88     libucrt:argv_data.obj
 0003:00001c90       _acmdln                    000000018005ec90     libucrt:argv_data.obj
 0003:00001c98       _wcmdln                    000000018005ec98     libucrt:argv_data.obj
 0003:00001e48       __acrt_heap                000000018005ee48     libucrt:heap_handle.obj
 0003:00001e50       __pioinfo                  000000018005ee50     libucrt:ioinit.obj
 0003:00002250       _nhandle                   000000018005f250     libucrt:ioinit.obj
 0003:00002288       __acrt_current_locale_data 000000018005f288     libucrt:nlsdata.obj
 0003:00002290       _nstream                   000000018005f290     libucrt:_file.obj
 0003:00002298       __piob                     000000018005f298     libucrt:_file.obj
 0003:000022a0       __acrt_stdout_buffer       000000018005f2a0     libucrt:_sftbuf.obj
 0003:000022a8       __acrt_stderr_buffer       000000018005f2a8     libucrt:_sftbuf.obj
 0003:000022c0       __acrt_locale_changed_data 000000018005f2c0     libucrt:wsetlocale.obj
 0003:000022c8       __acrt_lconv_static_null   000000018005f2c8     libucrt:localeconv.obj
 0003:000022cc       __acrt_lconv_static_W_null 000000018005f2cc     libucrt:localeconv.obj
 0003:00002850       __scrt_ucrt_dll_is_in_use  000000018005f850     <common>
 0003:00002858       __dyn_tls_init_callback    000000018005f858     <common>
 0005:00000100       __common_ssin_reduction_data 0000000180064100     LIBCMT:svml_s_sin_data.obj
 0005:00000d00       __common_ssin_data         0000000180064d00     LIBCMT:svml_s_sin_data.obj

 entry point at        0001:00027880

 Static symbols

 0000:fff97000       .debug$S                   0000000180000000     PhysXCooking_64.exp
 0000:fff97000       .debug$S                   0000000180000000     kernel32:KERNEL32.dll
 0000:fff97000       .debug$S                   0000000180000000     kernel32:KERNEL32.dll
 0000:fff97000       .debug$S                   0000000180000000     kernel32:KERNEL32.dll
 0000:fff97000       .debug$S                   0000000180000000     kernel32:KERNEL32.dll
 0000:fff97000       .debug$S                   0000000180000000     kernel32:KERNEL32.dll
 0000:fff97000       .debug$S                   0000000180000000     kernel32:KERNEL32.dll
 0000:fff97000       .debug$S                   0000000180000000     kernel32:KERNEL32.dll
 0000:fff97000       .debug$S                   0000000180000000     kernel32:KERNEL32.dll
 0000:fff97000       .debug$S                   0000000180000000     kernel32:KERNEL32.dll
 0000:fff97000       .debug$S                   0000000180000000     kernel32:KERNEL32.dll
 0000:fff97000       .debug$S                   0000000180000000     kernel32:KERNEL32.dll
 0000:fff97000       .debug$S                   0000000180000000     kernel32:KERNEL32.dll
 0000:fff97000       .debug$S                   0000000180000000     kernel32:KERNEL32.dll
 0000:fff97000       .debug$S                   0000000180000000     kernel32:KERNEL32.dll
 0000:fff97000       .debug$S                   0000000180000000     kernel32:KERNEL32.dll
 0000:fff97000       .debug$S                   0000000180000000     kernel32:KERNEL32.dll
 0000:fff97000       .debug$S                   0000000180000000     kernel32:KERNEL32.dll
 0000:fff97000       .debug$S                   0000000180000000     kernel32:KERNEL32.dll
 0000:fff97000       .debug$S                   0000000180000000     kernel32:KERNEL32.dll
 0000:fff97000       .debug$S                   0000000180000000     kernel32:KERNEL32.dll
 0000:fff97000       .debug$S                   0000000180000000     kernel32:KERNEL32.dll
 0000:fff97000       .debug$S                   0000000180000000     kernel32:KERNEL32.dll
 0000:fff97000       .debug$S                   0000000180000000     kernel32:KERNEL32.dll
 0000:fff97000       .debug$S                   0000000180000000     kernel32:KERNEL32.dll
 0000:fff97000       .debug$S                   0000000180000000     kernel32:KERNEL32.dll
 0000:fff97000       .debug$S                   0000000180000000     kernel32:KERNEL32.dll
 0000:fff97000       .debug$S                   0000000180000000     kernel32:KERNEL32.dll
 0000:fff97000       .debug$S                   0000000180000000     kernel32:KERNEL32.dll
 0000:fff97000       .debug$S                   0000000180000000     kernel32:KERNEL32.dll
 0000:fff97000       .debug$S                   0000000180000000     kernel32:KERNEL32.dll
 0000:fff97000       .debug$S                   0000000180000000     kernel32:KERNEL32.dll
 0000:fff97000       .debug$S                   0000000180000000     kernel32:KERNEL32.dll
 0000:fff97000       .debug$S                   0000000180000000     kernel32:KERNEL32.dll
 0000:fff97000       .debug$S                   0000000180000000     kernel32:KERNEL32.dll
 0000:fff97000       .debug$S                   0000000180000000     kernel32:KERNEL32.dll
 0000:fff97000       .debug$S                   0000000180000000     kernel32:KERNEL32.dll
 0000:fff97000       .debug$S                   0000000180000000     kernel32:KERNEL32.dll
 0000:fff97000       .debug$S                   0000000180000000     kernel32:KERNEL32.dll
 0000:fff97000       .debug$S                   0000000180000000     kernel32:KERNEL32.dll
 0000:fff97000       .debug$S                   0000000180000000     kernel32:KERNEL32.dll
 0000:fff97000       .debug$S                   0000000180000000     kernel32:KERNEL32.dll
 0000:fff97000       .debug$S                   0000000180000000     kernel32:KERNEL32.dll
 0000:fff97000       .debug$S                   0000000180000000     kernel32:KERNEL32.dll
 0000:fff97000       .debug$S                   0000000180000000     kernel32:KERNEL32.dll
 0000:fff97000       .debug$S                   0000000180000000     kernel32:KERNEL32.dll
 0000:fff97000       .debug$S                   0000000180000000     kernel32:KERNEL32.dll
 0000:fff97000       .debug$S                   0000000180000000     kernel32:KERNEL32.dll
 0000:fff97000       .debug$S                   0000000180000000     kernel32:KERNEL32.dll
 0000:fff97000       .debug$S                   0000000180000000     kernel32:KERNEL32.dll
 0000:fff97000       .debug$S                   0000000180000000     kernel32:KERNEL32.dll
 0000:fff97000       .debug$S                   0000000180000000     kernel32:KERNEL32.dll
 0000:fff97000       .debug$S                   0000000180000000     kernel32:KERNEL32.dll
 0000:fff97000       .debug$S                   0000000180000000     kernel32:KERNEL32.dll
 0000:fff97000       .debug$S                   0000000180000000     kernel32:KERNEL32.dll
 0000:fff97000       .debug$S                   0000000180000000     kernel32:KERNEL32.dll
 0000:fff97000       .debug$S                   0000000180000000     kernel32:KERNEL32.dll
 0000:fff97000       .debug$S                   0000000180000000     kernel32:KERNEL32.dll
 0000:fff97000       .debug$S                   0000000180000000     kernel32:KERNEL32.dll
 0000:fff97000       .debug$S                   0000000180000000     kernel32:KERNEL32.dll
 0000:fff97000       .debug$S                   0000000180000000     kernel32:KERNEL32.dll
 0000:fff97000       .debug$S                   0000000180000000     kernel32:KERNEL32.dll
 0000:fff97000       .debug$S                   0000000180000000     kernel32:KERNEL32.dll
 0000:fff97000       .debug$S                   0000000180000000     kernel32:KERNEL32.dll
 0000:fff97000       .debug$S                   0000000180000000     kernel32:KERNEL32.dll
 0000:fff97000       .debug$S                   0000000180000000     kernel32:KERNEL32.dll
 0000:fff97000       .debug$S                   0000000180000000     kernel32:KERNEL32.dll
 0000:fff97000       .debug$S                   0000000180000000     kernel32:KERNEL32.dll
 0000:fff97000       .debug$S                   0000000180000000     kernel32:KERNEL32.dll
 0000:fff97000       .debug$S                   0000000180000000     kernel32:KERNEL32.dll
 0000:fff97000       .debug$S                   0000000180000000     kernel32:KERNEL32.dll
 0000:fff97000       .debug$S                   0000000180000000     kernel32:KERNEL32.dll
 0000:fff97000       .debug$S                   0000000180000000     kernel32:KERNEL32.dll
 0000:fff97000       .debug$S                   0000000180000000     kernel32:KERNEL32.dll
 0000:fff97000       .debug$S                   0000000180000000     kernel32:KERNEL32.dll
 0000:fff97000       .debug$S                   0000000180000000     kernel32:KERNEL32.dll
 0000:fff97000       .debug$S                   0000000180000000     kernel32:KERNEL32.dll
 0000:fff97000       .debug$S                   0000000180000000     kernel32:KERNEL32.dll
 0000:fff97000       .debug$S                   0000000180000000     kernel32:KERNEL32.dll
 0000:fff97000       .debug$S                   0000000180000000     kernel32:KERNEL32.dll
 0000:fff97000       .debug$S                   0000000180000000     kernel32:KERNEL32.dll
 0000:fff97000       .debug$S                   0000000180000000     kernel32:KERNEL32.dll
 0000:fff97000       .debug$S                   0000000180000000     kernel32:KERNEL32.dll
 0000:fff97000       .debug$S                   0000000180000000     kernel32:KERNEL32.dll
 0000:fff97000       .debug$S                   0000000180000000     kernel32:KERNEL32.dll
 0000:fff97000       .debug$S                   0000000180000000     kernel32:KERNEL32.dll
 0000:fff97000       .debug$S                   0000000180000000     kernel32:KERNEL32.dll
 0000:fff97000       .debug$S                   0000000180000000     kernel32:KERNEL32.dll
 0000:fff97000       .debug$S                   0000000180000000     kernel32:KERNEL32.dll
 0000:fff97000       .debug$S                   0000000180000000     kernel32:KERNEL32.dll
 0000:fff97000       .debug$S                   0000000180000000     kernel32:KERNEL32.dll
 0000:fff97000       .debug$S                   0000000180000000     kernel32:KERNEL32.dll
 0000:fff97000       .debug$S                   0000000180000000     kernel32:KERNEL32.dll
 0000:fff97000       .debug$S                   0000000180000000     kernel32:KERNEL32.dll
 0000:fff97000       .debug$S                   0000000180000000     kernel32:KERNEL32.dll
 0000:fff97000       .debug$S                   0000000180000000     PhysXCommon_64:PhysXCommon_64.dll
 0000:fff97000       .debug$S                   0000000180000000     PhysXCommon_64:PhysXCommon_64.dll
 0000:fff97000       .debug$S                   0000000180000000     PhysXCommon_64:PhysXCommon_64.dll
 0000:fff97000       .debug$S                   0000000180000000     PhysXCommon_64:PhysXCommon_64.dll
 0000:fff97000       .debug$S                   0000000180000000     PhysXCommon_64:PhysXCommon_64.dll
 0000:fff97000       .debug$S                   0000000180000000     PhysXCommon_64:PhysXCommon_64.dll
 0000:fff97000       .debug$S                   0000000180000000     PhysXCommon_64:PhysXCommon_64.dll
 0000:fff97000       .debug$S                   0000000180000000     PhysXCommon_64:PhysXCommon_64.dll
 0000:fff97000       .debug$S                   0000000180000000     PhysXCommon_64:PhysXCommon_64.dll
 0000:fff97000       .debug$S                   0000000180000000     PhysXCommon_64:PhysXCommon_64.dll
 0000:fff97000       .debug$S                   0000000180000000     PhysXCommon_64:PhysXCommon_64.dll
 0000:fff97000       .debug$S                   0000000180000000     PhysXCommon_64:PhysXCommon_64.dll
 0000:fff97000       .debug$S                   0000000180000000     PhysXCommon_64:PhysXCommon_64.dll
 0000:fff97000       .debug$S                   0000000180000000     PhysXCommon_64:PhysXCommon_64.dll
 0000:fff97000       .debug$S                   0000000180000000     PhysXCommon_64:PhysXCommon_64.dll
 0000:fff97000       .debug$S                   0000000180000000     PhysXCommon_64:PhysXCommon_64.dll
 0000:fff97000       .debug$S                   0000000180000000     PhysXCommon_64:PhysXCommon_64.dll
 0000:fff97000       .debug$S                   0000000180000000     PhysXCommon_64:PhysXCommon_64.dll
 0000:fff97000       .debug$S                   0000000180000000     PhysXCommon_64:PhysXCommon_64.dll
 0000:fff97000       .debug$S                   0000000180000000     PhysXCommon_64:PhysXCommon_64.dll
 0000:fff97000       .debug$S                   0000000180000000     PhysXCommon_64:PhysXCommon_64.dll
 0000:fff97000       .debug$S                   0000000180000000     PhysXCommon_64:PhysXCommon_64.dll
 0000:fff97000       .debug$S                   0000000180000000     PhysXCommon_64:PhysXCommon_64.dll
 0000:fff97000       .debug$S                   0000000180000000     PhysXCommon_64:PhysXCommon_64.dll
 0000:fff97000       .debug$S                   0000000180000000     PhysXCommon_64:PhysXCommon_64.dll
 0000:fff97000       .debug$S                   0000000180000000     PhysXCommon_64:PhysXCommon_64.dll
 0000:fff97000       .debug$S                   0000000180000000     PhysXCommon_64:PhysXCommon_64.dll
 0000:fff97000       .debug$S                   0000000180000000     PhysXCommon_64:PhysXCommon_64.dll
 0000:fff97000       .debug$S                   0000000180000000     PhysXCommon_64:PhysXCommon_64.dll
 0000:fff97000       .debug$S                   0000000180000000     PhysXCommon_64:PhysXCommon_64.dll
 0000:fff97000       .debug$S                   0000000180000000     PhysXCommon_64:PhysXCommon_64.dll
 0000:fff97000       .debug$S                   0000000180000000     PhysXCommon_64:PhysXCommon_64.dll
 0000:fff97000       .debug$S                   0000000180000000     PhysXCommon_64:PhysXCommon_64.dll
 0000:fff97000       .debug$S                   0000000180000000     PhysXCommon_64:PhysXCommon_64.dll
 0000:fff97000       .debug$S                   0000000180000000     PhysXCommon_64:PhysXCommon_64.dll
 0000:fff97000       .debug$S                   0000000180000000     PhysXCommon_64:PhysXCommon_64.dll
 0000:fff97000       .debug$S                   0000000180000000     PhysXCommon_64:PhysXCommon_64.dll
 0000:fff97000       .debug$S                   0000000180000000     PhysXCommon_64:PhysXCommon_64.dll
 0000:fff97000       .debug$S                   0000000180000000     PhysXFoundation_64:PhysXFoundation_64.dll
 0000:fff97000       .debug$S                   0000000180000000     PhysXFoundation_64:PhysXFoundation_64.dll
 0000:fff97000       .debug$S                   0000000180000000     PhysXFoundation_64:PhysXFoundation_64.dll
 0000:fff97000       .debug$S                   0000000180000000     PhysXFoundation_64:PhysXFoundation_64.dll
 0000:fff97000       .debug$S                   0000000180000000     PhysXFoundation_64:PhysXFoundation_64.dll
 0000:fff97000       .debug$S                   0000000180000000     PhysXFoundation_64:PhysXFoundation_64.dll
 0000:fff97000       .debug$S                   0000000180000000     PhysXFoundation_64:PhysXFoundation_64.dll
 0000:fff97000       .debug$S                   0000000180000000     PhysXFoundation_64:PhysXFoundation_64.dll
 0000:fff97000       .debug$S                   0000000180000000     PhysXFoundation_64:PhysXFoundation_64.dll
 0000:fff97000       .debug$S                   0000000180000000     PhysXFoundation_64:PhysXFoundation_64.dll
 0000:fff97000       .debug$S                   0000000180000000     PhysXFoundation_64:PhysXFoundation_64.dll
 0001:00000000       ??__EmaxFError@_VecMathTests@aos@shdfnd@physx@@YAXXZ 0000000180001000 f   Cooking.obj
 0001:00000010       ??__EmaxV3Error@_VecMathTests@aos@shdfnd@physx@@YAXXZ 0000000180001010 f   Cooking.obj
 0001:00000020       ??__EmaxV4Error@_VecMathTests@aos@shdfnd@physx@@YAXXZ 0000000180001020 f   Cooking.obj
 0001:00000030       ??__EminFError@_VecMathTests@aos@shdfnd@physx@@YAXXZ 0000000180001030 f   Cooking.obj
 0001:00000040       ??__EminV3Error@_VecMathTests@aos@shdfnd@physx@@YAXXZ 0000000180001040 f   Cooking.obj
 0001:00000050       ??__EminV4Error@_VecMathTests@aos@shdfnd@physx@@YAXXZ 0000000180001050 f   Cooking.obj
 0001:00000060       ??__EmaxFError@_VecMathTests@aos@shdfnd@physx@@YAXXZ 0000000180001060 f   BVHStructureBuilder.obj
 0001:00000070       ??__EmaxV3Error@_VecMathTests@aos@shdfnd@physx@@YAXXZ 0000000180001070 f   BVHStructureBuilder.obj
 0001:00000080       ??__EmaxV4Error@_VecMathTests@aos@shdfnd@physx@@YAXXZ 0000000180001080 f   BVHStructureBuilder.obj
 0001:00000090       ??__EminFError@_VecMathTests@aos@shdfnd@physx@@YAXXZ 0000000180001090 f   BVHStructureBuilder.obj
 0001:000000a0       ??__EminV3Error@_VecMathTests@aos@shdfnd@physx@@YAXXZ 00000001800010a0 f   BVHStructureBuilder.obj
 0001:000000b0       ??__EminV4Error@_VecMathTests@aos@shdfnd@physx@@YAXXZ 00000001800010b0 f   BVHStructureBuilder.obj
 0001:000000c0       ??__EmaxFError@_VecMathTests@aos@shdfnd@physx@@YAXXZ 00000001800010c0 f   RTreeCooking.obj
 0001:000000d0       ??__EmaxV3Error@_VecMathTests@aos@shdfnd@physx@@YAXXZ 00000001800010d0 f   RTreeCooking.obj
 0001:000000e0       ??__EmaxV4Error@_VecMathTests@aos@shdfnd@physx@@YAXXZ 00000001800010e0 f   RTreeCooking.obj
 0001:000000f0       ??__EminFError@_VecMathTests@aos@shdfnd@physx@@YAXXZ 00000001800010f0 f   RTreeCooking.obj
 0001:00000100       ??__EminV3Error@_VecMathTests@aos@shdfnd@physx@@YAXXZ 0000000180001100 f   RTreeCooking.obj
 0001:00000110       ??__EminV4Error@_VecMathTests@aos@shdfnd@physx@@YAXXZ 0000000180001110 f   RTreeCooking.obj
 0001:00000120       ??__EmaxFError@_VecMathTests@aos@shdfnd@physx@@YAXXZ 0000000180001120 f   MeshBuilder.obj
 0001:00000130       ??__EmaxV3Error@_VecMathTests@aos@shdfnd@physx@@YAXXZ 0000000180001130 f   MeshBuilder.obj
 0001:00000140       ??__EmaxV4Error@_VecMathTests@aos@shdfnd@physx@@YAXXZ 0000000180001140 f   MeshBuilder.obj
 0001:00000150       ??__EminFError@_VecMathTests@aos@shdfnd@physx@@YAXXZ 0000000180001150 f   MeshBuilder.obj
 0001:00000160       ??__EminV3Error@_VecMathTests@aos@shdfnd@physx@@YAXXZ 0000000180001160 f   MeshBuilder.obj
 0001:00000170       ??__EminV4Error@_VecMathTests@aos@shdfnd@physx@@YAXXZ 0000000180001170 f   MeshBuilder.obj
 0001:00000180       ??__EmaxFError@_VecMathTests@aos@shdfnd@physx@@YAXXZ 0000000180001180 f   TriangleMeshBuilder.obj
 0001:00000190       ??__EmaxV3Error@_VecMathTests@aos@shdfnd@physx@@YAXXZ 0000000180001190 f   TriangleMeshBuilder.obj
 0001:000001a0       ??__EmaxV4Error@_VecMathTests@aos@shdfnd@physx@@YAXXZ 00000001800011a0 f   TriangleMeshBuilder.obj
 0001:000001b0       ??__EminFError@_VecMathTests@aos@shdfnd@physx@@YAXXZ 00000001800011b0 f   TriangleMeshBuilder.obj
 0001:000001c0       ??__EminV3Error@_VecMathTests@aos@shdfnd@physx@@YAXXZ 00000001800011c0 f   TriangleMeshBuilder.obj
 0001:000001d0       ??__EminV4Error@_VecMathTests@aos@shdfnd@physx@@YAXXZ 00000001800011d0 f   TriangleMeshBuilder.obj
 0001:000001e0       ??__EmaxFError@_VecMathTests@aos@shdfnd@physx@@YAXXZ 00000001800011e0 f   BigConvexDataBuilder.obj
 0001:000001f0       ??__EmaxV3Error@_VecMathTests@aos@shdfnd@physx@@YAXXZ 00000001800011f0 f   BigConvexDataBuilder.obj
 0001:00000200       ??__EmaxV4Error@_VecMathTests@aos@shdfnd@physx@@YAXXZ 0000000180001200 f   BigConvexDataBuilder.obj
 0001:00000210       ??__EminFError@_VecMathTests@aos@shdfnd@physx@@YAXXZ 0000000180001210 f   BigConvexDataBuilder.obj
 0001:00000220       ??__EminV3Error@_VecMathTests@aos@shdfnd@physx@@YAXXZ 0000000180001220 f   BigConvexDataBuilder.obj
 0001:00000230       ??__EminV4Error@_VecMathTests@aos@shdfnd@physx@@YAXXZ 0000000180001230 f   BigConvexDataBuilder.obj
 0001:00000240       ??__EmaxFError@_VecMathTests@aos@shdfnd@physx@@YAXXZ 0000000180001240 f   ConvexHullBuilder.obj
 0001:00000250       ??__EmaxV3Error@_VecMathTests@aos@shdfnd@physx@@YAXXZ 0000000180001250 f   ConvexHullBuilder.obj
 0001:00000260       ??__EmaxV4Error@_VecMathTests@aos@shdfnd@physx@@YAXXZ 0000000180001260 f   ConvexHullBuilder.obj
 0001:00000270       ??__EminFError@_VecMathTests@aos@shdfnd@physx@@YAXXZ 0000000180001270 f   ConvexHullBuilder.obj
 0001:00000280       ??__EminV3Error@_VecMathTests@aos@shdfnd@physx@@YAXXZ 0000000180001280 f   ConvexHullBuilder.obj
 0001:00000290       ??__EminV4Error@_VecMathTests@aos@shdfnd@physx@@YAXXZ 0000000180001290 f   ConvexHullBuilder.obj
 0001:000002a0       ??__EmaxFError@_VecMathTests@aos@shdfnd@physx@@YAXXZ 00000001800012a0 f   ConvexHullUtils.obj
 0001:000002b0       ??__EmaxV3Error@_VecMathTests@aos@shdfnd@physx@@YAXXZ 00000001800012b0 f   ConvexHullUtils.obj
 0001:000002c0       ??__EmaxV4Error@_VecMathTests@aos@shdfnd@physx@@YAXXZ 00000001800012c0 f   ConvexHullUtils.obj
 0001:000002d0       ??__EminFError@_VecMathTests@aos@shdfnd@physx@@YAXXZ 00000001800012d0 f   ConvexHullUtils.obj
 0001:000002e0       ??__EminV3Error@_VecMathTests@aos@shdfnd@physx@@YAXXZ 00000001800012e0 f   ConvexHullUtils.obj
 0001:000002f0       ??__EminV4Error@_VecMathTests@aos@shdfnd@physx@@YAXXZ 00000001800012f0 f   ConvexHullUtils.obj
 0001:00000300       ??__EmaxFError@_VecMathTests@aos@shdfnd@physx@@YAXXZ 0000000180001300 f   ConvexMeshBuilder.obj
 0001:00000310       ??__EmaxV3Error@_VecMathTests@aos@shdfnd@physx@@YAXXZ 0000000180001310 f   ConvexMeshBuilder.obj
 0001:00000320       ??__EmaxV4Error@_VecMathTests@aos@shdfnd@physx@@YAXXZ 0000000180001320 f   ConvexMeshBuilder.obj
 0001:00000330       ??__EminFError@_VecMathTests@aos@shdfnd@physx@@YAXXZ 0000000180001330 f   ConvexMeshBuilder.obj
 0001:00000340       ??__EminV3Error@_VecMathTests@aos@shdfnd@physx@@YAXXZ 0000000180001340 f   ConvexMeshBuilder.obj
 0001:00000350       ??__EminV4Error@_VecMathTests@aos@shdfnd@physx@@YAXXZ 0000000180001350 f   ConvexMeshBuilder.obj
 0001:00000360       ??__EmaxFError@_VecMathTests@aos@shdfnd@physx@@YAXXZ 0000000180001360 f   VolumeIntegration.obj
 0001:00000370       ??__EmaxV3Error@_VecMathTests@aos@shdfnd@physx@@YAXXZ 0000000180001370 f   VolumeIntegration.obj
 0001:00000380       ??__EmaxV4Error@_VecMathTests@aos@shdfnd@physx@@YAXXZ 0000000180001380 f   VolumeIntegration.obj
 0001:00000390       ??__EminFError@_VecMathTests@aos@shdfnd@physx@@YAXXZ 0000000180001390 f   VolumeIntegration.obj
 0001:000003a0       ??__EminV3Error@_VecMathTests@aos@shdfnd@physx@@YAXXZ 00000001800013a0 f   VolumeIntegration.obj
 0001:000003b0       ??__EminV4Error@_VecMathTests@aos@shdfnd@physx@@YAXXZ 00000001800013b0 f   VolumeIntegration.obj
 0001:00000640       ?CreateDatabase@@YA_NPEAVAdjTriangle@physx@@IPEBVAdjEdge@@AEBUADJACENCIESCREATE@2@@Z 0000000180001640 f   Adjacencies.obj
 0001:00000c50       ?UpdateLink@@YA_NIIIIPEAVAdjTriangle@physx@@AEBUADJACENCIESCREATE@2@@Z 0000000180001c50 f   Adjacencies.obj
 0001:00008f00       ?buildFromBounds@physx@@YAXAEAURTree@Gu@1@PEBUPxBounds3V@1@IAEAV?$Array@IV?$ReflectionAllocator@I@shdfnd@physx@@@shdfnd@1@PEAURemapCallback@RTreeCooker@1@AEAT__m128@@4MW4Enum@PxMeshCookingHint@1@@Z 0000000180009f00 f   RTreeCooking.obj
 0001:0000ce70       ?buildAdjacencies@physx@@YAXPEAUuint4@1@PEAVPxVec3@1@PEBV31@PEBUuint3@1@I@Z 000000018000de70 f   TriangleMeshBuilder.obj
 0001:0000e5f0       ?findAdjacent@physx@@YAIPEBVPxVec3@1@0PEBUuint3@1@IIIAEBVPxPlane@1@PEAUEdgeTriLookup@1@I@Z 000000018000f5f0 f   TriangleMeshBuilder.obj
 0001:000134f0       ?checkPointsAABBValidity@local@@YA_NIPEBVPxVec3@physx@@IMMAEAV23@1AEAIPEAV23@_N@Z 00000001800144f0 f   ConvexHullLib.obj
 0001:00018940       ?ComputeInternalExtent@@YAXAEAUConvexHullData@Gu@physx@@PEBUHullPolygonData@23@@Z 0000000180019940 f   ConvexMeshBuilder.obj
 0001:00019d50       ?CheckFloodFillFace@Local@?7??extractHullPolygons@@YA_NAEAIAEAV?$Array@IV?$ReflectionAllocator@I@shdfnd@physx@@@shdfnd@physx@@AEBVConvexPolygonsBuilder@5@PEAV345@1@Z@SA_NIPEBVAdjTriangle@5@PEBI@Z 000000018001ad50 f   ConvexPolygonsBuilder.obj
 0001:0001a340       ?FloodFill@Local@?7??extractHullPolygons@@YA_NAEAIAEAV?$Array@IV?$ReflectionAllocator@I@shdfnd@physx@@@shdfnd@physx@@AEBVConvexPolygonsBuilder@5@PEAV345@1@Z@SAX1PEBVAdjTriangle@5@IPEA_N@Z 000000018001b340 f   ConvexPolygonsBuilder.obj
 0001:0001a420       ?TestDuplicateTriangles@@YA_NAEAIPEAU?$TriangleT@I@Gu@physx@@_N@Z 000000018001b420 f   ConvexPolygonsBuilder.obj
 0001:0001a5f0       ?checkRedundantVertices@@YAXAEAIAEAV?$Array@IV?$ReflectionAllocator@I@shdfnd@physx@@@shdfnd@physx@@AEBVConvexPolygonsBuilder@3@11@Z 000000018001b5f0 f   ConvexPolygonsBuilder.obj
 0001:0001d310       ?extractHullPolygons@@YA_NAEAIAEAV?$Array@IV?$ReflectionAllocator@I@shdfnd@physx@@@shdfnd@physx@@AEBVConvexPolygonsBuilder@3@PEAV123@1@Z 000000018001e310 f   ConvexPolygonsBuilder.obj
 0001:0001dd80       ?findLineStrip@@YA_NAEAV?$Array@IV?$ReflectionAllocator@I@shdfnd@physx@@@shdfnd@physx@@AEBV?$Array@VPair@@V?$ReflectionAllocator@VPair@@@shdfnd@physx@@@23@@Z 000000018001ed80 f   ConvexPolygonsBuilder.obj
 0001:00025790       ?computeVolumeIntegrals@VolumeIntegratorEberly@?A0xe4073fc3@physx@@QEAA_NAEAUPxIntegrals@3@AEBVPxVec3@3@@Z 0000000180026790 f   VolumeIntegration.obj
 0001:00026290       ?computeVolumeIntegralsSIMD@VolumeIntegratorEberly@?A0xe4073fc3@physx@@QEAA_NAEAUPxIntegrals@3@AEBVPxVec3@3@@Z 0000000180027290 f   VolumeIntegration.obj
 0001:00026950       $LN24                      0000000180027950     WindowsCookingDelayLoadHook.obj
 0001:00027480       $$000000                   0000000180028480     LIBCMT:chkstk.obj
 0001:000274e0       ?<lambda_invoker_cdecl>@_Closure_wrapper_807afafe_2@@CAXQEAX@Z 00000001800284e0 f   libvcruntime:std_type_info.obj
 0001:000274f0       $$000000                   00000001800284f0     LIBCMT:svml_ssinf4_dispatch.obj
 0001:00027560       ?dllmain_crt_dispatch@@YAHQEAUHINSTANCE__@@KQEAX@Z 0000000180028560 f   LIBCMT:dll_dllmain.obj
 0001:000275b0       ?dllmain_crt_process_attach@@YAHQEAUHINSTANCE__@@QEAX@Z 00000001800285b0 f   LIBCMT:dll_dllmain.obj
 0001:000276c8       ?dllmain_crt_process_detach@@YAH_N@Z 00000001800286c8 f   LIBCMT:dll_dllmain.obj
 0001:0002774c       ?dllmain_dispatch@@YAHQEAUHINSTANCE__@@KQEAX@Z 000000018002874c f   LIBCMT:dll_dllmain.obj
 0001:00027a70       $$000000                   0000000180028a70     LIBCMT:svml_ssinf4_sse2.obj
 0001:000283b0       $$000000                   00000001800293b0     LIBCMT:svml_ssinf4_sse4.obj
 0001:00029100       $$000000                   000000018002a100     LIBCMT:svml_s_sin_cout.obj
 0001:000291a4       ?<lambda_invoker_cdecl>@_Closure_wrapper_807afafe_1@@CAPEAX_K@Z 000000018002a1a4 f   libvcruntime:std_type_info.obj
 0001:00029320       $$000000                   000000018002a320     libvcruntime:memset.obj
 0001:000294e0       $$000000                   000000018002a4e0     libvcruntime:memcpy.obj
 0001:0002a66c       ??1TrackRecursion@?1??getDecoratedName@UnDecorator@@CA?AVDName@@XZ@QEAA@XZ 000000018002b66c f   libvcruntime:undname.obj
 0001:00031e70       $$000000                   0000000180032e70     libvcruntime:notify.obj
 0001:00032de0       ?try_get_function@@YAPEAXW4function_id@?A0xa2c972ab@@QEBDQEBW4module_id@2@2@Z 0000000180033de0 f   libvcruntime:winapi_downlevel.obj
 0001:000332bc       ??$BuildCatchObjectHelperInternal@V__FrameHandler3@@@@YAHPEAUEHExceptionRecord@@PEAXPEBU_s_HandlerType@@PEBU_s_CatchableType@@@Z 00000001800342bc f   libvcruntime:frame.obj
 0001:000334bc       ??$BuildCatchObjectHelperInternal@V__FrameHandler4@@@@YAHPEAUEHExceptionRecord@@PEAXPEAUHandlerType4@FH4@@PEBU_s_CatchableType@@@Z 00000001800344bc f   libvcruntime:frame.obj
 0001:000336c0       ??$BuildCatchObjectInternal@V__FrameHandler3@@@@YAXPEAUEHExceptionRecord@@PEAXPEBU_s_HandlerType@@PEBU_s_CatchableType@@@Z 00000001800346c0 f   libvcruntime:frame.obj
 0001:00033780       ??$BuildCatchObjectInternal@V__FrameHandler4@@@@YAXPEAUEHExceptionRecord@@PEAXPEAUHandlerType4@FH4@@PEBU_s_CatchableType@@@Z 0000000180034780 f   libvcruntime:frame.obj
 0001:00033844       ??$CatchIt@V__FrameHandler3@@@@YAXPEAUEHExceptionRecord@@PEA_KPEAU_CONTEXT@@PEAU_xDISPATCHER_CONTEXT@@PEBU_s_FuncInfo@@PEBU_s_HandlerType@@PEBU_s_CatchableType@@PEBU_s_TryBlockMapEntry@@H1EE@Z 0000000180034844 f   libvcruntime:frame.obj
 0001:00033918       ??$CatchIt@V__FrameHandler4@@@@YAXPEAUEHExceptionRecord@@PEA_KPEAU_CONTEXT@@PEAU_xDISPATCHER_CONTEXT@@PEAUFuncInfo4@FH4@@PEAUHandlerType4@4@PEBU_s_CatchableType@@PEAUTryBlockMapEntry4@4@H1EE@Z 0000000180034918 f   libvcruntime:frame.obj
 0001:000339ec       ??$FindHandler@V__FrameHandler3@@@@YAXPEAUEHExceptionRecord@@PEA_KPEAU_CONTEXT@@PEAU_xDISPATCHER_CONTEXT@@PEBU_s_FuncInfo@@EH1@Z 00000001800349ec f   libvcruntime:frame.obj
 0001:00033eb4       ??$FindHandler@V__FrameHandler4@@@@YAXPEAUEHExceptionRecord@@PEA_KPEAU_CONTEXT@@PEAU_xDISPATCHER_CONTEXT@@PEAUFuncInfo4@FH4@@EH1@Z 0000000180034eb4 f   libvcruntime:frame.obj
 0001:000343b0       ??$FindHandlerForForeignException@V__FrameHandler3@@@@YAXPEAUEHExceptionRecord@@PEA_KPEAU_CONTEXT@@PEAU_xDISPATCHER_CONTEXT@@PEBU_s_FuncInfo@@HH1@Z 00000001800353b0 f   libvcruntime:frame.obj
 0001:000345c8       ??$FindHandlerForForeignException@V__FrameHandler4@@@@YAXPEAUEHExceptionRecord@@PEA_KPEAU_CONTEXT@@PEAU_xDISPATCHER_CONTEXT@@PEAUFuncInfo4@FH4@@HH1@Z 00000001800355c8 f   libvcruntime:frame.obj
 0001:00035808       ?ExFilterRethrow@@YAHPEAU_EXCEPTION_POINTERS@@PEAUEHExceptionRecord@@PEAH@Z 0000000180036808 f   libvcruntime:frame.obj
 0001:00035890       ?ExFilterRethrowFH4@@YAHPEAU_EXCEPTION_POINTERS@@PEAUEHExceptionRecord@@HPEAH@Z 0000000180036890 f   libvcruntime:frame.obj
 0001:00035dcc       ?IsInExceptionSpec@@YAEPEAUEHExceptionRecord@@PEBU_s_ESTypeList@@@Z 0000000180036dcc f   libvcruntime:frame.obj
 0001:00035ebc       ?Is_bad_exception_allowed@@YAEPEBU_s_ESTypeList@@@Z 0000000180036ebc f   libvcruntime:frame.obj
 0001:000361b0       $$000000                   00000001800371b0     libvcruntime:handlers.obj
 0001:00036410       $$000000                   0000000180037410     libucrt:strcmp.obj
 0001:00036880       $$000000                   0000000180037880     libucrt:cosf.obj
 0001:00036d80       $$000000                   0000000180037d80     libucrt:sinf.obj
 0001:00037738       ??$?RV<lambda_d80eeec6fff315bfe5c115232f3240e3>@@AEAV<lambda_6e4b09c48022b2350581041d5f6b0c4c>@@V<lambda_2358e3775559c9db80273638284d5e45>@@@?$__crt_seh_guarded_call@X@@QEAAX$$QEAV<lambda_d80eeec6fff315bfe5c115232f3240e3>@@AEAV<lambda_6e4b09c48022b2350581041d5f6b0c4c>@@$$QEAV<lambda_2358e3775559c9db80273638284d5e45>@@@Z 0000000180038738 f   libucrt:exit.obj
 0001:00037770       ??R<lambda_6e4b09c48022b2350581041d5f6b0c4c>@@QEBA@XZ 0000000180038770 f   libucrt:exit.obj
 0001:0003783c       ?common_exit@@YAXHW4_crt_exit_cleanup_mode@@W4_crt_exit_return_mode@@@Z 000000018003883c f   libucrt:exit.obj
 0001:00037904       ?exit_or_terminate_process@@YAXI@Z 0000000180038904 f   libucrt:exit.obj
 0001:00037938       ?should_call_terminate_process@@YA_NXZ 0000000180038938 f   libucrt:exit.obj
 0001:0003795c       ?try_cor_exit_process@@YAXI@Z 000000018003895c f   libucrt:exit.obj
 0001:000379f8       ??$parse_command_line@D@@YAXPEADPEAPEAD0PEA_K2@Z 00000001800389f8 f   libucrt:argv_parsing.obj
 0001:00037da8       ??$common_initialize_environment_nolock@D@@YAHXZ 0000000180038da8 f   libucrt:environment_initialization.obj
 0001:00037e1c       ??$create_environment@D@@YAQEAPEADQEAD@Z 0000000180038e1c f   libucrt:environment_initialization.obj
 0001:00037f2c       ??$free_environment@D@@YAXQEAPEAD@Z 0000000180038f2c f   libucrt:environment_initialization.obj
 0001:00037f2c       ??$free_environment@_W@@YAXQEAPEA_W@Z 0000000180038f2c f   libucrt:environment_initialization.obj
 0001:00037f70       ??$uninitialize_environment_internal@D@@YAXAEAPEAPEAD@Z 0000000180038f70 f   libucrt:environment_initialization.obj
 0001:00037f8c       ??$uninitialize_environment_internal@_W@@YAXAEAPEAPEA_W@Z 0000000180038f8c f   libucrt:environment_initialization.obj
 0001:00037ff4       ??$?RV<lambda_7777bce6b2f8c936911f934f8298dc43>@@AEAV<lambda_f03950bc5685219e0bcd2087efbe011e>@@V<lambda_3883c3dff614d5e0c5f61bb1ac94921c>@@@?$__crt_seh_guarded_call@H@@QEAAH$$QEAV<lambda_7777bce6b2f8c936911f934f8298dc43>@@AEAV<lambda_f03950bc5685219e0bcd2087efbe011e>@@$$QEAV<lambda_3883c3dff614d5e0c5f61bb1ac94921c>@@@Z 0000000180038ff4 f   libucrt:onexit.obj
 0001:00038030       ??R<lambda_f03950bc5685219e0bcd2087efbe011e>@@QEBA@XZ 0000000180039030 f   libucrt:onexit.obj
 0001:000381bc       initialize_global_variables 00000001800391bc f   libucrt:initialization.obj
 0001:000381d0       initialize_c               00000001800391d0 f   libucrt:initialization.obj
 0001:000381f4       initialize_environment     00000001800391f4 f   libucrt:initialization.obj
 0001:000381f4       initialize_global_state_isolation 00000001800391f4 f   libucrt:initialization.obj
 0001:000381f4       report_memory_leaks        00000001800391f4 f   libucrt:initialization.obj
 0001:000381f4       uninitialize_c             00000001800391f4 f   libucrt:initialization.obj
 0001:000381f4       uninitialize_global_state_isolation 00000001800391f4 f   libucrt:initialization.obj
 0001:000381f8       uninitialize_environment   00000001800391f8 f   libucrt:initialization.obj
 0001:00038208       initialize_pointers        0000000180039208 f   libucrt:initialization.obj
 0001:00038248       uninitialize_vcruntime     0000000180039248 f   libucrt:initialization.obj
 0001:00038250       uninitialize_allocated_memory 0000000180039250 f   libucrt:initialization.obj
 0001:00038290       uninitialize_allocated_io_buffers 0000000180039290 f   libucrt:initialization.obj
 0001:00038458       ??$common_vsprintf@Vformat_validation_base@__crt_stdio_output@@D@@YAH_KQEAD0QEBDAEAV__crt_cached_ptd_host@@1@Z 0000000180039458 f   libucrt:output.obj
 0001:0003a870       $$000000                   000000018003b870     libucrt:strncmp.obj
 0001:0003aa04       _call_matherr              000000018003ba04 f   libucrt:libm_error.obj
 0001:0003aa6c       _exception_enabled         000000018003ba6c f   libucrt:libm_error.obj
 0001:0003adb0       $$000000                   000000018003bdb0     libucrt:remainder_piby2f_forasm.obj
 0001:0003af00       $$000000                   000000018003bf00     libucrt:remainder_piby2_forfma3.obj
 0001:0003b17c       _sincosf_special           000000018003c17c f   libucrt:sincos_special.obj
 0001:0003b290       $$000000                   000000018003c290     libucrt:remainder_piby2f_forc.obj
 0001:0003b458       ??$?RV<lambda_0ae27a3a962d80f24befdcbee591983d>@@AEAV<lambda_8d0ee55de4b1038c4002e0adecdf1839>@@V<lambda_dc504788e8f1664fe9b84e20bfb512f2>@@@?$__crt_seh_guarded_call@X@@QEAAX$$QEAV<lambda_0ae27a3a962d80f24befdcbee591983d>@@AEAV<lambda_8d0ee55de4b1038c4002e0adecdf1839>@@$$QEAV<lambda_dc504788e8f1664fe9b84e20bfb512f2>@@@Z 000000018003c458 f   libucrt:per_thread_data.obj
 0001:0003b498       ??$?RV<lambda_2d41944a1d46af3157314b8a01080d33>@@AEAV<lambda_8f455de75cd7d7f24b4096f044d8b9e6>@@V<lambda_aa500f224e6afead328df44964fe2772>@@@?$__crt_seh_guarded_call@X@@QEAAX$$QEAV<lambda_2d41944a1d46af3157314b8a01080d33>@@AEAV<lambda_8f455de75cd7d7f24b4096f044d8b9e6>@@$$QEAV<lambda_aa500f224e6afead328df44964fe2772>@@@Z 000000018003c498 f   libucrt:per_thread_data.obj
 0001:0003b4d8       ??$?RV<lambda_aa87e3671a710a21b5dc78c0bdf72e11>@@AEAV<lambda_92619d2358a28f41a33ba319515a20b9>@@V<lambda_6992ecaafeb10aed2b74cb1fae11a551>@@@?$__crt_seh_guarded_call@X@@QEAAX$$QEAV<lambda_aa87e3671a710a21b5dc78c0bdf72e11>@@AEAV<lambda_92619d2358a28f41a33ba319515a20b9>@@$$QEAV<lambda_6992ecaafeb10aed2b74cb1fae11a551>@@@Z 000000018003c4d8 f   libucrt:per_thread_data.obj
 0001:0003b520       ??$?RV<lambda_f2e299630e499de9f9a165e60fcd3db5>@@AEAV<lambda_2ae9d31cdba2644fcbeaf08da7c24588>@@V<lambda_40d01ff24d0e7b3814fdbdcee8eab3c7>@@@?$__crt_seh_guarded_call@X@@QEAAX$$QEAV<lambda_f2e299630e499de9f9a165e60fcd3db5>@@AEAV<lambda_2ae9d31cdba2644fcbeaf08da7c24588>@@$$QEAV<lambda_40d01ff24d0e7b3814fdbdcee8eab3c7>@@@Z 000000018003c520 f   libucrt:per_thread_data.obj
 0001:0003b580       ?construct_ptd_array@@YAXQEAU__acrt_ptd@@@Z 000000018003c580 f   libucrt:per_thread_data.obj
 0001:0003b650       ?destroy_fls@@YAXPEAX@Z    000000018003c650 f   libucrt:per_thread_data.obj
 0001:0003b670       ?destroy_ptd_array@@YAXQEAU__acrt_ptd@@@Z 000000018003c670 f   libucrt:per_thread_data.obj
 0001:0003b768       ?replace_current_thread_locale_nolock@@YAXQEAU__acrt_ptd@@QEAU__crt_locale_data@@@Z 000000018003c768 f   libucrt:per_thread_data.obj
 0001:0003c1e8       ?<lambda_invoker_cdecl>@<lambda_a1ce4c8ae42411fd470c77163914f50e>@@CAHPEBX0@Z 000000018003d1e8 f   libucrt:argv_wildcards.obj
 0001:0003c504       ??$common_expand_argv_wildcards@D@@YAHQEAPEADQEAPEAPEAD@Z 000000018003d504 f   libucrt:argv_wildcards.obj
 0001:0003c748       ??$copy_and_add_argument_to_buffer@D@@YAHQEBD0_KAEAV?$argument_list@D@?A0x5f5c8891@@@Z 000000018003d748 f   libucrt:argv_wildcards.obj
 0001:0003c8cc       ??$expand_argument_wildcards@D@@YAHQEAD0AEAV?$argument_list@D@?A0x5f5c8891@@@Z 000000018003d8cc f   libucrt:argv_wildcards.obj
 0001:0003cf00       ??$?RV<lambda_efdfa57d1f175319df784efa44bb7b81>@@AEAV<lambda_5f0a4c1567f8adc6734073e5d1e1b35c>@@V<lambda_2e8a7d3640ea6ccb4c2413664c2db6fd>@@@?$__crt_seh_guarded_call@X@@QEAAX$$QEAV<lambda_efdfa57d1f175319df784efa44bb7b81>@@AEAV<lambda_5f0a4c1567f8adc6734073e5d1e1b35c>@@$$QEAV<lambda_2e8a7d3640ea6ccb4c2413664c2db6fd>@@@Z 000000018003df00 f   libucrt:mbctype.obj
 0001:0003d0d0       ?getSystemCP@@YAHH@Z       000000018003e0d0 f   libucrt:mbctype.obj
 0001:0003d150       ?setSBCS@@YAXPEAU__crt_multibyte_data@@@Z 000000018003e150 f   libucrt:mbctype.obj
 0001:0003d1e8       ?setSBUpLow@@YAXPEAU__crt_multibyte_data@@@Z 000000018003e1e8 f   libucrt:mbctype.obj
 0001:0003d3d0       ?setmbcp_internal@@YAHH_NQEAU__acrt_ptd@@QEAPEAU__crt_multibyte_data@@@Z 000000018003e3d0 f   libucrt:mbctype.obj
 0001:0003d640       ?update_thread_multibyte_data_internal@@YAPEAU__crt_multibyte_data@@QEAU__acrt_ptd@@QEAPEAU1@@Z 000000018003e640 f   libucrt:mbctype.obj
 0001:0003da34       ?x_ismbbtype_l@@YAHPEAU__crt_locale_pointers@@IHH@Z 000000018003ea34 f   libucrt:ismbbyte.obj
 0001:0003ddfc       ?try_get_function@@YAPEAXW4function_id@?A0x391cf84c@@QEBDQEBW4module_id@2@2@Z 000000018003edfc f   libucrt:winapi_thunks.obj
 0001:0003e2c0       ?initialize_inherited_file_handles_nolock@@YAXXZ 000000018003f2c0 f   libucrt:ioinit.obj
 0001:0003e3b0       ?initialize_stdio_handles_nolock@@YAXXZ 000000018003f3b0 f   libucrt:ioinit.obj
 0001:0003e690       ??$?RV<lambda_450d765d439847d4c735a33c368b5fc0>@@AEAV<lambda_44731a7d0e6d81c3e6aa82d741081786>@@V<lambda_601a2a7da3b7a96e9554ac7215c4b07c>@@@?$__crt_seh_guarded_call@P6AXH@Z@@QEAAP6AXH@Z$$QEAV<lambda_450d765d439847d4c735a33c368b5fc0>@@AEAV<lambda_44731a7d0e6d81c3e6aa82d741081786>@@$$QEAV<lambda_601a2a7da3b7a96e9554ac7215c4b07c>@@@Z 000000018003f690 f   libucrt:signal.obj
 0001:0003ea08       ??$?RV<lambda_842d9ff0dc9ef11c61343bbaebe7f885>@@AEAV<lambda_c5860995281e5c4ce005b3de8f5874ee>@@V<lambda_d90129c13df834fdcbf8d2b88dafcf2d>@@@?$__crt_seh_guarded_call@X@@QEAAX$$QEAV<lambda_842d9ff0dc9ef11c61343bbaebe7f885>@@AEAV<lambda_c5860995281e5c4ce005b3de8f5874ee>@@$$QEAV<lambda_d90129c13df834fdcbf8d2b88dafcf2d>@@@Z 000000018003fa08 f   libucrt:fflush.obj
 0001:0003eaa4       ??$?RV<lambda_886d6c58226a84441f68b9f2b8217b83>@@AEAV<lambda_ab61a845afdef5b7c387490eaf3616ee>@@V<lambda_f7f22ab5edc0698d5f6905b0d3f44752>@@@?$__crt_seh_guarded_call@X@@QEAAX$$QEAV<lambda_886d6c58226a84441f68b9f2b8217b83>@@AEAV<lambda_ab61a845afdef5b7c387490eaf3616ee>@@$$QEAV<lambda_f7f22ab5edc0698d5f6905b0d3f44752>@@@Z 000000018003faa4 f   libucrt:fflush.obj
 0001:0003eb88       ?common_flush_all@@YAH_N@Z 000000018003fb88 f   libucrt:fflush.obj
 0001:0003f344       ?fp_format_a@@YAHQEBNPEAD_KQEAD2H_NIW4__acrt_rounding_mode@@AEAV__crt_cached_ptd_host@@@Z 0000000180040344 f   libucrt:cvt.obj
 0001:0003f6dc       ?fp_format_e@@YAHQEBNQEAD_K12H_NIW4__acrt_rounding_mode@@AEAV__crt_cached_ptd_host@@@Z 00000001800406dc f   libucrt:cvt.obj
 0001:0003f7d8       ?fp_format_e_internal@@YAHQEAD_KH_NIQEAU_strflt@@2AEAV__crt_cached_ptd_host@@@Z 00000001800407d8 f   libucrt:cvt.obj
 0001:0003f9bc       ?fp_format_f@@YAHQEBNQEAD_K12HW4__acrt_rounding_mode@@AEAV__crt_cached_ptd_host@@@Z 00000001800409bc f   libucrt:cvt.obj
 0001:0003fa94       ?fp_format_f_internal@@YAHQEAD_KHQEAU_strflt@@_NAEAV__crt_cached_ptd_host@@@Z 0000000180040a94 f   libucrt:cvt.obj
 0001:0003fbec       ?fp_format_g@@YAHQEBNQEAD_K12H_NIW4__acrt_rounding_mode@@AEAV__crt_cached_ptd_host@@@Z 0000000180040bec f   libucrt:cvt.obj
 0001:0003fd40       ?should_round_up@@YA_NQEBN_KFW4__acrt_rounding_mode@@@Z 0000000180040d40 f   libucrt:cvt.obj
 0001:000404a8       ??$?RV<lambda_410d79af7f07d98d83a3f525b3859a53>@@AEAV<lambda_3e16ef9562a7dcce91392c22ab16ea36>@@V<lambda_38119f0e861e05405d8a144b9b982f0a>@@@?$__crt_seh_guarded_call@X@@QEAAX$$QEAV<lambda_410d79af7f07d98d83a3f525b3859a53>@@AEAV<lambda_3e16ef9562a7dcce91392c22ab16ea36>@@$$QEAV<lambda_38119f0e861e05405d8a144b9b982f0a>@@@Z 00000001800414a8 f   libucrt:wsetlocale.obj
 0001:00040690       $$000000                   0000000180041690     libucrt:fpsr.obj
 0001:00041390       fallbackMethod             0000000180042390 f   libucrt:strpbrk.obj
 0001:0004173c       $LN79                      000000018004273c     libucrt:strpbrk.obj
 0001:00041778       $LN78                      0000000180042778     libucrt:strpbrk.obj
 0001:000417b8       $LN77                      00000001800427b8     libucrt:strpbrk.obj
 0001:00041a24       ?__acrt_LCMapStringA_stat@@YAHPEAU__crt_locale_pointers@@PEB_WKPEBDHPEADHHH@Z 0000000180042a24 f   libucrt:lcmapstringa.obj
 0001:00041df0       ?initialize_multibyte@@YAHXZ 0000000180042df0 f   libucrt:multibyte_initializer.obj
 0001:00042288       ??$?RV<lambda_a37b2b86f63e897a80ea819b0eb08c01>@@AEAV<lambda_38ce7e780aa69e748d6df282ebc68efe>@@V<lambda_99fb1378e971ab6e7edea83e3a7a83a2>@@@?$__crt_seh_guarded_call@H@@QEAAH$$QEAV<lambda_a37b2b86f63e897a80ea819b0eb08c01>@@AEAV<lambda_38ce7e780aa69e748d6df282ebc68efe>@@$$QEAV<lambda_99fb1378e971ab6e7edea83e3a7a83a2>@@@Z 0000000180043288 f   libucrt:commit.obj
 0001:000423a8       ?write_double_translated_ansi_nolock@@YA?AUwrite_result@?A0x17268360@@HQEBDIAEAV__crt_cached_ptd_host@@@Z 00000001800433a8 f   libucrt:write.obj
 0001:00042820       ?write_text_ansi_nolock@@YA?AUwrite_result@?A0x17268360@@HQEBDI@Z 0000000180043820 f   libucrt:write.obj
 0001:00042924       ?write_text_utf16le_nolock@@YA?AUwrite_result@?A0x17268360@@HQEBDI@Z 0000000180043924 f   libucrt:write.obj
 0001:00042a40       ?write_text_utf8_nolock@@YA?AUwrite_result@?A0x17268360@@HQEBDI@Z 0000000180043a40 f   libucrt:write.obj
 0001:00043130       ?should_round_up@@YA_NQEBD0HW4__acrt_has_trailing_digits@@W4__acrt_rounding_mode@@@Z 0000000180044130 f   libucrt:_fptostr.obj
 0001:00044a3c       memcpy_s                   0000000180045a3c f   libucrt:cfout.obj
 0001:00044edc       ?free_crt_array_internal@@YAXQEAPEBX_K@Z 0000000180045edc f   libucrt:inittime.obj
 0001:00045084       ??$common_lseek_nolock@_J@@YA_JH_JHAEAV__crt_cached_ptd_host@@@Z 0000000180046084 f   libucrt:lseek.obj
 0001:00045174       ?_fclose_internal@@YAHQEAU_iobuf@@AEAV__crt_cached_ptd_host@@@Z 0000000180046174 f   libucrt:fclose.obj
 0001:000451f0       ?_fclose_nolock_internal@@YAHQEAU_iobuf@@AEAV__crt_cached_ptd_host@@@Z 00000001800461f0 f   libucrt:fclose.obj
 0001:00045520       $$000000                   0000000180046520     libucrt:log10.obj
 0001:000460e8       ??$?RV<lambda_ad8af0d99a0adf03d037d7dffe354bb5>@@AEAV<lambda_c9ba49e555ba839a7b07aa3fbecb7617>@@V<lambda_2f1ebd5d68526518146ae959c9e734c8>@@@?$__crt_seh_guarded_call@H@@QEAAH$$QEAV<lambda_ad8af0d99a0adf03d037d7dffe354bb5>@@AEAV<lambda_c9ba49e555ba839a7b07aa3fbecb7617>@@$$QEAV<lambda_2f1ebd5d68526518146ae959c9e734c8>@@@Z 00000001800470e8 f   libucrt:close.obj
 0001:00046384       common_control87           0000000180047384 f   libucrt:ieee.obj
 0001:00046640       _log_special_common        0000000180047640 f   libucrt:log_special.obj
 0001:00046830       $$000000                   0000000180047830     LIBCMT:amdsecgs.obj
 0001:00046aa0       capture_current_context    0000000180047aa0 f   LIBCMT:gs_report.obj
 0001:00046b10       capture_previous_context   0000000180047b10 f   LIBCMT:gs_report.obj
 0001:00046d80       $$000000                   0000000180047d80     libvcruntime:memcmp.obj
 0001:00046e60       $$000000                   0000000180047e60     LIBCMT:guard_dispatch.obj
 0001:00046e80       $$000000                   0000000180047e80     LIBCMT:guard_xfg_dispatch.obj
 0001:00046ea0       ?fin$0@?0??dllmain_crt_process_attach@@YAHQEAUHINSTANCE__@@QEAX@Z@4HA 0000000180047ea0 f   LIBCMT:dll_dllmain.obj
 0001:00046eb7       ?fin$0@?0??dllmain_crt_process_detach@@YAH_N@Z@4HA 0000000180047eb7 f   LIBCMT:dll_dllmain.obj
 0001:00046ed0       ?fin$1@?0??dllmain_crt_process_detach@@YAH_N@Z@4HA 0000000180047ed0 f   LIBCMT:dll_dllmain.obj
 0001:00046ee4       ?filt$0@?0??dllmain_dispatch@@YAHQEAUHINSTANCE__@@KQEAX@Z@4HA 0000000180047ee4 f   LIBCMT:dll_dllmain.obj
 0001:00046f1a       __scrt_is_nonwritable_in_current_image$filt$0 0000000180047f1a f   LIBCMT:utility.obj
 0001:00046f32       __DestructExceptionObject$filt$0 0000000180047f32 f   libvcruntime:ehhelpers.obj
 0001:00046fc8       ?dtor$0@?0??getDecoratedName@UnDecorator@@CA?AVDName@@XZ@4HA 0000000180047fc8 f   libvcruntime:undname.obj
 0001:00046fd4       __unDNameEx$fin$0          0000000180047fd4 f   libvcruntime:undname.obj
 0001:00046fea       ?filt$0@?0???$_CallSETranslator@V__FrameHandler3@@@@YAHPEAUEHExceptionRecord@@PEA_KPEAU_CONTEXT@@PEAU_xDISPATCHER_CONTEXT@@PEBU_s_FuncInfo@@K1H@Z@4HA 0000000180047fea f   libvcruntime:risctrnsctrl.obj
 0001:0004707b       ?filt$0@?0???$_CallSETranslator@V__FrameHandler4@@@@YAHPEAUEHExceptionRecord@@PEA_KPEAU_CONTEXT@@PEAU_xDISPATCHER_CONTEXT@@PEAUFuncInfo4@FH4@@K1H@Z@4HA 000000018004807b f   libvcruntime:risctrnsctrl.obj
 0001:0004711a       ?filt$0@?0??CxxCallCatchBlock@__FrameHandler3@@SAPEAXPEAU_EXCEPTION_RECORD@@@Z@4HA 000000018004811a f   libvcruntime:frame.obj
 0001:0004713f       ?fin$1@?0??CxxCallCatchBlock@__FrameHandler3@@SAPEAXPEAU_EXCEPTION_RECORD@@@Z@4HA 000000018004813f f   libvcruntime:frame.obj
 0001:000471b7       ?filt$0@?0??CxxCallCatchBlock@__FrameHandler4@@SAPEAXPEAU_EXCEPTION_RECORD@@@Z@4HA 00000001800481b7 f   libvcruntime:frame.obj
 0001:000471e6       ?fin$1@?0??CxxCallCatchBlock@__FrameHandler4@@SAPEAXPEAU_EXCEPTION_RECORD@@@Z@4HA 00000001800481e6 f   libvcruntime:frame.obj
 0001:00047269       ?filt$0@?0??FrameUnwindToState@__FrameHandler3@@SAXPEA_KPEAU_xDISPATCHER_CONTEXT@@PEBU_s_FuncInfo@@H@Z@4HA 0000000180048269 f   libvcruntime:frame.obj
 0001:0004727f       ?fin$1@?0??FrameUnwindToState@__FrameHandler3@@SAXPEA_KPEAU_xDISPATCHER_CONTEXT@@PEBU_s_FuncInfo@@H@Z@4HA 000000018004827f f   libvcruntime:frame.obj
 0001:000472a2       ?filt$0@?0??FrameUnwindToState@__FrameHandler4@@SAXPEA_KPEAU_xDISPATCHER_CONTEXT@@PEAUFuncInfo4@FH4@@H@Z@4HA 00000001800482a2 f   libvcruntime:frame.obj
 0001:000472b8       ?fin$1@?0??FrameUnwindToState@__FrameHandler4@@SAXPEA_KPEAU_xDISPATCHER_CONTEXT@@PEAUFuncInfo4@FH4@@H@Z@4HA 00000001800482b8 f   libvcruntime:frame.obj
 0001:000472db       ?fin$0@?0???$?RV<lambda_0ae27a3a962d80f24befdcbee591983d>@@AEAV<lambda_8d0ee55de4b1038c4002e0adecdf1839>@@V<lambda_dc504788e8f1664fe9b84e20bfb512f2>@@@?$__crt_seh_guarded_call@X@@QEAAX$$QEAV<lambda_0ae27a3a962d80f24befdcbee591983d>@@AEAV<lambda_8d0ee55de4b1038c4002e0adecdf1839>@@$$QEAV<lambda_dc504788e8f1664fe9b84e20bfb512f2>@@@Z@4HA 00000001800482db f   libucrt:per_thread_data.obj
 0001:000472db       ?fin$0@?0???$?RV<lambda_2d41944a1d46af3157314b8a01080d33>@@AEAV<lambda_8f455de75cd7d7f24b4096f044d8b9e6>@@V<lambda_aa500f224e6afead328df44964fe2772>@@@?$__crt_seh_guarded_call@X@@QEAAX$$QEAV<lambda_2d41944a1d46af3157314b8a01080d33>@@AEAV<lambda_8f455de75cd7d7f24b4096f044d8b9e6>@@$$QEAV<lambda_aa500f224e6afead328df44964fe2772>@@@Z@4HA 00000001800482db f   libucrt:per_thread_data.obj
 0001:000472db       ?fin$0@?0???$?RV<lambda_aa87e3671a710a21b5dc78c0bdf72e11>@@AEAV<lambda_92619d2358a28f41a33ba319515a20b9>@@V<lambda_6992ecaafeb10aed2b74cb1fae11a551>@@@?$__crt_seh_guarded_call@X@@QEAAX$$QEAV<lambda_aa87e3671a710a21b5dc78c0bdf72e11>@@AEAV<lambda_92619d2358a28f41a33ba319515a20b9>@@$$QEAV<lambda_6992ecaafeb10aed2b74cb1fae11a551>@@@Z@4HA 00000001800482db f   libucrt:per_thread_data.obj
 0001:000472db       ?fin$0@?0???$?RV<lambda_f2e299630e499de9f9a165e60fcd3db5>@@AEAV<lambda_2ae9d31cdba2644fcbeaf08da7c24588>@@V<lambda_40d01ff24d0e7b3814fdbdcee8eab3c7>@@@?$__crt_seh_guarded_call@X@@QEAAX$$QEAV<lambda_f2e299630e499de9f9a165e60fcd3db5>@@AEAV<lambda_2ae9d31cdba2644fcbeaf08da7c24588>@@$$QEAV<lambda_40d01ff24d0e7b3814fdbdcee8eab3c7>@@@Z@4HA 00000001800482db f   libucrt:per_thread_data.obj
 0001:000472db       ?fin$0@?0???$?RV<lambda_450d765d439847d4c735a33c368b5fc0>@@AEAV<lambda_44731a7d0e6d81c3e6aa82d741081786>@@V<lambda_601a2a7da3b7a96e9554ac7215c4b07c>@@@?$__crt_seh_guarded_call@P6AXH@Z@@QEAAP6AXH@Z$$QEAV<lambda_450d765d439847d4c735a33c368b5fc0>@@AEAV<lambda_44731a7d0e6d81c3e6aa82d741081786>@@$$QEAV<lambda_601a2a7da3b7a96e9554ac7215c4b07c>@@@Z@4HA 00000001800482db f   libucrt:signal.obj
 0001:000472db       ?fin$0@?0???$?RV<lambda_d80eeec6fff315bfe5c115232f3240e3>@@AEAV<lambda_6e4b09c48022b2350581041d5f6b0c4c>@@V<lambda_2358e3775559c9db80273638284d5e45>@@@?$__crt_seh_guarded_call@X@@QEAAX$$QEAV<lambda_d80eeec6fff315bfe5c115232f3240e3>@@AEAV<lambda_6e4b09c48022b2350581041d5f6b0c4c>@@$$QEAV<lambda_2358e3775559c9db80273638284d5e45>@@@Z@4HA 00000001800482db f   libucrt:exit.obj
 0001:000472db       ?fin$0@?0???$?RV<lambda_7777bce6b2f8c936911f934f8298dc43>@@AEAV<lambda_f03950bc5685219e0bcd2087efbe011e>@@V<lambda_3883c3dff614d5e0c5f61bb1ac94921c>@@@?$__crt_seh_guarded_call@H@@QEAAH$$QEAV<lambda_7777bce6b2f8c936911f934f8298dc43>@@AEAV<lambda_f03950bc5685219e0bcd2087efbe011e>@@$$QEAV<lambda_3883c3dff614d5e0c5f61bb1ac94921c>@@@Z@4HA 00000001800482db f   libucrt:onexit.obj
 0001:000472f5       ?filt$0@?0???R<lambda_6e4b09c48022b2350581041d5f6b0c4c>@@QEBA@XZ@4HA 00000001800482f5 f   libucrt:exit.obj
 0001:00047322       _ctrlfp$filt$0             0000000180048322 f   libucrt:fpctrl.obj
 0001:00047322       common_control87$filt$0    0000000180048322 f   libucrt:ieee.obj
 0001:0004734e       ?fin$0@?0???$?RV<lambda_efdfa57d1f175319df784efa44bb7b81>@@AEAV<lambda_5f0a4c1567f8adc6734073e5d1e1b35c>@@V<lambda_2e8a7d3640ea6ccb4c2413664c2db6fd>@@@?$__crt_seh_guarded_call@X@@QEAAX$$QEAV<lambda_efdfa57d1f175319df784efa44bb7b81>@@AEAV<lambda_5f0a4c1567f8adc6734073e5d1e1b35c>@@$$QEAV<lambda_2e8a7d3640ea6ccb4c2413664c2db6fd>@@@Z@4HA 000000018004834e f   libucrt:mbctype.obj
 0001:00047368       ?fin$0@?0??update_thread_multibyte_data_internal@@YAPEAU__crt_multibyte_data@@QEAU__acrt_ptd@@QEAPEAU1@@Z@4HA 0000000180048368 f   libucrt:mbctype.obj
 0001:00047381       __acrt_initialize_lowio$fin$0 0000000180048381 f   libucrt:ioinit.obj
 0001:00047381       __acrt_lowio_ensure_fh_exists$fin$0 0000000180048381 f   libucrt:osfinfo.obj
 0001:0004739a       _query_new_handler$fin$0   000000018004839a f   libucrt:new_handler.obj
 0001:000473b0       raise$fin$0                00000001800483b0 f   libucrt:signal.obj
 0001:000473d1       ?fin$0@?0???$?RV<lambda_842d9ff0dc9ef11c61343bbaebe7f885>@@AEAV<lambda_c5860995281e5c4ce005b3de8f5874ee>@@V<lambda_d90129c13df834fdcbf8d2b88dafcf2d>@@@?$__crt_seh_guarded_call@X@@QEAAX$$QEAV<lambda_842d9ff0dc9ef11c61343bbaebe7f885>@@AEAV<lambda_c5860995281e5c4ce005b3de8f5874ee>@@$$QEAV<lambda_d90129c13df834fdcbf8d2b88dafcf2d>@@@Z@4HA 00000001800483d1 f   libucrt:fflush.obj
 0001:000473ec       ?fin$0@?0???$?RV<lambda_886d6c58226a84441f68b9f2b8217b83>@@AEAV<lambda_ab61a845afdef5b7c387490eaf3616ee>@@V<lambda_f7f22ab5edc0698d5f6905b0d3f44752>@@@?$__crt_seh_guarded_call@X@@QEAAX$$QEAV<lambda_886d6c58226a84441f68b9f2b8217b83>@@AEAV<lambda_ab61a845afdef5b7c387490eaf3616ee>@@$$QEAV<lambda_f7f22ab5edc0698d5f6905b0d3f44752>@@@Z@4HA 00000001800483ec f   libucrt:fflush.obj
 0001:00047409       ?fin$0@?0???$?RV<lambda_410d79af7f07d98d83a3f525b3859a53>@@AEAV<lambda_3e16ef9562a7dcce91392c22ab16ea36>@@V<lambda_38119f0e861e05405d8a144b9b982f0a>@@@?$__crt_seh_guarded_call@X@@QEAAX$$QEAV<lambda_410d79af7f07d98d83a3f525b3859a53>@@AEAV<lambda_3e16ef9562a7dcce91392c22ab16ea36>@@$$QEAV<lambda_38119f0e861e05405d8a144b9b982f0a>@@@Z@4HA 0000000180048409 f   libucrt:wsetlocale.obj
 0001:00047423       __acrt_update_thread_locale_data$fin$0 0000000180048423 f   libucrt:locale_refcounting.obj
 0001:0004743c       ?fin$0@?0???$?RV<lambda_ad8af0d99a0adf03d037d7dffe354bb5>@@AEAV<lambda_c9ba49e555ba839a7b07aa3fbecb7617>@@V<lambda_2f1ebd5d68526518146ae959c9e734c8>@@@?$__crt_seh_guarded_call@H@@QEAAH$$QEAV<lambda_ad8af0d99a0adf03d037d7dffe354bb5>@@AEAV<lambda_c9ba49e555ba839a7b07aa3fbecb7617>@@$$QEAV<lambda_2f1ebd5d68526518146ae959c9e734c8>@@@Z@4HA 000000018004843c f   libucrt:close.obj
 0001:0004743c       ?fin$0@?0???$?RV<lambda_a37b2b86f63e897a80ea819b0eb08c01>@@AEAV<lambda_38ce7e780aa69e748d6df282ebc68efe>@@V<lambda_99fb1378e971ab6e7edea83e3a7a83a2>@@@?$__crt_seh_guarded_call@H@@QEAAH$$QEAV<lambda_a37b2b86f63e897a80ea819b0eb08c01>@@AEAV<lambda_38ce7e780aa69e748d6df282ebc68efe>@@$$QEAV<lambda_99fb1378e971ab6e7edea83e3a7a83a2>@@@Z@4HA 000000018004843c f   libucrt:commit.obj
 0001:00047456       _write_internal$fin$0      0000000180048456 f   libucrt:write.obj
 0001:0004746d       _fcloseall$fin$0           000000018004846d f   libucrt:closeall.obj
 0001:00047486       ?fin$0@?0??_fclose_internal@@YAHQEAU_iobuf@@AEAV__crt_cached_ptd_host@@@Z@4HA 0000000180048486 f   libucrt:fclose.obj
 0001:000474a0       _IsNonwritableInCurrentImage$filt$0 00000001800484a0 f   LIBCMT:pesect.obj
 0002:000002a8       ?minFError$initializer$@_VecMathTests@aos@shdfnd@physx@@3P6AXXZEA 00000001800492a8     Cooking.obj
 0002:000002b0       ?maxFError$initializer$@_VecMathTests@aos@shdfnd@physx@@3P6AXXZEA 00000001800492b0     Cooking.obj
 0002:000002b8       ?minV3Error$initializer$@_VecMathTests@aos@shdfnd@physx@@3P6AXXZEA 00000001800492b8     Cooking.obj
 0002:000002c0       ?maxV3Error$initializer$@_VecMathTests@aos@shdfnd@physx@@3P6AXXZEA 00000001800492c0     Cooking.obj
 0002:000002c8       ?minV4Error$initializer$@_VecMathTests@aos@shdfnd@physx@@3P6AXXZEA 00000001800492c8     Cooking.obj
 0002:000002d0       ?maxV4Error$initializer$@_VecMathTests@aos@shdfnd@physx@@3P6AXXZEA 00000001800492d0     Cooking.obj
 0002:000002d8       ?minFError$initializer$@_VecMathTests@aos@shdfnd@physx@@3P6AXXZEA 00000001800492d8     BVHStructureBuilder.obj
 0002:000002e0       ?maxFError$initializer$@_VecMathTests@aos@shdfnd@physx@@3P6AXXZEA 00000001800492e0     BVHStructureBuilder.obj
 0002:000002e8       ?minV3Error$initializer$@_VecMathTests@aos@shdfnd@physx@@3P6AXXZEA 00000001800492e8     BVHStructureBuilder.obj
 0002:000002f0       ?maxV3Error$initializer$@_VecMathTests@aos@shdfnd@physx@@3P6AXXZEA 00000001800492f0     BVHStructureBuilder.obj
 0002:000002f8       ?minV4Error$initializer$@_VecMathTests@aos@shdfnd@physx@@3P6AXXZEA 00000001800492f8     BVHStructureBuilder.obj
 0002:00000300       ?maxV4Error$initializer$@_VecMathTests@aos@shdfnd@physx@@3P6AXXZEA 0000000180049300     BVHStructureBuilder.obj
 0002:00000308       ?minFError$initializer$@_VecMathTests@aos@shdfnd@physx@@3P6AXXZEA 0000000180049308     RTreeCooking.obj
 0002:00000310       ?maxFError$initializer$@_VecMathTests@aos@shdfnd@physx@@3P6AXXZEA 0000000180049310     RTreeCooking.obj
 0002:00000318       ?minV3Error$initializer$@_VecMathTests@aos@shdfnd@physx@@3P6AXXZEA 0000000180049318     RTreeCooking.obj
 0002:00000320       ?maxV3Error$initializer$@_VecMathTests@aos@shdfnd@physx@@3P6AXXZEA 0000000180049320     RTreeCooking.obj
 0002:00000328       ?minV4Error$initializer$@_VecMathTests@aos@shdfnd@physx@@3P6AXXZEA 0000000180049328     RTreeCooking.obj
 0002:00000330       ?maxV4Error$initializer$@_VecMathTests@aos@shdfnd@physx@@3P6AXXZEA 0000000180049330     RTreeCooking.obj
 0002:00000338       ?minFError$initializer$@_VecMathTests@aos@shdfnd@physx@@3P6AXXZEA 0000000180049338     MeshBuilder.obj
 0002:00000340       ?maxFError$initializer$@_VecMathTests@aos@shdfnd@physx@@3P6AXXZEA 0000000180049340     MeshBuilder.obj
 0002:00000348       ?minV3Error$initializer$@_VecMathTests@aos@shdfnd@physx@@3P6AXXZEA 0000000180049348     MeshBuilder.obj
 0002:00000350       ?maxV3Error$initializer$@_VecMathTests@aos@shdfnd@physx@@3P6AXXZEA 0000000180049350     MeshBuilder.obj
 0002:00000358       ?minV4Error$initializer$@_VecMathTests@aos@shdfnd@physx@@3P6AXXZEA 0000000180049358     MeshBuilder.obj
 0002:00000360       ?maxV4Error$initializer$@_VecMathTests@aos@shdfnd@physx@@3P6AXXZEA 0000000180049360     MeshBuilder.obj
 0002:00000368       ?minFError$initializer$@_VecMathTests@aos@shdfnd@physx@@3P6AXXZEA 0000000180049368     TriangleMeshBuilder.obj
 0002:00000370       ?maxFError$initializer$@_VecMathTests@aos@shdfnd@physx@@3P6AXXZEA 0000000180049370     TriangleMeshBuilder.obj
 0002:00000378       ?minV3Error$initializer$@_VecMathTests@aos@shdfnd@physx@@3P6AXXZEA 0000000180049378     TriangleMeshBuilder.obj
 0002:00000380       ?maxV3Error$initializer$@_VecMathTests@aos@shdfnd@physx@@3P6AXXZEA 0000000180049380     TriangleMeshBuilder.obj
 0002:00000388       ?minV4Error$initializer$@_VecMathTests@aos@shdfnd@physx@@3P6AXXZEA 0000000180049388     TriangleMeshBuilder.obj
 0002:00000390       ?maxV4Error$initializer$@_VecMathTests@aos@shdfnd@physx@@3P6AXXZEA 0000000180049390     TriangleMeshBuilder.obj
 0002:00000398       ?minFError$initializer$@_VecMathTests@aos@shdfnd@physx@@3P6AXXZEA 0000000180049398     BigConvexDataBuilder.obj
 0002:000003a0       ?maxFError$initializer$@_VecMathTests@aos@shdfnd@physx@@3P6AXXZEA 00000001800493a0     BigConvexDataBuilder.obj
 0002:000003a8       ?minV3Error$initializer$@_VecMathTests@aos@shdfnd@physx@@3P6AXXZEA 00000001800493a8     BigConvexDataBuilder.obj
 0002:000003b0       ?maxV3Error$initializer$@_VecMathTests@aos@shdfnd@physx@@3P6AXXZEA 00000001800493b0     BigConvexDataBuilder.obj
 0002:000003b8       ?minV4Error$initializer$@_VecMathTests@aos@shdfnd@physx@@3P6AXXZEA 00000001800493b8     BigConvexDataBuilder.obj
 0002:000003c0       ?maxV4Error$initializer$@_VecMathTests@aos@shdfnd@physx@@3P6AXXZEA 00000001800493c0     BigConvexDataBuilder.obj
 0002:000003c8       ?minFError$initializer$@_VecMathTests@aos@shdfnd@physx@@3P6AXXZEA 00000001800493c8     ConvexHullBuilder.obj
 0002:000003d0       ?maxFError$initializer$@_VecMathTests@aos@shdfnd@physx@@3P6AXXZEA 00000001800493d0     ConvexHullBuilder.obj
 0002:000003d8       ?minV3Error$initializer$@_VecMathTests@aos@shdfnd@physx@@3P6AXXZEA 00000001800493d8     ConvexHullBuilder.obj
 0002:000003e0       ?maxV3Error$initializer$@_VecMathTests@aos@shdfnd@physx@@3P6AXXZEA 00000001800493e0     ConvexHullBuilder.obj
 0002:000003e8       ?minV4Error$initializer$@_VecMathTests@aos@shdfnd@physx@@3P6AXXZEA 00000001800493e8     ConvexHullBuilder.obj
 0002:000003f0       ?maxV4Error$initializer$@_VecMathTests@aos@shdfnd@physx@@3P6AXXZEA 00000001800493f0     ConvexHullBuilder.obj
 0002:000003f8       ?minFError$initializer$@_VecMathTests@aos@shdfnd@physx@@3P6AXXZEA 00000001800493f8     ConvexHullUtils.obj
 0002:00000400       ?maxFError$initializer$@_VecMathTests@aos@shdfnd@physx@@3P6AXXZEA 0000000180049400     ConvexHullUtils.obj
 0002:00000408       ?minV3Error$initializer$@_VecMathTests@aos@shdfnd@physx@@3P6AXXZEA 0000000180049408     ConvexHullUtils.obj
 0002:00000410       ?maxV3Error$initializer$@_VecMathTests@aos@shdfnd@physx@@3P6AXXZEA 0000000180049410     ConvexHullUtils.obj
 0002:00000418       ?minV4Error$initializer$@_VecMathTests@aos@shdfnd@physx@@3P6AXXZEA 0000000180049418     ConvexHullUtils.obj
 0002:00000420       ?maxV4Error$initializer$@_VecMathTests@aos@shdfnd@physx@@3P6AXXZEA 0000000180049420     ConvexHullUtils.obj
 0002:00000428       ?minFError$initializer$@_VecMathTests@aos@shdfnd@physx@@3P6AXXZEA 0000000180049428     ConvexMeshBuilder.obj
 0002:00000430       ?maxFError$initializer$@_VecMathTests@aos@shdfnd@physx@@3P6AXXZEA 0000000180049430     ConvexMeshBuilder.obj
 0002:00000438       ?minV3Error$initializer$@_VecMathTests@aos@shdfnd@physx@@3P6AXXZEA 0000000180049438     ConvexMeshBuilder.obj
 0002:00000440       ?maxV3Error$initializer$@_VecMathTests@aos@shdfnd@physx@@3P6AXXZEA 0000000180049440     ConvexMeshBuilder.obj
 0002:00000448       ?minV4Error$initializer$@_VecMathTests@aos@shdfnd@physx@@3P6AXXZEA 0000000180049448     ConvexMeshBuilder.obj
 0002:00000450       ?maxV4Error$initializer$@_VecMathTests@aos@shdfnd@physx@@3P6AXXZEA 0000000180049450     ConvexMeshBuilder.obj
 0002:00000458       ?minFError$initializer$@_VecMathTests@aos@shdfnd@physx@@3P6AXXZEA 0000000180049458     VolumeIntegration.obj
 0002:00000460       ?maxFError$initializer$@_VecMathTests@aos@shdfnd@physx@@3P6AXXZEA 0000000180049460     VolumeIntegration.obj
 0002:00000468       ?minV3Error$initializer$@_VecMathTests@aos@shdfnd@physx@@3P6AXXZEA 0000000180049468     VolumeIntegration.obj
 0002:00000470       ?maxV3Error$initializer$@_VecMathTests@aos@shdfnd@physx@@3P6AXXZEA 0000000180049470     VolumeIntegration.obj
 0002:00000478       ?minV4Error$initializer$@_VecMathTests@aos@shdfnd@physx@@3P6AXXZEA 0000000180049478     VolumeIntegration.obj
 0002:00000480       ?maxV4Error$initializer$@_VecMathTests@aos@shdfnd@physx@@3P6AXXZEA 0000000180049480     VolumeIntegration.obj
 0002:00000610       ?minus1w@?A0x3009072f@aos@shdfnd@physx@@3QBMB 0000000180049610     Cooking.obj
 0002:00000620       ?gMaskXYZ@internalWindowsSimd@aos@shdfnd@physx@@3QBIB 0000000180049620     Cooking.obj
 0002:00000d90       ?minus1w@?A0xa1409f82@aos@shdfnd@physx@@3QBMB 0000000180049d90     BVHStructureBuilder.obj
 0002:00000da0       ?gMaskXYZ@internalWindowsSimd@aos@shdfnd@physx@@3QBIB 0000000180049da0     BVHStructureBuilder.obj
 0002:00000e20       ?minus1w@?A0xdc0674b5@aos@shdfnd@physx@@3QBMB 0000000180049e20     RTreeCooking.obj
 0002:00000e30       ?gMaskXYZ@internalWindowsSimd@aos@shdfnd@physx@@3QBIB 0000000180049e30     RTreeCooking.obj
 0002:00000e78       ?stopAtTrisPerPage@physx@@3QBIB 0000000180049e78     RTreeCooking.obj
 0002:00000eb8       ?stopAtTrisPerLeaf@physx@@3QBIB 0000000180049eb8     RTreeCooking.obj
 0002:00001060       ?minus1w@?A0x812a2155@aos@shdfnd@physx@@3QBMB 000000018004a060     MeshBuilder.obj
 0002:00001070       ?gMaskXYZ@internalWindowsSimd@aos@shdfnd@physx@@3QBIB 000000018004a070     MeshBuilder.obj
 0002:00001090       ?minus1w@?A0x811ea23b@aos@shdfnd@physx@@3QBMB 000000018004a090     TriangleMeshBuilder.obj
 0002:000010a0       ?gMaskXYZ@internalWindowsSimd@aos@shdfnd@physx@@3QBIB 000000018004a0a0     TriangleMeshBuilder.obj
 0002:00001460       ?minus1w@?A0x5670d472@aos@shdfnd@physx@@3QBMB 000000018004a460     BigConvexDataBuilder.obj
 0002:00001470       ?gMaskXYZ@internalWindowsSimd@aos@shdfnd@physx@@3QBIB 000000018004a470     BigConvexDataBuilder.obj
 0002:000014f0       ?minus1w@?A0x65e92ce7@aos@shdfnd@physx@@3QBMB 000000018004a4f0     ConvexHullBuilder.obj
 0002:00001500       ?gMaskXYZ@internalWindowsSimd@aos@shdfnd@physx@@3QBIB 000000018004a500     ConvexHullBuilder.obj
 0002:00001980       ?minus1w@?A0x1a88994b@aos@shdfnd@physx@@3QBMB 000000018004a980     ConvexHullUtils.obj
 0002:00001990       ?gMaskXYZ@internalWindowsSimd@aos@shdfnd@physx@@3QBIB 000000018004a990     ConvexHullUtils.obj
 0002:00001a30       ?minus1w@?A0xab4d8cb2@aos@shdfnd@physx@@3QBMB 000000018004aa30     ConvexMeshBuilder.obj
 0002:00001a40       ?gMaskXYZ@internalWindowsSimd@aos@shdfnd@physx@@3QBIB 000000018004aa40     ConvexMeshBuilder.obj
 0002:00001fa0       ?minus1w@?A0xe4073fc3@aos@shdfnd@physx@@3QBMB 000000018004afa0     VolumeIntegration.obj
 0002:00001fb0       ?gMaskXYZ@internalWindowsSimd@aos@shdfnd@physx@@3QBIB 000000018004afb0     VolumeIntegration.obj
 0002:00002130       L_abs_mask                 000000018004b130     LIBCMT:svml_ssinf4_dispatch.obj
 0002:00002140       L_real_one                 000000018004b140     LIBCMT:svml_ssinf4_dispatch.obj
 0002:00002150       L_one_half                 000000018004b150     LIBCMT:svml_ssinf4_dispatch.obj
 0002:00002160       L_two_to_neg_13            000000018004b160     LIBCMT:svml_ssinf4_dispatch.obj
 0002:00002170       L_pi_over_two              000000018004b170     LIBCMT:svml_ssinf4_dispatch.obj
 0002:00002180       L_pi_over_two2             000000018004b180     LIBCMT:svml_ssinf4_dispatch.obj
 0002:00002300       ?tokenTable@@3QBUStringLiteral@@B 000000018004b300     libvcruntime:undname.obj
 0002:00002400       ?nameTable@@3QBUStringLiteral@@B 000000018004b400     libvcruntime:undname.obj
 0002:00002930       ?rttiTable@@3QBUStringLiteral@@B 000000018004b930     libvcruntime:undname.obj
 0002:00002980       ?IndirectionName@@3QBUStringLiteral@@B 000000018004b980     libvcruntime:undname.obj
 0002:000029e0       ?PrefixName@@3QBUStringLiteral@@B 000000018004b9e0     libvcruntime:undname.obj
 0002:00003620       ?result@?1??IsValidIdentChar@@YA_ND@Z@4U<unnamed-type-result>@?1??InitValidIdentChar@@YA@XZ@B 000000018004c620     libvcruntime:undname.obj
 0002:00003790       ?ExceptionTemplate@?1??UnwindNestedFrames@__FrameHandler4@@SAXPEA_KPEAUEHExceptionRecord@@PEAU_CONTEXT@@0PEAXPEAUFuncInfo4@FH4@@HHPEAUHandlerType4@6@PEAU_xDISPATCHER_CONTEXT@@E@Z@4U_EXCEPTION_RECORD@@B 000000018004c790     libvcruntime:risctrnsctrl.obj
 0002:00003830       ?ExceptionTemplate@?1??UnwindNestedFrames@__FrameHandler3@@SAXPEA_KPEAUEHExceptionRecord@@PEAU_CONTEXT@@0PEAXPEBU_s_FuncInfo@@HHPEBU_s_HandlerType@@PEAU_xDISPATCHER_CONTEXT@@E@Z@4U_EXCEPTION_RECORD@@B 000000018004c830     libvcruntime:risctrnsctrl.obj
 0002:000038c8       ?module_names@?A0xa2c972ab@@3QBQEB_WB 000000018004c8c8     libvcruntime:winapi_downlevel.obj
 0002:00003988       ?candidate_modules@?1??try_get_FlsAlloc@@YAP6AKP6AXPEAX@Z@ZXZ@4QBW4module_id@?A0xa2c972ab@@B 000000018004c988     libvcruntime:winapi_downlevel.obj
 0002:000039a0       ?candidate_modules@?1??try_get_FlsFree@@YAP6AHK@ZXZ@4QBW4module_id@?A0xa2c972ab@@B 000000018004c9a0     libvcruntime:winapi_downlevel.obj
 0002:000039b0       ?candidate_modules@?1??try_get_FlsGetValue@@YAP6APEAXK@ZXZ@4QBW4module_id@?A0xa2c972ab@@B 000000018004c9b0     libvcruntime:winapi_downlevel.obj
 0002:000039c8       ?candidate_modules@?1??try_get_FlsSetValue@@YAP6AHKPEAX@ZXZ@4QBW4module_id@?A0xa2c972ab@@B 000000018004c9c8     libvcruntime:winapi_downlevel.obj
 0002:000039e0       ?candidate_modules@?1??try_get_InitializeCriticalSectionEx@@YAP6AHPEAU_RTL_CRITICAL_SECTION@@KK@ZXZ@4QBW4module_id@?A0xa2c972ab@@B 000000018004c9e0     libvcruntime:winapi_downlevel.obj
 0002:00003a60       ?atan_jby256@?1??atan2f@@9@9 000000018004ca60     libucrt:atan2f.obj
 0002:00004260       L_real_one                 000000018004d260     libucrt:cosf.obj
 0002:00004270       L_one_half                 000000018004d270     libucrt:cosf.obj
 0002:00004280       L_2bypi                    000000018004d280     libucrt:cosf.obj
 0002:00004290       L_one_sixth                000000018004d290     libucrt:cosf.obj
 0002:000042a0       L_piby2                    000000018004d2a0     libucrt:cosf.obj
 0002:000042b0       L_piby2_1                  000000018004d2b0     libucrt:cosf.obj
 0002:000042c0       L_piby2_1tail              000000018004d2c0     libucrt:cosf.obj
 0002:000042d0       L_piby2_2                  000000018004d2d0     libucrt:cosf.obj
 0002:000042e0       L_piby2_2tail              000000018004d2e0     libucrt:cosf.obj
 0002:000042f0       L_large_x_sse2             000000018004d2f0     libucrt:cosf.obj
 0002:00004300       L_large_x_fma3             000000018004d300     libucrt:cosf.obj
 0002:00004310       L_sign_mask                000000018004d310     libucrt:cosf.obj
 0002:00004320       L__int_three               000000018004d320     libucrt:cosf.obj
 0002:00004330       L__min_norm_double         000000018004d330     libucrt:cosf.obj
 0002:00004340       L_two_to_neg_7             000000018004d340     libucrt:cosf.obj
 0002:00004350       L_two_to_neg_13            000000018004d350     libucrt:cosf.obj
 0002:00004360       L_two_to_32_float          000000018004d360     libucrt:cosf.obj
 0002:00004368       L_one_float                000000018004d368     libucrt:cosf.obj
 0002:00004370       L_inf_mask_32              000000018004d370     libucrt:cosf.obj
 0002:00004380       L_signbit                  000000018004d380     libucrt:sinf.obj
 0002:00004390       L_sign_mask                000000018004d390     libucrt:sinf.obj
 0002:000043a0       L_one                      000000018004d3a0     libucrt:sinf.obj
 0002:000043b0       L_int_three                000000018004d3b0     libucrt:sinf.obj
 0002:000043c0       L_one_half                 000000018004d3c0     libucrt:sinf.obj
 0002:000043d0       L_twobypi                  000000018004d3d0     libucrt:sinf.obj
 0002:000043e0       L_piby2_1                  000000018004d3e0     libucrt:sinf.obj
 0002:000043f0       L_one_sixth                000000018004d3f0     libucrt:sinf.obj
 0002:00004400       L_piby2_1tail              000000018004d400     libucrt:sinf.obj
 0002:00004410       L_piby2_2                  000000018004d410     libucrt:sinf.obj
 0002:00004420       L_piby2_2tail              000000018004d420     libucrt:sinf.obj
 0002:00004430       L_inf_mask_32              000000018004d430     libucrt:sinf.obj
 0002:00004440       L_int_two                  000000018004d440     libucrt:sinf.obj
 0002:00004450       L_piby2_lead               000000018004d450     libucrt:sinf.obj
 0002:00004460       L_piby4                    000000018004d460     libucrt:sinf.obj
 0002:00004470       L_mask_3f2                 000000018004d470     libucrt:sinf.obj
 0002:00004480       L_mask_3f8                 000000018004d480     libucrt:sinf.obj
 0002:00004490       L_large_x_fma3             000000018004d490     libucrt:sinf.obj
 0002:00004498       L_large_x_sse2             000000018004d498     libucrt:sinf.obj
 0002:000044a0       L_near_one                 000000018004d4a0     libucrt:sinf.obj
 0002:000044a8       L_two_to_32                000000018004d4a8     libucrt:sinf.obj
 0002:00004588       $cppxdata$?try_cor_exit_process@@YAXI@Z 000000018004d588     libucrt:exit.obj
 0002:000045b0       $cppxdata$?common_exit@@YAXHW4_crt_exit_cleanup_mode@@W4_crt_exit_return_mode@@@Z 000000018004d5b0     libucrt:exit.obj
 0002:00004600       $cppxdata$__dcrt_uninitialize_environments_nolock 000000018004d600     libucrt:environment_initialization.obj
 0002:00004628       $cppxdata$_execute_onexit_table 000000018004d628     libucrt:onexit.obj
 0002:00004650       __acrt_initializers        000000018004d650     libucrt:initialization.obj
 0002:00004870       L__piby2                   000000018004d870     libucrt:remainder_piby2f_forasm.obj
 0002:00004880       L_piby2_lead               000000018004d880     libucrt:remainder_piby2_forfma3.obj
 0002:00004890       L_fff800                   000000018004d890     libucrt:remainder_piby2_forfma3.obj
 0002:000048a0       L_piby2_part1              000000018004d8a0     libucrt:remainder_piby2_forfma3.obj
 0002:000048b0       L_piby2_part2              000000018004d8b0     libucrt:remainder_piby2_forfma3.obj
 0002:000048c0       L_piby2_part3              000000018004d8c0     libucrt:remainder_piby2_forfma3.obj
 0002:000048d0       L_piby2_1                  000000018004d8d0     libucrt:remainder_piby2_forfma3.obj
 0002:000048e0       L_piby2_2                  000000018004d8e0     libucrt:remainder_piby2_forfma3.obj
 0002:000048f0       L_piby2_3                  000000018004d8f0     libucrt:remainder_piby2_forfma3.obj
 0002:00004900       L_piby2_1tail              000000018004d900     libucrt:remainder_piby2_forfma3.obj
 0002:00004910       L_piby2_2tail              000000018004d910     libucrt:remainder_piby2_forfma3.obj
 0002:00004920       L_piby2_3tail              000000018004d920     libucrt:remainder_piby2_forfma3.obj
 0002:00004930       L_sign_mask                000000018004d930     libucrt:remainder_piby2_forfma3.obj
 0002:00004940       L_twobypi                  000000018004d940     libucrt:remainder_piby2_forfma3.obj
 0002:00004950       L_point_five               000000018004d950     libucrt:remainder_piby2_forfma3.obj
 0002:00004960       L_int_three                000000018004d960     libucrt:remainder_piby2_forfma3.obj
 0002:00004970       L_inf_mask_64              000000018004d970     libucrt:remainder_piby2_forfma3.obj
 0002:00004980       L_signbit                  000000018004d980     libucrt:remainder_piby2_forfma3.obj
 0002:00004990       L_r                        000000018004d990     libucrt:remainder_piby2_forfma3.obj
 0002:000049a0       L_xc1                      000000018004d9a0     libucrt:remainder_piby2_forfma3.obj
 0002:000049b0       L_xc2                      000000018004d9b0     libucrt:remainder_piby2_forfma3.obj
 0002:000049c0       L_xc3                      000000018004d9c0     libucrt:remainder_piby2_forfma3.obj
 0002:000049d0       L_sigma                    000000018004d9d0     libucrt:remainder_piby2_forfma3.obj
 0002:00004ae0       L__piby2                   000000018004dae0     libucrt:remainder_piby2f_forc.obj
 0002:00004af0       L__2_by_pi_bits            000000018004daf0     libucrt:remainder_piby2f_forc.obj
 0002:00004b90       ?errtable@@3QBUerrentry@?A0x31fdb9ec@@B 000000018004db90     libucrt:errno.obj
 0002:00004cf8       ?_mb_locale_names@@3QBQEB_WB 000000018004dcf8     libucrt:mbctype.obj
 0002:00004d60       ?module_names@?A0x391cf84c@@3QBQEB_WB 000000018004dd60     libucrt:winapi_thunks.obj
 0002:000052b8       ?candidate_modules@?1??try_get_AreFileApisANSI@@YAP6AHXZXZ@4QBW4module_id@?A0x391cf84c@@B 000000018004e2b8     libucrt:winapi_thunks.obj
 0002:000052d0       ?candidate_modules@?1??try_get_InitializeCriticalSectionEx@@YAP6AHPEAU_RTL_CRITICAL_SECTION@@KK@ZXZ@4QBW4module_id@?A0x391cf84c@@B 000000018004e2d0     libucrt:winapi_thunks.obj
 0002:000052d8       ?candidate_modules@?1??try_get_LCMapStringEx@@YAP6AHPEB_WK0HPEA_WHPEAU_nlsversioninfo@@PEAX_J@ZXZ@4QBW4module_id@?A0x391cf84c@@B 000000018004e2d8     libucrt:winapi_thunks.obj
 0002:000052f0       ?candidate_modules@?1??try_get_LocaleNameToLCID@@YAP6AKPEB_WK@ZXZ@4QBW4module_id@?A0x391cf84c@@B 000000018004e2f0     libucrt:winapi_thunks.obj
 0002:0000530c       ?candidate_modules@?1??try_get_AppPolicyGetProcessTerminationMethod@@YAP6AJPEAXPEAW4AppPolicyProcessTerminationMethod@@@ZXZ@4QBW4module_id@?A0x391cf84c@@B 000000018004e30c     libucrt:winapi_thunks.obj
 0002:000059c0       ?strings@?1??fp_format_nan_or_infinity@@YAHW4__acrt_fp_class@@_NPEAD_K1@Z@4QAY03QEBDA 000000018004e9c0     libucrt:cvt.obj
 0002:000060a0       __real@433fffffffffffff    000000018004f0a0     libucrt:fpsr.obj
 0002:000060a8       __real@c33fffffffffffff    000000018004f0a8     libucrt:fpsr.obj
 0002:000060c0       ?LcidToLocaleNameTable@?A0x881e4c05@@3QBULcidToLocaleName@1@B 000000018004f0c0     libucrt:lcidtoname_downlevel.obj
 0002:00007b20       ?LocaleNameToIndexTable@?A0x881e4c05@@3QBULocaleNameIndex@1@B 0000000180050b20     libucrt:lcidtoname_downlevel.obj
 0002:000093b8       $cppxdata$?write_double_translated_ansi_nolock@@YA?AUwrite_result@?A0x17268360@@HQEBDIAEAV__crt_cached_ptd_host@@@Z 00000001800523b8     libucrt:write.obj
 0002:00009dd0       __real_ninf                0000000180052dd0     libucrt:log10.obj
 0002:00009de0       __real_inf                 0000000180052de0     libucrt:log10.obj
 0002:00009df0       __real_neg_qnan            0000000180052df0     libucrt:log10.obj
 0002:00009e00       __real_qnanbit             0000000180052e00     libucrt:log10.obj
 0002:00009e10       __int_1023                 0000000180052e10     libucrt:log10.obj
 0002:00009e20       __mask_001                 0000000180052e20     libucrt:log10.obj
 0002:00009e30       __mask_mant                0000000180052e30     libucrt:log10.obj
 0002:00009e40       __mask_mant_top8           0000000180052e40     libucrt:log10.obj
 0002:00009e50       __mask_mant9               0000000180052e50     libucrt:log10.obj
 0002:00009e60       __real_log10_e             0000000180052e60     libucrt:log10.obj
 0002:00009e70       __real_log10_e_lead        0000000180052e70     libucrt:log10.obj
 0002:00009e80       __real_log10_e_tail        0000000180052e80     libucrt:log10.obj
 0002:00009e90       __real_log10_2_lead        0000000180052e90     libucrt:log10.obj
 0002:00009ea0       __real_log10_2_tail        0000000180052ea0     libucrt:log10.obj
 0002:00009eb0       __real_two                 0000000180052eb0     libucrt:log10.obj
 0002:00009ec0       __real_one                 0000000180052ec0     libucrt:log10.obj
 0002:00009ed0       __real_half                0000000180052ed0     libucrt:log10.obj
 0002:00009ee0       __mask_100                 0000000180052ee0     libucrt:log10.obj
 0002:00009ef0       __real_1_over_512          0000000180052ef0     libucrt:log10.obj
 0002:00009f00       __real_1_over_2            0000000180052f00     libucrt:log10.obj
 0002:00009f10       __real_1_over_3            0000000180052f10     libucrt:log10.obj
 0002:00009f20       __real_1_over_4            0000000180052f20     libucrt:log10.obj
 0002:00009f30       __real_1_over_5            0000000180052f30     libucrt:log10.obj
 0002:00009f40       __real_1_over_6            0000000180052f40     libucrt:log10.obj
 0002:00009f50       __real_neg_1023            0000000180052f50     libucrt:log10.obj
 0002:00009f60       __mask_2045                0000000180052f60     libucrt:log10.obj
 0002:00009f70       __real_threshold           0000000180052f70     libucrt:log10.obj
 0002:00009f80       __real_near_one_lt         0000000180052f80     libucrt:log10.obj
 0002:00009f90       __real_near_one_gt         0000000180052f90     libucrt:log10.obj
 0002:00009fa0       __real_min_norm            0000000180052fa0     libucrt:log10.obj
 0002:00009fb0       __real_notsign             0000000180052fb0     libucrt:log10.obj
 0002:00009fc0       __real_ca1                 0000000180052fc0     libucrt:log10.obj
 0002:00009fd0       __real_ca2                 0000000180052fd0     libucrt:log10.obj
 0002:00009fe0       __real_ca3                 0000000180052fe0     libucrt:log10.obj
 0002:00009ff0       __real_ca4                 0000000180052ff0     libucrt:log10.obj
 0002:0000a000       __mask_lower               0000000180053000     libucrt:log10.obj
 0002:0000a010       __flag_x_zero              0000000180053010     libucrt:log10.obj
 0002:0000a014       __flag_x_neg               0000000180053014     libucrt:log10.obj
 0002:0000a018       __flag_x_nan               0000000180053018     libucrt:log10.obj
 0002:0000b860       GS_ExceptionPointers       0000000180054860     LIBCMT:gs_report.obj
 0002:0000c348       $unwind$??1Adjacencies@physx@@QEAA@XZ 0000000180055348     Adjacencies.obj
 0002:0000c348       $unwind$??_EPxFoundation@physx@@MEAAPEAXI@Z 0000000180055348     Adjacencies.obj
 0002:0000c348       $unwind$??0ConvexMeshBuilder@physx@@QEAA@_N@Z 0000000180055348     ConvexMeshBuilder.obj
 0002:0000c348       $unwind$?isFinite@PxVec3@physx@@QEBA_NXZ 0000000180055348     ConvexMeshBuilder.obj
 0002:0000c348       $unwind$??0ConvexPolygonsBuilder@physx@@QEAA@PEAUConvexHullData@Gu@1@_N@Z 0000000180055348     ConvexPolygonsBuilder.obj
 0002:0000c348       $unwind$??_GCooking@physx@@UEAAPEAXI@Z 0000000180055348     Cooking.obj
 0002:0000c348       $unwind$??_GPxBase@physx@@MEAAPEAXI@Z 0000000180055348     Cooking.obj
 0002:0000c348       $unwind$??_GPxCooking@physx@@MEAAPEAXI@Z 0000000180055348     Cooking.obj
 0002:0000c348       $unwind$?isKindOf@PxConvexMesh@physx@@MEBA_NPEBD@Z 0000000180055348     Cooking.obj
 0002:0000c348       $unwind$?isKindOf@PxHeightField@physx@@MEBA_NPEBD@Z 0000000180055348     Cooking.obj
 0002:0000c348       $unwind$??_GQuantizer@physx@@MEAAPEAXI@Z 0000000180055348     Quantizer.obj
 0002:0000c348       $unwind$??1RTreeTriangleData@Gu@physx@@UEAA@XZ 0000000180055348     TriangleMeshBuilder.obj
 0002:0000c348       $unwind$??1RTreeTriangleMeshBuilder@physx@@UEAA@XZ 0000000180055348     TriangleMeshBuilder.obj
 0002:0000c348       $unwind$??_GRTreeCookerRemap@physx@@UEAAPEAXI@Z 0000000180055348     TriangleMeshBuilder.obj
 0002:0000c348       $unwind$??_GRemapCallback@RTreeCooker@physx@@UEAAPEAXI@Z 0000000180055348     TriangleMeshBuilder.obj
 0002:0000c348       $unwind$_calloc_base       0000000180055348     libucrt:calloc_base.obj
 0002:0000c348       $unwind$_malloc_base       0000000180055348     libucrt:malloc_base.obj
 0002:0000c348       $unwind$initialize_pointers 0000000180055348     libucrt:initialization.obj
 0002:0000c348       $unwind$uninitialize_allocated_memory 0000000180055348     libucrt:initialization.obj
 0002:0000c348       $unwind$__acrt_initialize_locks 0000000180055348     libucrt:locks.obj
 0002:0000c348       $unwind$__acrt_uninitialize_locks 0000000180055348     libucrt:locks.obj
 0002:0000c348       $unwind$__acrt_freeptd     0000000180055348     libucrt:per_thread_data.obj
 0002:0000c348       $unwind$__acrt_getptd_head 0000000180055348     libucrt:per_thread_data.obj
 0002:0000c348       $unwind$__acrt_get_process_end_policy 0000000180055348     libucrt:win_policies.obj
 0002:0000c348       $unwind$__acrt_AppPolicyGetProcessTerminationMethodInternal 0000000180055348     libucrt:winapi_thunks.obj
 0002:0000c348       $unwind$__acrt_uninitialize_winapi_thunks 0000000180055348     libucrt:winapi_thunks.obj
 0002:0000c348       $unwind$__acrt_update_locale_info 0000000180055348     libucrt:locale_update.obj
 0002:0000c348       $unwind$__acrt_update_locale_info_explicit 0000000180055348     libucrt:locale_update.obj
 0002:0000c348       $unwind$__acrt_update_multibyte_info 0000000180055348     libucrt:locale_update.obj
 0002:0000c348       $unwind$__acrt_update_multibyte_info_explicit 0000000180055348     libucrt:locale_update.obj
 0002:0000c348       $unwind$__acrt_errno_map_os_error 0000000180055348     libucrt:errno.obj
 0002:0000c348       $unwind$__acrt_errno_map_os_error_ptd 0000000180055348     libucrt:errno.obj
 0002:0000c348       $unwind$__acrt_allocate_buffer_for_argv 0000000180055348     libucrt:argv_parsing.obj
 0002:0000c348       $unwind$?exit_or_terminate_process@@YAXI@Z 0000000180055348     libucrt:exit.obj
 0002:0000c348       $unwind$__acrt_uninitialize_stdio 0000000180055348     libucrt:_file.obj
 0002:0000c348       $unwind$__acrt_stdio_free_buffer_nolock 0000000180055348     libucrt:_freebuf.obj
 0002:0000c348       $unwind$?type_case_s@?$output_processor@DV?$string_output_adapter@D@__crt_stdio_output@@V?$format_validation_base@DV?$string_output_adapter@D@__crt_stdio_output@@@2@@__crt_stdio_output@@AEAA_NXZ 0000000180055348     libucrt:output.obj
 0002:0000c348       $unwind$strcpy_s           0000000180055348     libucrt:strcpy_s.obj
 0002:0000c348       $unwind$_clrfp             0000000180055348     libucrt:fpctrl.obj
 0002:0000c348       $unwind$_set_statfp        0000000180055348     libucrt:fpctrl.obj
 0002:0000c348       $unwind$_clearfp           0000000180055348     libucrt:ieee.obj
 0002:0000c348       $unwind$_controlfp_s       0000000180055348     libucrt:contrlfp.obj
 0002:0000c348       $unwind$fegetenv           0000000180055348     libucrt:fegetenv.obj
 0002:0000c348       $unwind$feholdexcept       0000000180055348     libucrt:feholdexcept.obj
 0002:0000c348       $unwind$?DloadAcquireSectionWriteAccess@@YAXXZ 0000000180055348     Delayimp:delayhlp.obj
 0002:0000c348       $unwind$__raise_securityfailure 0000000180055348     LIBCMT:gs_report.obj
 0002:0000c348       $unwind$??_Gtype_info@@UEAAPEAXI@Z 0000000180055348     LIBCMT:std_type_info_static.obj
 0002:0000c348       $unwind$__scrt_initialize_crt 0000000180055348     LIBCMT:utility.obj
 0002:0000c348       $unwind$__scrt_initialize_onexit_tables 0000000180055348     LIBCMT:utility.obj
 0002:0000c348       $unwind$__scrt_release_startup_lock 0000000180055348     LIBCMT:utility.obj
 0002:0000c348       $unwind$__scrt_uninitialize_crt 0000000180055348     LIBCMT:utility.obj
 0002:0000c348       $unwind$_IsExceptionObjectToBeDestroyed 0000000180055348     libvcruntime:ehhelpers.obj
 0002:0000c348       $unwind$?GetUnwindTryBlock@__FrameHandler3@@SAHPEA_KPEAU_xDISPATCHER_CONTEXT@@PEBU_s_FuncInfo@@@Z 0000000180055348     libvcruntime:ehstate.obj
 0002:0000c348       $unwind$?StateFromIp@__FrameHandler3@@SAHPEBU_s_FuncInfo@@PEAU_xDISPATCHER_CONTEXT@@_K@Z 0000000180055348     libvcruntime:ehstate.obj
 0002:0000c348       $unwind$??0HandlerMap4@FH4@@QEAA@PEBUTryBlockMapEntry4@1@_KH@Z 0000000180055348     libvcruntime:frame.obj
 0002:0000c348       $unwind$??0bad_exception@std@@QEAA@AEBV01@@Z 0000000180055348     libvcruntime:frame.obj
 0002:0000c348       $unwind$??0exception@std@@QEAA@AEBV01@@Z 0000000180055348     libvcruntime:frame.obj
 0002:0000c348       $unwind$?ExFilterRethrow@@YAHPEAU_EXCEPTION_POINTERS@@PEAUEHExceptionRecord@@PEAH@Z 0000000180055348     libvcruntime:frame.obj
 0002:0000c348       $unwind$__vcrt_uninitialize_locks 0000000180055348     libvcruntime:locks.obj
 0002:0000c348       $unwind$__vcrt_freeptd     0000000180055348     libvcruntime:per_thread_data.obj
 0002:0000c348       $unwind$?ExecutionInCatch@__FrameHandler3@@SA_NPEAU_xDISPATCHER_CONTEXT@@PEBU_s_FuncInfo@@@Z 0000000180055348     libvcruntime:risctrnsctrl.obj
 0002:0000c348       $unwind$_CreateFrameInfo   0000000180055348     libvcruntime:risctrnsctrl.obj
 0002:0000c348       $unwind$_SetImageBase      0000000180055348     libvcruntime:risctrnsctrl.obj
 0002:0000c348       $unwind$_SetThrowImageBase 0000000180055348     libvcruntime:risctrnsctrl.obj
 0002:0000c348       $unwind$__std_exception_destroy 0000000180055348     libvcruntime:std_exception.obj
 0002:0000c348       $unwind$__std_type_info_destroy_list 0000000180055348     libvcruntime:std_type_info.obj
 0002:0000c348       $unwind$??$?0$00@DName@@QEAA@PEBDU?$StringLifeSelector@$00@@@Z 0000000180055348     libvcruntime:undname.obj
 0002:0000c348       $unwind$??$?0$01@DName@@QEAA@PEBDU?$StringLifeSelector@$01@@@Z 0000000180055348     libvcruntime:undname.obj
 0002:0000c348       $unwind$??$?0$0A@@DName@@QEAA@PEBDU?$StringLifeSelector@$0A@@@@Z 0000000180055348     libvcruntime:undname.obj
 0002:0000c348       $unwind$??0DName@@QEAA@AEBUStringLiteral@@@Z 0000000180055348     libvcruntime:undname.obj
 0002:0000c348       $unwind$??HDName@@QEBA?AV0@AEBUStringLiteral@@@Z 0000000180055348     libvcruntime:undname.obj
 0002:0000c348       $unwind$??HDName@@QEBA?AV0@AEBV0@@Z 0000000180055348     libvcruntime:undname.obj
 0002:0000c348       $unwind$??HDName@@QEBA?AV0@D@Z 0000000180055348     libvcruntime:undname.obj
 0002:0000c348       $unwind$??HDName@@QEBA?AV0@W4DNameStatus@@@Z 0000000180055348     libvcruntime:undname.obj
 0002:0000c348       $unwind$??YDName@@QEAAAEAV0@AEBV0@@Z 0000000180055348     libvcruntime:undname.obj
 0002:0000c348       $unwind$??YDName@@QEAAAEAV0@W4DNameStatus@@@Z 0000000180055348     libvcruntime:undname.obj
 0002:0000c348       $unwind$?getLastChar@pairNode@@UEBADXZ 0000000180055348     libvcruntime:undname.obj
 0002:0000c348       $unwind$?getReturnType@UnDecorator@@CA?AVDName@@PEAV2@@Z 0000000180055348     libvcruntime:undname.obj
 0002:0000c348       $unwind$?getStringObject@UnDecorator@@CA?AVDName@@XZ 0000000180055348     libvcruntime:undname.obj
 0002:0000c348       $unwind$?getSymbolName@UnDecorator@@CA?AVDName@@XZ 0000000180055348     libvcruntime:undname.obj
 0002:0000c348       $unwind$?getValue@UnDecorator@@CA?AV?$optional@_K@std@@XZ 0000000180055348     libvcruntime:undname.obj
 0002:0000c348       $unwind$__vcrt_FlsAlloc    0000000180055348     libvcruntime:winapi_downlevel.obj
 0002:0000c348       $unwind$__vcrt_FlsFree     0000000180055348     libvcruntime:winapi_downlevel.obj
 0002:0000c348       $unwind$__vcrt_FlsGetValue 0000000180055348     libvcruntime:winapi_downlevel.obj
 0002:0000c350       $chain$0$??_EPxFoundation@physx@@MEAAPEAXI@Z 0000000180055350     Adjacencies.obj
 0002:0000c364       $chain$1$??_EPxFoundation@physx@@MEAAPEAXI@Z 0000000180055364     Adjacencies.obj
 0002:0000c374       $chain$0$??1Adjacencies@physx@@QEAA@XZ 0000000180055374     Adjacencies.obj
 0002:0000c388       $chain$2$??1Adjacencies@physx@@QEAA@XZ 0000000180055388     Adjacencies.obj
 0002:0000c39c       $chain$3$??1Adjacencies@physx@@QEAA@XZ 000000018005539c     Adjacencies.obj
 0002:0000c3ac       $unwind$?Init@AdjacenciesBuilder@physx@@QEAA_NAEBUADJACENCIESCREATE@2@@Z 00000001800553ac     Adjacencies.obj
 0002:0000c3c0       $chain$2$?Init@AdjacenciesBuilder@physx@@QEAA_NAEBUADJACENCIESCREATE@2@@Z 00000001800553c0     Adjacencies.obj
 0002:0000c3d4       $chain$3$?Init@AdjacenciesBuilder@physx@@QEAA_NAEBUADJACENCIESCREATE@2@@Z 00000001800553d4     Adjacencies.obj
 0002:0000c3e8       $chain$4$?Init@AdjacenciesBuilder@physx@@QEAA_NAEBUADJACENCIESCREATE@2@@Z 00000001800553e8     Adjacencies.obj
 0002:0000c3f8       $chain$5$?Init@AdjacenciesBuilder@physx@@QEAA_NAEBUADJACENCIESCREATE@2@@Z 00000001800553f8     Adjacencies.obj
 0002:0000c408       $unwind$??$?_UV?$ReflectionAllocator@VAdjTriangle@physx@@@shdfnd@physx@@@UserAllocated@shdfnd@physx@@SAPEAX_KV?$ReflectionAllocator@VAdjTriangle@physx@@@12@PEBDH@Z 0000000180055408     Adjacencies.obj
 0002:0000c408       $unwind$??$?_UE@@YAPEAX_KV?$ReflectionAllocator@E@shdfnd@physx@@PEBDH@Z 0000000180055408     ConvexHullBuilder.obj
 0002:0000c408       $unwind$??$?_UI@@YAPEAX_KV?$ReflectionAllocator@I@shdfnd@physx@@PEBDH@Z 0000000180055408     EdgeList.obj
 0002:0000c408       $unwind$?allocate@?$ReflectionAllocator@I@shdfnd@physx@@QEAAPEAX_KPEBDH@Z 0000000180055408     RTreeCooking.obj
 0002:0000c408       $unwind$??$?_UG@@YAPEAX_KV?$ReflectionAllocator@G@shdfnd@physx@@PEBDH@Z 0000000180055408     TriangleMeshBuilder.obj
 0002:0000c418       $chain$0$??$?_UV?$ReflectionAllocator@VAdjTriangle@physx@@@shdfnd@physx@@@UserAllocated@shdfnd@physx@@SAPEAX_KV?$ReflectionAllocator@VAdjTriangle@physx@@@12@PEBDH@Z 0000000180055418     Adjacencies.obj
 0002:0000c42c       $chain$1$??$?_UV?$ReflectionAllocator@VAdjTriangle@physx@@@shdfnd@physx@@@UserAllocated@shdfnd@physx@@SAPEAX_KV?$ReflectionAllocator@VAdjTriangle@physx@@@12@PEBDH@Z 000000018005542c     Adjacencies.obj
 0002:0000c43c       $unwind$?UpdateLink@@YA_NIIIIPEAVAdjTriangle@physx@@AEBUADJACENCIESCREATE@2@@Z 000000018005543c     Adjacencies.obj
 0002:0000c448       $chain$3$?UpdateLink@@YA_NIIIIPEAVAdjTriangle@physx@@AEBUADJACENCIESCREATE@2@@Z 0000000180055448     Adjacencies.obj
 0002:0000c468       $chain$5$?UpdateLink@@YA_NIIIIPEAVAdjTriangle@physx@@AEBUADJACENCIESCREATE@2@@Z 0000000180055468     Adjacencies.obj
 0002:0000c480       $chain$6$?UpdateLink@@YA_NIIIIPEAVAdjTriangle@physx@@AEBUADJACENCIESCREATE@2@@Z 0000000180055480     Adjacencies.obj
 0002:0000c490       $chain$7$?UpdateLink@@YA_NIIIIPEAVAdjTriangle@physx@@AEBUADJACENCIESCREATE@2@@Z 0000000180055490     Adjacencies.obj
 0002:0000c4a8       $chain$8$?UpdateLink@@YA_NIIIIPEAVAdjTriangle@physx@@AEBUADJACENCIESCREATE@2@@Z 00000001800554a8     Adjacencies.obj
 0002:0000c4b8       $unwind$?CreateDatabase@@YA_NPEAVAdjTriangle@physx@@IPEBVAdjEdge@@AEBUADJACENCIESCREATE@2@@Z 00000001800554b8     Adjacencies.obj
 0002:0000c4d4       $unwind$?getTransform@Box@Gu@physx@@QEBA?AVPxTransform@3@XZ 00000001800554d4     ConvexHullUtils.obj
 0002:0000c4d4       $unwind$PxCreateCooking    00000001800554d4     Cooking.obj
 0002:0000c4d4       $unwind$?type_case_c_tchar@?$output_processor@DV?$string_output_adapter@D@__crt_stdio_output@@V?$format_validation_base@DV?$string_output_adapter@D@__crt_stdio_output@@@2@@__crt_stdio_output@@AEAA_ND@Z 00000001800554d4     libucrt:output.obj
 0002:0000c4d4       $unwind$?type_case_n@?$output_processor@DV?$string_output_adapter@D@__crt_stdio_output@@V?$format_validation_base@DV?$string_output_adapter@D@__crt_stdio_output@@@2@@__crt_stdio_output@@AEAA_NXZ 00000001800554d4     libucrt:output.obj
 0002:0000c4e0       $unwind$?release@Cooking@physx@@UEAAXXZ 00000001800554e0     Cooking.obj
 0002:0000c4e0       $unwind$?cookingDelayHook@@YAP6A_JXZIPEAUDelayLoadInfo@@@Z 00000001800554e0     WindowsCookingDelayLoadHook.obj
 0002:0000c4e0       $unwind$__dcrt_terminate_console_output 00000001800554e0     libucrt:initcon.obj
 0002:0000c4e0       $unwind$??$uninitialize_environment_internal@D@@YAXAEAPEAPEAD@Z 00000001800554e0     libucrt:environment_initialization.obj
 0002:0000c4e0       $unwind$??$uninitialize_environment_internal@_W@@YAXAEAPEAPEA_W@Z 00000001800554e0     libucrt:environment_initialization.obj
 0002:0000c4e0       $unwind$__acrt_initialize_heap 00000001800554e0     libucrt:heap_handle.obj
 0002:0000c4e0       $unwind$_msize_base        00000001800554e0     libucrt:msize.obj
 0002:0000c4e0       $unwind$?initialize_multibyte@@YAHXZ 00000001800554e0     libucrt:multibyte_initializer.obj
 0002:0000c4e0       $unwind$__acrt_thread_attach 00000001800554e0     libucrt:initialization.obj
 0002:0000c4e0       $unwind$__acrt_thread_detach 00000001800554e0     libucrt:initialization.obj
 0002:0000c4e0       $unwind$__acrt_uninitialize 00000001800554e0     libucrt:initialization.obj
 0002:0000c4e0       $unwind$__acrt_uninitialize_critical 00000001800554e0     libucrt:initialization.obj
 0002:0000c4e0       $unwind$initialize_c       00000001800554e0     libucrt:initialization.obj
 0002:0000c4e0       $unwind$uninitialize_allocated_io_buffers 00000001800554e0     libucrt:initialization.obj
 0002:0000c4e0       $unwind$uninitialize_environment 00000001800554e0     libucrt:initialization.obj
 0002:0000c4e0       $unwind$__acrt_initialize_ptd 00000001800554e0     libucrt:per_thread_data.obj
 0002:0000c4e0       $unwind$__acrt_uninitialize_ptd 00000001800554e0     libucrt:per_thread_data.obj
 0002:0000c4e0       $unwind$__acrt_AreFileApisANSI 00000001800554e0     libucrt:winapi_thunks.obj
 0002:0000c4e0       $unwind$__pctype_func      00000001800554e0     libucrt:ctype.obj
 0002:0000c4e0       $unwind$__acrt_release_locale_ref 00000001800554e0     libucrt:locale_refcounting.obj
 0002:0000c4e0       $unwind$_isatty            00000001800554e0     libucrt:isatty.obj
 0002:0000c4e0       $unwind$_get_osfhandle     00000001800554e0     libucrt:osfinfo.obj
 0002:0000c4e0       $unwind$__acrt_initialize_multibyte 00000001800554e0     libucrt:mbctype.obj
 0002:0000c4e0       $unwind$__acrt_update_thread_multibyte_data 00000001800554e0     libucrt:mbctype.obj
 0002:0000c4e0       $unwind$__doserrno         00000001800554e0     libucrt:errno.obj
 0002:0000c4e0       $unwind$_errno             00000001800554e0     libucrt:errno.obj
 0002:0000c4e0       $unwind$_invoke_watson     00000001800554e0     libucrt:invalid_parameter.obj
 0002:0000c4e0       $unwind$abort              00000001800554e0     libucrt:abort.obj
 0002:0000c4e0       $unwind$__acrt_initialize_command_line 00000001800554e0     libucrt:argv_data.obj
 0002:0000c4e0       $unwind$?should_call_terminate_process@@YA_NXZ 00000001800554e0     libucrt:exit.obj
 0002:0000c4e0       $unwind$_fileno            00000001800554e0     libucrt:fileno.obj
 0002:0000c4e0       $unwind$_statfp            00000001800554e0     libucrt:fpctrl.obj
 0002:0000c4e0       $unwind$fegetround         00000001800554e0     libucrt:fegetround.obj
 0002:0000c4e0       $unwind$_set_errno_from_matherr 00000001800554e0     libucrt:fpexcept.obj
 0002:0000c4e0       $unwind$?DloadReleaseSectionWriteAccess@@YAXXZ 00000001800554e0     Delayimp:delayhlp.obj
 0002:0000c4e0       $unwind$__scrt_initialize_default_local_stdio_options 00000001800554e0     LIBCMT:default_local_stdio_options.obj
 0002:0000c4e0       $unwind$?dllmain_crt_dispatch@@YAHQEAUHINSTANCE__@@KQEAX@Z 00000001800554e0     LIBCMT:dll_dllmain.obj
 0002:0000c4e0       $unwind$__report_rangecheckfailure 00000001800554e0     LIBCMT:gs_report.obj
 0002:0000c4e0       $unwind$__GSHandlerCheck   00000001800554e0     LIBCMT:gshandler.obj
 0002:0000c4e0       $unwind$__scrt_acquire_startup_lock 00000001800554e0     LIBCMT:utility.obj
 0002:0000c4e0       $unwind$__scrt_dllmain_after_initialize_c 00000001800554e0     LIBCMT:utility.obj
 0002:0000c4e0       $unwind$__scrt_dllmain_before_initialize_c 00000001800554e0     LIBCMT:utility.obj
 0002:0000c4e0       $unwind$__scrt_dllmain_crt_thread_attach 00000001800554e0     LIBCMT:utility.obj
 0002:0000c4e0       $unwind$__scrt_dllmain_crt_thread_detach 00000001800554e0     LIBCMT:utility.obj
 0002:0000c4e0       $unwind$__scrt_dllmain_uninitialize_c 00000001800554e0     LIBCMT:utility.obj
 0002:0000c4e0       $unwind$__scrt_dllmain_uninitialize_critical 00000001800554e0     LIBCMT:utility.obj
 0002:0000c4e0       $unwind$__std_terminate    00000001800554e0     libvcruntime:ehhelpers.obj
 0002:0000c4e0       $unwind$?GetCurrentState@__FrameHandler3@@SAHPEA_KPEAU_xDISPATCHER_CONTEXT@@PEBU_s_FuncInfo@@@Z 00000001800554e0     libvcruntime:ehstate.obj
 0002:0000c4e0       $unwind$__vcrt_initialize  00000001800554e0     libvcruntime:initialization.obj
 0002:0000c4e0       $unwind$__vcrt_thread_attach 00000001800554e0     libvcruntime:initialization.obj
 0002:0000c4e0       $unwind$__vcrt_thread_detach 00000001800554e0     libvcruntime:initialization.obj
 0002:0000c4e0       $unwind$__vcrt_uninitialize 00000001800554e0     libvcruntime:initialization.obj
 0002:0000c4e0       $unwind$__vcrt_uninitialize_critical 00000001800554e0     libvcruntime:initialization.obj
 0002:0000c4e0       $unwind$__vcrt_initialize_locks 00000001800554e0     libvcruntime:locks.obj
 0002:0000c4e0       $unwind$__vcrt_freefls     00000001800554e0     libvcruntime:per_thread_data.obj
 0002:0000c4e0       $unwind$__vcrt_getptd      00000001800554e0     libvcruntime:per_thread_data.obj
 0002:0000c4e0       $unwind$__vcrt_initialize_ptd 00000001800554e0     libvcruntime:per_thread_data.obj
 0002:0000c4e0       $unwind$__vcrt_uninitialize_ptd 00000001800554e0     libvcruntime:per_thread_data.obj
 0002:0000c4e0       $unwind$_purecall          00000001800554e0     libvcruntime:purevirt.obj
 0002:0000c4e0       $unwind$?FrameUnwindToEmptyState@__FrameHandler4@@SAXPEA_KPEAU_xDISPATCHER_CONTEXT@@PEAUFuncInfo4@FH4@@@Z 00000001800554e0     libvcruntime:risctrnsctrl.obj
 0002:0000c4e0       $unwind$_GetImageBase      00000001800554e0     libvcruntime:risctrnsctrl.obj
 0002:0000c4e0       $unwind$_GetThrowImageBase 00000001800554e0     libvcruntime:risctrnsctrl.obj
 0002:0000c4e0       $unwind$?getLastChar@pDNameNode@@UEBADXZ 00000001800554e0     libvcruntime:undname.obj
 0002:0000c4e0       $unwind$?getString@pDNameNode@@UEBAPEADPEAD0@Z 00000001800554e0     libvcruntime:undname.obj
 0002:0000c4e0       $unwind$?getTypeEncoding@UnDecorator@@CAHXZ 00000001800554e0     libvcruntime:undname.obj
 0002:0000c4e0       $unwind$?length@pDNameNode@@UEBAHXZ 00000001800554e0     libvcruntime:undname.obj
 0002:0000c4e8       $unwind$?cookConvexMesh@Cooking@physx@@UEBA_NAEBVPxConvexMeshDesc@2@AEAVPxOutputStream@2@PEAW4Enum@PxConvexMeshCookingResult@2@@Z 00000001800554e8     Cooking.obj
 0002:0000c4e8       $unwind$?cookTriangleMesh@Cooking@physx@@UEBA_NAEBVPxTriangleMeshDesc@2@AEAVPxOutputStream@2@PEAW4Enum@PxTriangleMeshCookingResult@2@@Z 00000001800554e8     Cooking.obj
 0002:0000c4e8       $unwind$?createTriangleMesh@Cooking@physx@@UEBAPEAVPxTriangleMesh@2@AEBVPxTriangleMeshDesc@2@AEAVPxPhysicsInsertionCallback@2@PEAW4Enum@PxTriangleMeshCookingResult@2@@Z 00000001800554e8     Cooking.obj
 0002:0000c504       $unwind$?validateTriangleMesh@Cooking@physx@@UEBA_NAEBVPxTriangleMeshDesc@2@@Z 0000000180055504     Cooking.obj
 0002:0000c514       $unwind$?createConvexMesh@Cooking@physx@@UEBAPEAVPxConvexMesh@2@AEBVPxConvexMeshDesc@2@AEAVPxPhysicsInsertionCallback@2@PEAW4Enum@PxConvexMeshCookingResult@2@@Z 0000000180055514     Cooking.obj
 0002:0000c530       $unwind$?validateConvexMesh@Cooking@physx@@UEBA_NAEBVPxConvexMeshDesc@2@@Z 0000000180055530     Cooking.obj
 0002:0000c540       $unwind$?computeHullPolygons@Cooking@physx@@UEBA_NAEBVPxSimpleTriangleMesh@2@AEAVPxAllocatorCallback@2@AEAIAEAPEAVPxVec3@2@2AEAPEAI2AEAPEAUPxHullPolygon@2@@Z 0000000180055540     Cooking.obj
 0002:0000c560       $unwind$?cookHeightField@Cooking@physx@@UEBA_NAEBVPxHeightFieldDesc@2@AEAVPxOutputStream@2@@Z 0000000180055560     Cooking.obj
 0002:0000c574       $unwind$?createHeightField@Cooking@physx@@UEBAPEAVPxHeightField@2@AEBVPxHeightFieldDesc@2@AEAVPxPhysicsInsertionCallback@2@@Z 0000000180055574     Cooking.obj
 0002:0000c574       $unwind$__acrt_fp_format   0000000180055574     libucrt:cvt.obj
 0002:0000c584       $unwind$?cookBVHStructure@Cooking@physx@@UEBA_NAEBVPxBVHStructureDesc@2@AEAVPxOutputStream@2@@Z 0000000180055584     Cooking.obj
 0002:0000c594       $unwind$?createBVHStructure@Cooking@physx@@UEBAPEAVPxBVHStructure@2@AEBVPxBVHStructureDesc@2@AEAVPxPhysicsInsertionCallback@2@@Z 0000000180055594     Cooking.obj
 0002:0000c594       $unwind$?DloadMakePermanentImageCommit@@YAXPEAX_K@Z 0000000180055594     Delayimp:delayhlp.obj
 0002:0000c5a0       $unwind$?cookConvexMeshInternal@Cooking@physx@@AEBA_NAEBVPxConvexMeshDesc@2@AEAVConvexMeshBuilder@2@PEAVConvexHullLib@2@PEAW4Enum@PxConvexMeshCookingResult@2@@Z 00000001800555a0     Cooking.obj
 0002:0000c5b4       $chain$1$?cookConvexMeshInternal@Cooking@physx@@AEBA_NAEBVPxConvexMeshDesc@2@AEAVConvexMeshBuilder@2@PEAVConvexHullLib@2@PEAW4Enum@PxConvexMeshCookingResult@2@@Z 00000001800555b4     Cooking.obj
 0002:0000c5c8       $chain$2$?cookConvexMeshInternal@Cooking@physx@@AEBA_NAEBVPxConvexMeshDesc@2@AEAVConvexMeshBuilder@2@PEAVConvexHullLib@2@PEAW4Enum@PxConvexMeshCookingResult@2@@Z 00000001800555c8     Cooking.obj
 0002:0000c5d8       $chain$3$?cookConvexMeshInternal@Cooking@physx@@AEBA_NAEBVPxConvexMeshDesc@2@AEAVConvexMeshBuilder@2@PEAVConvexHullLib@2@PEAW4Enum@PxConvexMeshCookingResult@2@@Z 00000001800555d8     Cooking.obj
 0002:0000c5ec       $unwind$?allocate@?$Array@USlab@NodeAllocator@Gu@physx@@V?$ReflectionAllocator@USlab@NodeAllocator@Gu@physx@@@shdfnd@4@@shdfnd@physx@@IEAAPEAUSlab@NodeAllocator@Gu@3@I@Z 00000001800555ec     BVHStructureBuilder.obj
 0002:0000c5ec       $unwind$?allocate@?$Array@VHalfEdge@ConvexHull@physx@@V?$ReflectionAllocator@VHalfEdge@ConvexHull@physx@@@shdfnd@3@@shdfnd@physx@@IEAAPEAVHalfEdge@ConvexHull@3@I@Z 00000001800555ec     ConvexHullUtils.obj
 0002:0000c5ec       $unwind$?allocate@?$Array@VPxPlane@physx@@V?$ReflectionAllocator@VPxPlane@physx@@@shdfnd@2@@shdfnd@physx@@IEAAPEAVPxPlane@3@I@Z 00000001800555ec     ConvexHullUtils.obj
 0002:0000c5ec       $unwind$?computeBoxPoints@Box@Gu@physx@@QEBAXPEIAVPxVec3@3@@Z 00000001800555ec     ConvexHullUtils.obj
 0002:0000c5ec       $unwind$?allocate@?$Array@VPair@@V?$ReflectionAllocator@VPair@@@shdfnd@physx@@@shdfnd@physx@@IEAAPEAVPair@@I@Z 00000001800555ec     ConvexPolygonsBuilder.obj
 0002:0000c5ec       $unwind$?allocate@?$Array@UPxDebugLine@physx@@V?$ReflectionAllocator@UPxDebugLine@physx@@@shdfnd@2@@shdfnd@physx@@IEAAPEAUPxDebugLine@3@I@Z 00000001800555ec     Cooking.obj
 0002:0000c5ec       $unwind$?allocate@?$Array@PEAUQuickHullFace@local@@V?$ReflectionAllocator@PEAUQuickHullFace@local@@@shdfnd@physx@@@shdfnd@physx@@IEAAPEAPEAUQuickHullFace@local@@I@Z 00000001800555ec     QuickHullConvexHullLib.obj
 0002:0000c5ec       $unwind$?allocate@?$Array@PEAUQuickHullHalfEdge@local@@V?$ReflectionAllocator@PEAUQuickHullHalfEdge@local@@@shdfnd@physx@@@shdfnd@physx@@IEAAPEAPEAUQuickHullHalfEdge@local@@I@Z 00000001800555ec     QuickHullConvexHullLib.obj
 0002:0000c5ec       $unwind$?allocate@?$Array@PEAUQuickHullVertex@local@@V?$ReflectionAllocator@PEAUQuickHullVertex@local@@@shdfnd@physx@@@shdfnd@physx@@IEAAPEAPEAUQuickHullVertex@local@@I@Z 00000001800555ec     QuickHullConvexHullLib.obj
 0002:0000c5ec       $unwind$?allocate@?$Array@UExpandPoint@local@@V?$ReflectionAllocator@UExpandPoint@local@@@shdfnd@physx@@@shdfnd@physx@@IEAAPEAUExpandPoint@local@@I@Z 00000001800555ec     QuickHullConvexHullLib.obj
 0002:0000c5ec       $unwind$?allocate@?$Array@UInterval@physx@@V?$InlineAllocator@$0CAAA@V?$ReflectionAllocator@UInterval@physx@@@shdfnd@physx@@@shdfnd@2@@shdfnd@physx@@IEAAPEAUInterval@3@I@Z 00000001800555ec     RTreeCooking.obj
 0002:0000c5ec       $unwind$?allocate@?$Array@UPxBounds3V@physx@@V?$ReflectionAllocator@UPxBounds3V@physx@@@shdfnd@2@@shdfnd@physx@@IEAAPEAUPxBounds3V@3@I@Z 00000001800555ec     RTreeCooking.obj
 0002:0000c5ec       $unwind$?allocate@?$Array@URTreeNodeNQ@physx@@V?$ReflectionAllocator@URTreeNodeNQ@physx@@@shdfnd@2@@shdfnd@physx@@IEAAPEAURTreeNodeNQ@3@I@Z 00000001800555ec     RTreeCooking.obj
 0002:0000c5ec       $unwind$?allocate@?$Array@URTreeNodeQ@Gu@physx@@V?$ReflectionAllocator@URTreeNodeQ@Gu@physx@@@shdfnd@3@@shdfnd@physx@@IEAAPEAURTreeNodeQ@Gu@3@I@Z 00000001800555ec     RTreeCooking.obj
 0002:0000c5ec       $unwind$?allocate@?$Array@VPxVec3@physx@@V?$ReflectionAllocator@VPxVec3@physx@@@shdfnd@2@@shdfnd@physx@@IEAAPEAVPxVec3@3@I@Z 00000001800555ec     RTreeCooking.obj
 0002:0000c5ec       $unwind$_invalid_parameter_noinfo 00000001800555ec     libucrt:invalid_parameter.obj
 0002:0000c5ec       $unwind$?state_case_size@?$output_processor@DV?$string_output_adapter@D@__crt_stdio_output@@V?$format_validation_base@DV?$string_output_adapter@D@__crt_stdio_output@@@2@@__crt_stdio_output@@AEAA_NXZ 00000001800555ec     libucrt:output.obj
 0002:0000c5ec       $unwind$_log10_special     00000001800555ec     libucrt:log_special.obj
 0002:0000c5f4       $chain$1$?allocate@?$Array@UPxDebugLine@physx@@V?$ReflectionAllocator@UPxDebugLine@physx@@@shdfnd@2@@shdfnd@physx@@IEAAPEAUPxDebugLine@3@I@Z 00000001800555f4     Cooking.obj
 0002:0000c60c       $chain$3$?allocate@?$Array@UPxDebugLine@physx@@V?$ReflectionAllocator@UPxDebugLine@physx@@@shdfnd@2@@shdfnd@physx@@IEAAPEAUPxDebugLine@3@I@Z 000000018005560c     Cooking.obj
 0002:0000c620       $chain$4$?allocate@?$Array@UPxDebugLine@physx@@V?$ReflectionAllocator@UPxDebugLine@physx@@@shdfnd@2@@shdfnd@physx@@IEAAPEAUPxDebugLine@3@I@Z 0000000180055620     Cooking.obj
 0002:0000c630       $unwind$?recreate@?$Array@USlab@NodeAllocator@Gu@physx@@V?$ReflectionAllocator@USlab@NodeAllocator@Gu@physx@@@shdfnd@4@@shdfnd@physx@@IEAAXI@Z 0000000180055630     BVHStructureBuilder.obj
 0002:0000c630       $unwind$?recreate@?$Array@VHalfEdge@ConvexHull@physx@@V?$ReflectionAllocator@VHalfEdge@ConvexHull@physx@@@shdfnd@3@@shdfnd@physx@@IEAAXI@Z 0000000180055630     ConvexHullUtils.obj
 0002:0000c630       $unwind$?recreate@?$Array@VPxPlane@physx@@V?$ReflectionAllocator@VPxPlane@physx@@@shdfnd@2@@shdfnd@physx@@IEAAXI@Z 0000000180055630     ConvexHullUtils.obj
 0002:0000c630       $unwind$?copy@ConvexMeshBuilder@physx@@QEAA_NAEAUConvexHullInitData@Gu@2@@Z 0000000180055630     ConvexMeshBuilder.obj
 0002:0000c630       $unwind$?recreate@?$Array@UPxDebugLine@physx@@V?$ReflectionAllocator@UPxDebugLine@physx@@@shdfnd@2@@shdfnd@physx@@IEAAXI@Z 0000000180055630     Cooking.obj
 0002:0000c630       $unwind$?recreate@?$Array@PEAUQuickHullFace@local@@V?$ReflectionAllocator@PEAUQuickHullFace@local@@@shdfnd@physx@@@shdfnd@physx@@IEAAXI@Z 0000000180055630     QuickHullConvexHullLib.obj
 0002:0000c630       $unwind$?recreate@?$Array@PEAUQuickHullHalfEdge@local@@V?$ReflectionAllocator@PEAUQuickHullHalfEdge@local@@@shdfnd@physx@@@shdfnd@physx@@IEAAXI@Z 0000000180055630     QuickHullConvexHullLib.obj
 0002:0000c630       $unwind$?recreate@?$Array@PEAUQuickHullVertex@local@@V?$ReflectionAllocator@PEAUQuickHullVertex@local@@@shdfnd@physx@@@shdfnd@physx@@IEAAXI@Z 0000000180055630     QuickHullConvexHullLib.obj
 0002:0000c630       $unwind$?recreate@?$Array@UExpandPoint@local@@V?$ReflectionAllocator@UExpandPoint@local@@@shdfnd@physx@@@shdfnd@physx@@IEAAXI@Z 0000000180055630     QuickHullConvexHullLib.obj
 0002:0000c630       $unwind$?recreate@?$Array@IV?$ReflectionAllocator@I@shdfnd@physx@@@shdfnd@physx@@IEAAXI@Z 0000000180055630     RTreeCooking.obj
 0002:0000c630       $unwind$?recreate@?$Array@UPxBounds3V@physx@@V?$ReflectionAllocator@UPxBounds3V@physx@@@shdfnd@2@@shdfnd@physx@@IEAAXI@Z 0000000180055630     RTreeCooking.obj
 0002:0000c630       $unwind$?recreate@?$Array@URTreeNodeNQ@physx@@V?$ReflectionAllocator@URTreeNodeNQ@physx@@@shdfnd@2@@shdfnd@physx@@IEAAXI@Z 0000000180055630     RTreeCooking.obj
 0002:0000c630       $unwind$?recreate@?$Array@URTreeNodeQ@Gu@physx@@V?$ReflectionAllocator@URTreeNodeQ@Gu@physx@@@shdfnd@3@@shdfnd@physx@@IEAAXI@Z 0000000180055630     RTreeCooking.obj
 0002:0000c630       $unwind$?recreate@?$Array@VPxVec3@physx@@V?$ReflectionAllocator@VPxVec3@physx@@@shdfnd@2@@shdfnd@physx@@IEAAXI@Z 0000000180055630     RTreeCooking.obj
 0002:0000c630       $unwind$?get_raw_ptd_noexit@__crt_cached_ptd_host@@QEAAPEAU__acrt_ptd@@XZ 0000000180055630     libucrt:invalid_parameter.obj
 0002:0000c640       $chain$0$?recreate@?$Array@UPxDebugLine@physx@@V?$ReflectionAllocator@UPxDebugLine@physx@@@shdfnd@2@@shdfnd@physx@@IEAAXI@Z 0000000180055640     Cooking.obj
 0002:0000c654       $chain$1$?recreate@?$Array@UPxDebugLine@physx@@V?$ReflectionAllocator@UPxDebugLine@physx@@@shdfnd@2@@shdfnd@physx@@IEAAXI@Z 0000000180055654     Cooking.obj
 0002:0000c664       $unwind$??$copy@V?$ReflectionAllocator@USlab@NodeAllocator@Gu@physx@@@shdfnd@physx@@@?$Array@USlab@NodeAllocator@Gu@physx@@V?$ReflectionAllocator@USlab@NodeAllocator@Gu@physx@@@shdfnd@4@@shdfnd@physx@@IEAAXAEBV012@@Z 0000000180055664     BVHStructureBuilder.obj
 0002:0000c664       $unwind$??0NodeAllocator@Gu@physx@@QEAA@AEBV012@@Z 0000000180055664     BVHStructureBuilder.obj
 0002:0000c664       $unwind$??1ConvexHullLib@physx@@UEAA@XZ 0000000180055664     ConvexHullLib.obj
 0002:0000c664       $unwind$??1ConvexMeshBuilder@physx@@QEAA@XZ 0000000180055664     ConvexMeshBuilder.obj
 0002:0000c664       $unwind$??$copy@V?$ReflectionAllocator@VPair@@@shdfnd@physx@@@?$Array@VPair@@V?$ReflectionAllocator@VPair@@@shdfnd@physx@@@shdfnd@physx@@IEAAXAEBV012@@Z 0000000180055664     ConvexPolygonsBuilder.obj
 0002:0000c664       $unwind$??1ConvexPolygonsBuilder@physx@@QEAA@XZ 0000000180055664     ConvexPolygonsBuilder.obj
 0002:0000c664       $unwind$?reserveSegments@RenderOutput@Cm@physx@@QEAAPEAUPxDebugLine@3@I@Z 0000000180055664     Cooking.obj
 0002:0000c664       $unwind$?Clean@ReducedVertexCloud@physx@@QEAAAEAV12@XZ 0000000180055664     CookingUtils.obj
 0002:0000c664       $unwind$?computeLocalBounds@MeshBulider@physx@@IEAAXAEAVMeshDataBase@Gu@2@@Z 0000000180055664     MeshBuilder.obj
 0002:0000c664       $unwind$??1QuickHull@local@@QEAA@XZ 0000000180055664     QuickHullConvexHullLib.obj
 0002:0000c664       $unwind$?fillConvexMeshDesc@QuickHullConvexHullLib@physx@@UEAAXAEAVPxConvexMeshDesc@2@@Z 0000000180055664     QuickHullConvexHullLib.obj
 0002:0000c664       $unwind$?resizeUninitialized@?$Array@URTreeNodeNQ@physx@@V?$ReflectionAllocator@URTreeNodeNQ@physx@@@shdfnd@2@@shdfnd@physx@@QEAAXI@Z 0000000180055664     RTreeCooking.obj
 0002:0000c664       $unwind$??0BV4TriangleMeshBuilder@physx@@QEAA@AEBUPxCookingParams@1@@Z 0000000180055664     TriangleMeshBuilder.obj
 0002:0000c664       $unwind$??1BV4TriangleMeshBuilder@physx@@UEAA@XZ 0000000180055664     TriangleMeshBuilder.obj
 0002:0000c664       $unwind$??1TriangleMeshBuilder@physx@@UEAA@XZ 0000000180055664     TriangleMeshBuilder.obj
 0002:0000c664       $unwind$??1TriangleMeshData@Gu@physx@@UEAA@XZ 0000000180055664     TriangleMeshBuilder.obj
 0002:0000c664       $unwind$??_GBV4TriangleData@Gu@physx@@UEAAPEAXI@Z 0000000180055664     TriangleMeshBuilder.obj
 0002:0000c664       $unwind$??_GMeshDataBase@Gu@physx@@UEAAPEAXI@Z 0000000180055664     TriangleMeshBuilder.obj
 0002:0000c664       $unwind$??_GRTreeTriangleData@Gu@physx@@UEAAPEAXI@Z 0000000180055664     TriangleMeshBuilder.obj
 0002:0000c664       $unwind$??_GRTreeTriangleMeshBuilder@physx@@UEAAPEAXI@Z 0000000180055664     TriangleMeshBuilder.obj
 0002:0000c664       $unwind$??_GTriangleMeshBuilder@physx@@UEAAPEAXI@Z 0000000180055664     TriangleMeshBuilder.obj
 0002:0000c664       $unwind$??_GTriangleMeshData@Gu@physx@@UEAAPEAXI@Z 0000000180055664     TriangleMeshBuilder.obj
 0002:0000c664       $unwind$??$common_initialize_environment_nolock@D@@YAHXZ 0000000180055664     libucrt:environment_initialization.obj
 0002:0000c664       $unwind$_callnewh          0000000180055664     libucrt:new_handler.obj
 0002:0000c664       $unwind$_realloc_base      0000000180055664     libucrt:realloc_base.obj
 0002:0000c664       $unwind$?replace_current_thread_locale_nolock@@YAXQEAU__acrt_ptd@@QEAU__crt_locale_data@@@Z 0000000180055664     libucrt:per_thread_data.obj
 0002:0000c664       $unwind$__acrt_execute_uninitializers 0000000180055664     libucrt:shared_initialization.obj
 0002:0000c664       $unwind$__acrt_LocaleNameToLCID 0000000180055664     libucrt:winapi_thunks.obj
 0002:0000c664       $unwind$?free_crt_array_internal@@YAXQEAPEBX_K@Z 0000000180055664     libucrt:inittime.obj
 0002:0000c664       $unwind$_updatetlocinfoEx_nolock 0000000180055664     libucrt:locale_refcounting.obj
 0002:0000c664       $unwind$__acrt_uninitialize_lowio 0000000180055664     libucrt:ioinit.obj
 0002:0000c664       $unwind$?setSBCS@@YAXPEAU__crt_multibyte_data@@@Z 0000000180055664     libucrt:mbctype.obj
 0002:0000c664       $unwind$_initterm_e        0000000180055664     libucrt:initterm.obj
 0002:0000c664       $unwind$?DloadGetSRWLockFunctionPointers@@YAEXZ 0000000180055664     Delayimp:delayhlp.obj
 0002:0000c664       $unwind$_RTC_Initialize    0000000180055664     LIBCMT:initsect.obj
 0002:0000c664       $unwind$_RTC_Terminate     0000000180055664     LIBCMT:initsect.obj
 0002:0000c664       $unwind$__C_specific_handler_noexcept 0000000180055664     libvcruntime:chandler_noexcept.obj
 0002:0000c664       $unwind$__FrameUnwindFilter 0000000180055664     libvcruntime:ehhelpers.obj
 0002:0000c664       $unwind$?SetUnwindTryBlock@__FrameHandler3@@SAXPEA_KPEAU_xDISPATCHER_CONTEXT@@PEBU_s_FuncInfo@@H@Z 0000000180055664     libvcruntime:ehstate.obj
 0002:0000c664       $unwind$??_Gbad_exception@std@@UEAAPEAXI@Z 0000000180055664     libvcruntime:frame.obj
 0002:0000c664       $unwind$??_Gexception@std@@UEAAPEAXI@Z 0000000180055664     libvcruntime:frame.obj
 0002:0000c664       $unwind$?ExFilterRethrowFH4@@YAHPEAU_EXCEPTION_POINTERS@@PEAUEHExceptionRecord@@HPEAH@Z 0000000180055664     libvcruntime:frame.obj
 0002:0000c664       $unwind$_FindAndUnlinkFrame 0000000180055664     libvcruntime:risctrnsctrl.obj
 0002:0000c664       $unwind$??$append@VDNameNode@@@DName@@AEAAXPEBVDNameNode@@@Z 0000000180055664     libvcruntime:undname.obj
 0002:0000c664       $unwind$??$append@VDNameStatusNode@@@DName@@AEAAXPEBVDNameStatusNode@@@Z 0000000180055664     libvcruntime:undname.obj
 0002:0000c664       $unwind$??$append@VcharNode@@@DName@@AEAAXPEBVcharNode@@@Z 0000000180055664     libvcruntime:undname.obj
 0002:0000c664       $unwind$??$append@VpcharNode@@@DName@@AEAAXPEBVpcharNode@@@Z 0000000180055664     libvcruntime:undname.obj
 0002:0000c664       $unwind$??YDName@@QEAAAEAV0@AEBUStringLiteral@@@Z 0000000180055664     libvcruntime:undname.obj
 0002:0000c664       $unwind$??YDName@@QEAAAEAV0@D@Z 0000000180055664     libvcruntime:undname.obj
 0002:0000c664       $unwind$??YReplicator@@QEAAAEAV0@AEBVDName@@@Z 0000000180055664     libvcruntime:undname.obj
 0002:0000c664       $unwind$?getString@pairNode@@UEBAPEADPEAD0@Z 0000000180055664     libvcruntime:undname.obj
 0002:0000c664       $unwind$?length@pairNode@@UEBAHXZ 0000000180055664     libvcruntime:undname.obj
 0002:0000c664       $unwind$__vcrt_FlsSetValue 0000000180055664     libvcruntime:winapi_downlevel.obj
 0002:0000c670       $unwind$?outputSegment@RenderOutput@Cm@physx@@QEAAXAEBVPxVec3@3@0@Z 0000000180055670     Cooking.obj
 0002:0000c688       $unwind$?getHeight@HeightField@Gu@physx@@UEBAMMM@Z 0000000180055688     Cooking.obj
 0002:0000c688       $unwind$__dcrt_lowio_ensure_console_output_initialized 0000000180055688     libucrt:initcon.obj
 0002:0000c688       $unwind$?__mbrtowc_utf8@__crt_mbstring@@YA_KPEA_WPEBD_KPEAU_Mbstatet@@AEAV__crt_cached_ptd_host@@@Z 0000000180055688     libucrt:mbrtowc.obj
 0002:0000c688       $unwind$?getSystemCP@@YAHH@Z 0000000180055688     libucrt:mbctype.obj
 0002:0000c688       $unwind$?getAddressOf@UnDecorator@@CA?AVDName@@XZ 0000000180055688     libvcruntime:undname.obj
 0002:0000c688       $unwind$?getArrayAccess@UnDecorator@@CA?AVDName@@XZ 0000000180055688     libvcruntime:undname.obj
 0002:0000c688       $unwind$?getArrayObject@UnDecorator@@CA?AVDName@@XZ 0000000180055688     libvcruntime:undname.obj
 0002:0000c688       $unwind$?getMemberAccess@UnDecorator@@CA?AVDName@@XZ 0000000180055688     libvcruntime:undname.obj
 0002:0000c688       $unwind$?getStringEncoding@UnDecorator@@CA?AVDName@@W4PrefixKind@@H@Z 0000000180055688     libvcruntime:undname.obj
 0002:0000c688       $unwind$?getUnionObject@UnDecorator@@CA?AVDName@@XZ 0000000180055688     libvcruntime:undname.obj
 0002:0000c690       $unwind$?getTriangleNormal@HeightField@Gu@physx@@UEBA?AVPxVec3@3@I@Z 0000000180055690     Cooking.obj
 0002:0000c69c       $unwind$?getHeightInternal2@HeightField@Gu@physx@@QEBAMIMM@Z 000000018005569c     Cooking.obj
 0002:0000c6a8       $chain$0$?getHeightInternal2@HeightField@Gu@physx@@QEBAMIMM@Z 00000001800556a8     Cooking.obj
 0002:0000c6bc       $chain$2$?getHeightInternal2@HeightField@Gu@physx@@QEBAMIMM@Z 00000001800556bc     Cooking.obj
 0002:0000c6d0       $unwind$?Reduce@ReducedVertexCloud@physx@@QEAA_NPEAUREDUCEDCLOUD@2@@Z 00000001800556d0     CookingUtils.obj
 0002:0000c6ec       $unwind$??1AABBTreeBuildParams@Gu@physx@@QEAA@XZ 00000001800556ec     BVHStructureBuilder.obj
 0002:0000c6ec       $unwind$??1BVHStructureBuilder@physx@@QEAA@XZ 00000001800556ec     BVHStructureBuilder.obj
 0002:0000c6ec       $unwind$?reset@AABBTreeBuildParams@Gu@physx@@QEAAXXZ 00000001800556ec     BVHStructureBuilder.obj
 0002:0000c6ec       $unwind$??1ConvexHullBuilder@physx@@QEAA@XZ 00000001800556ec     ConvexHullBuilder.obj
 0002:0000c6ec       $unwind$??_GConvexHullLib@physx@@UEAAPEAXI@Z 00000001800556ec     ConvexHullLib.obj
 0002:0000c6ec       $unwind$?resize@?$Array@VPxPlane@physx@@V?$ReflectionAllocator@VPxPlane@physx@@@shdfnd@2@@shdfnd@physx@@QEAAXIAEBVPxPlane@3@@Z 00000001800556ec     ConvexHullUtils.obj
 0002:0000c6ec       $unwind$?resize@?$Array@VPxVec3@physx@@V?$ReflectionAllocator@VPxVec3@physx@@@shdfnd@2@@shdfnd@physx@@QEAAXIAEBVPxVec3@3@@Z 00000001800556ec     ConvexHullUtils.obj
 0002:0000c6ec       $unwind$??1EdgeList@Gu@physx@@QEAA@XZ 00000001800556ec     EdgeList.obj
 0002:0000c6ec       $unwind$??1MeshCleaner@physx@@QEAA@XZ 00000001800556ec     MeshCleaner.obj
 0002:0000c6ec       $unwind$??1MeshDataBase@Gu@physx@@UEAA@XZ 00000001800556ec     TriangleMeshBuilder.obj
 0002:0000c6ec       $unwind$??_GBV4TriangleMeshBuilder@physx@@UEAAPEAXI@Z 00000001800556ec     TriangleMeshBuilder.obj
 0002:0000c6ec       $unwind$memcpy_s           00000001800556ec     libucrt:cfout.obj
 0002:0000c6ec       $unwind$__acrt_getptd      00000001800556ec     libucrt:per_thread_data.obj
 0002:0000c6ec       $unwind$__acrt_getptd_noexit 00000001800556ec     libucrt:per_thread_data.obj
 0002:0000c6ec       $unwind$__acrt_getptd_noexit_explicit 00000001800556ec     libucrt:per_thread_data.obj
 0002:0000c6ec       $unwind$__acrt_execute_initializers 00000001800556ec     libucrt:shared_initialization.obj
 0002:0000c6ec       $unwind$__acrt_InitializeCriticalSectionEx 00000001800556ec     libucrt:winapi_thunks.obj
 0002:0000c6ec       $unwind$_close_nolock_internal 00000001800556ec     libucrt:close.obj
 0002:0000c6ec       $unwind$?value@?$dual_state_global@P6AXPEB_W00I_K@Z@__crt_state_management@@QEAAAEAP6AXPEB_W00I_K@ZAEAV__crt_cached_ptd_host@@@Z 00000001800556ec     libucrt:invalid_parameter.obj
 0002:0000c6ec       $unwind$??0_LocaleUpdate@@QEAA@QEAU__crt_locale_pointers@@@Z 00000001800556ec     libucrt:argv_wildcards.obj
 0002:0000c6ec       $unwind$?update_locale_slow@__crt_cached_ptd_host@@AEAAXXZ 00000001800556ec     libucrt:output.obj
 0002:0000c6ec       $unwind$strncpy_s          00000001800556ec     libucrt:strncpy_s.obj
 0002:0000c6ec       $unwind$_exception_enabled 00000001800556ec     libucrt:libm_error.obj
 0002:0000c6ec       $unwind$_DllMainCRTStartup 00000001800556ec     LIBCMT:dll_dllmain.obj
 0002:0000c6ec       $unwind$__vcrt_getptd_noexit 00000001800556ec     libvcruntime:per_thread_data.obj
 0002:0000c6ec       $unwind$?CatchTryBlock@__FrameHandler3@@SAPEBU_s_TryBlockMapEntry@@PEBU_s_FuncInfo@@H@Z 00000001800556ec     libvcruntime:risctrnsctrl.obj
 0002:0000c6ec       $unwind$?FrameUnwindToEmptyState@__FrameHandler3@@SAXPEA_KPEAU_xDISPATCHER_CONTEXT@@PEBU_s_FuncInfo@@@Z 00000001800556ec     libvcruntime:risctrnsctrl.obj
 0002:0000c6ec       $unwind$??$?0$01@pcharNode@@QEAA@PEBDHU?$StringLifeSelector@$01@@@Z 00000001800556ec     libvcruntime:undname.obj
 0002:0000c6ec       $unwind$??$?0$0A@@pcharNode@@QEAA@PEBDHU?$StringLifeSelector@$0A@@@@Z 00000001800556ec     libvcruntime:undname.obj
 0002:0000c6ec       $unwind$??$doPchar@$01@DName@@AEAAXPEBDH@Z 00000001800556ec     libvcruntime:undname.obj
 0002:0000c6ec       $unwind$??$doPchar@$0A@@DName@@AEAAXPEBDH@Z 00000001800556ec     libvcruntime:undname.obj
 0002:0000c6ec       $unwind$??0DName@@QEAA@AEAPEBDD@Z 00000001800556ec     libvcruntime:undname.obj
 0002:0000c6ec       $unwind$??0DName@@QEAA@PEAV0@@Z 00000001800556ec     libvcruntime:undname.obj
 0002:0000c6ec       $unwind$?getMemoryWithBuffer@_HeapManager@@QEAAPEAX_K@Z 00000001800556ec     libvcruntime:undname.obj
 0002:0000c6ec       $unwind$__vcrt_InitializeCriticalSectionEx 00000001800556ec     libvcruntime:winapi_downlevel.obj
 0002:0000c6fc       $unwind$?init@EdgeListBuilder@Gu@physx@@QEAA_NAEBUEDGELISTCREATE@23@@Z 00000001800556fc     EdgeList.obj
 0002:0000c6fc       $unwind$?preallocate@QuickHull@local@@QEAAXI@Z 00000001800556fc     QuickHullConvexHullLib.obj
 0002:0000c6fc       $unwind$?allocateVertices@MeshDataBase@Gu@physx@@QEAAPEAVPxVec3@3@I@Z 00000001800556fc     TriangleMeshBuilder.obj
 0002:0000c6fc       $unwind$?getStateFromIterators@UWMap4@FH4@@SAHAEBViterator@12@H0H0@Z 00000001800556fc     libvcruntime:frame.obj
 0002:0000c6fc       $unwind$?getUndecoratedName@UnDecorator@@QEAAPEADPEADH@Z 00000001800556fc     libvcruntime:undname.obj
 0002:0000c70c       $unwind$?createFacesToEdges@EdgeListBuilder@Gu@physx@@AEAA_NIPEBIPEBG@Z 000000018005570c     EdgeList.obj
 0002:0000c71c       $chain$3$?createFacesToEdges@EdgeListBuilder@Gu@physx@@AEAA_NIPEBIPEBG@Z 000000018005571c     EdgeList.obj
 0002:0000c73c       $chain$4$?createFacesToEdges@EdgeListBuilder@Gu@physx@@AEAA_NIPEBIPEBG@Z 000000018005573c     EdgeList.obj
 0002:0000c754       $chain$5$?createFacesToEdges@EdgeListBuilder@Gu@physx@@AEAA_NIPEBIPEBG@Z 0000000180055754     EdgeList.obj
 0002:0000c768       $chain$6$?createFacesToEdges@EdgeListBuilder@Gu@physx@@AEAA_NIPEBIPEBG@Z 0000000180055768     EdgeList.obj
 0002:0000c778       $unwind$?createEdgesToFaces@EdgeListBuilder@Gu@physx@@AEAA_NIPEBIPEBG@Z 0000000180055778     EdgeList.obj
 0002:0000c784       $chain$1$?createEdgesToFaces@EdgeListBuilder@Gu@physx@@AEAA_NIPEBIPEBG@Z 0000000180055784     EdgeList.obj
 0002:0000c79c       $chain$2$?createEdgesToFaces@EdgeListBuilder@Gu@physx@@AEAA_NIPEBIPEBG@Z 000000018005579c     EdgeList.obj
 0002:0000c7b0       $unwind$?computeActiveEdges@EdgeListBuilder@Gu@physx@@AEAA_NIPEBIPEBGPEBVPxVec3@3@M@Z 00000001800557b0     EdgeList.obj
 0002:0000c7c0       $chain$0$?computeActiveEdges@EdgeListBuilder@Gu@physx@@AEAA_NIPEBIPEBGPEBVPxVec3@3@M@Z 00000001800557c0     EdgeList.obj
 0002:0000c7d4       $chain$3$?computeActiveEdges@EdgeListBuilder@Gu@physx@@AEAA_NIPEBIPEBGPEBVPxVec3@3@M@Z 00000001800557d4     EdgeList.obj
 0002:0000c7ec       $chain$16$?computeActiveEdges@EdgeListBuilder@Gu@physx@@AEAA_NIPEBIPEBGPEBVPxVec3@3@M@Z 00000001800557ec     EdgeList.obj
 0002:0000c830       $chain$17$?computeActiveEdges@EdgeListBuilder@Gu@physx@@AEAA_NIPEBIPEBGPEBVPxVec3@3@M@Z 0000000180055830     EdgeList.obj
 0002:0000c844       $chain$18$?computeActiveEdges@EdgeListBuilder@Gu@physx@@AEAA_NIPEBIPEBGPEBVPxVec3@3@M@Z 0000000180055844     EdgeList.obj
 0002:0000c854       $chain$19$?computeActiveEdges@EdgeListBuilder@Gu@physx@@AEAA_NIPEBIPEBGPEBVPxVec3@3@M@Z 0000000180055854     EdgeList.obj
 0002:0000c864       $chain$0$??$?_UI@@YAPEAX_KV?$ReflectionAllocator@I@shdfnd@physx@@PEBDH@Z 0000000180055864     EdgeList.obj
 0002:0000c878       $chain$1$??$?_UI@@YAPEAX_KV?$ReflectionAllocator@I@shdfnd@physx@@PEBDH@Z 0000000180055878     EdgeList.obj
 0002:0000c888       $unwind$??0MeshCleaner@physx@@QEAA@IPEBVPxVec3@1@IPEBIM@Z 0000000180055888     MeshCleaner.obj
 0002:0000c894       $chain$1$??0MeshCleaner@physx@@QEAA@IPEBVPxVec3@1@IPEBIM@Z 0000000180055894     MeshCleaner.obj
 0002:0000c8ac       $chain$5$??0MeshCleaner@physx@@QEAA@IPEBVPxVec3@1@IPEBIM@Z 00000001800558ac     MeshCleaner.obj
 0002:0000c8cc       $chain$7$??0MeshCleaner@physx@@QEAA@IPEBVPxVec3@1@IPEBIM@Z 00000001800558cc     MeshCleaner.obj
 0002:0000c8e4       $chain$8$??0MeshCleaner@physx@@QEAA@IPEBVPxVec3@1@IPEBIM@Z 00000001800558e4     MeshCleaner.obj
 0002:0000c8f8       $chain$9$??0MeshCleaner@physx@@QEAA@IPEBVPxVec3@1@IPEBIM@Z 00000001800558f8     MeshCleaner.obj
 0002:0000c908       $chain$10$??0MeshCleaner@physx@@QEAA@IPEBVPxVec3@1@IPEBIM@Z 0000000180055908     MeshCleaner.obj
 0002:0000c908       $chain$12$??0MeshCleaner@physx@@QEAA@IPEBVPxVec3@1@IPEBIM@Z 0000000180055908     MeshCleaner.obj
 0002:0000c918       $chain$11$??0MeshCleaner@physx@@QEAA@IPEBVPxVec3@1@IPEBIM@Z 0000000180055918     MeshCleaner.obj
 0002:0000c930       $chain$13$??0MeshCleaner@physx@@QEAA@IPEBVPxVec3@1@IPEBIM@Z 0000000180055930     MeshCleaner.obj
 0002:0000c94c       $chain$14$??0MeshCleaner@physx@@QEAA@IPEBVPxVec3@1@IPEBIM@Z 000000018005594c     MeshCleaner.obj
 0002:0000c95c       $unwind$?createQuantizer@physx@@YAPEAVQuantizer@1@XZ 000000018005595c     Quantizer.obj
 0002:0000c95c       $unwind$?getNoexcept@UnDecorator@@CA?AVDName@@XZ 000000018005595c     libvcruntime:undname.obj
 0002:0000c95c       $unwind$?getVCallThunkType@UnDecorator@@CA?AVDName@@XZ 000000018005595c     libvcruntime:undname.obj
 0002:0000c95c       $unwind$?getVdispMapType@UnDecorator@@CA?AVDName@@AEBV2@@Z 000000018005595c     libvcruntime:undname.obj
 0002:0000c964       $unwind$??$kmeans_cluster@VPxVec3@physx@@M@@YAIPEBVPxVec3@physx@@IIPEAV01@PEAIMM@Z 0000000180055964     Quantizer.obj
 0002:0000c970       $chain$6$??$kmeans_cluster@VPxVec3@physx@@M@@YAIPEBVPxVec3@physx@@IIPEAV01@PEAIMM@Z 0000000180055970     Quantizer.obj
 0002:0000c99c       $chain$13$??$kmeans_cluster@VPxVec3@physx@@M@@YAIPEBVPxVec3@physx@@IIPEAV01@PEAIMM@Z 000000018005599c     Quantizer.obj
 0002:0000c9c8       $chain$14$??$kmeans_cluster@VPxVec3@physx@@M@@YAIPEBVPxVec3@physx@@IIPEAV01@PEAIMM@Z 00000001800559c8     Quantizer.obj
 0002:0000c9d8       $chain$15$??$kmeans_cluster@VPxVec3@physx@@M@@YAIPEBVPxVec3@physx@@IIPEAV01@PEAIMM@Z 00000001800559d8     Quantizer.obj
 0002:0000c9e8       $unwind$?kmeansQuantize3D@QuantizerImpl@@UEAAPEBVPxVec3@physx@@IPEBV23@I_NIAEAI@Z 00000001800559e8     Quantizer.obj
 0002:0000c9f8       $chain$1$?kmeansQuantize3D@QuantizerImpl@@UEAAPEBVPxVec3@physx@@IPEBV23@I_NIAEAI@Z 00000001800559f8     Quantizer.obj
 0002:0000ca10       $chain$2$?kmeansQuantize3D@QuantizerImpl@@UEAAPEBVPxVec3@physx@@IPEBV23@I_NIAEAI@Z 0000000180055a10     Quantizer.obj
 0002:0000ca24       $chain$3$?kmeansQuantize3D@QuantizerImpl@@UEAAPEBVPxVec3@physx@@IPEBV23@I_NIAEAI@Z 0000000180055a24     Quantizer.obj
 0002:0000ca34       $unwind$?normalizeInput@QuantizerImpl@@AEAAXIPEBVPxVec3@physx@@I@Z 0000000180055a34     Quantizer.obj
 0002:0000ca50       $chain$2$?normalizeInput@QuantizerImpl@@AEAAXIPEBVPxVec3@physx@@I@Z 0000000180055a50     Quantizer.obj
 0002:0000ca6c       $chain$6$?normalizeInput@QuantizerImpl@@AEAAXIPEBVPxVec3@physx@@I@Z 0000000180055a6c     Quantizer.obj
 0002:0000ca8c       $chain$7$?normalizeInput@QuantizerImpl@@AEAAXIPEBVPxVec3@physx@@I@Z 0000000180055a8c     Quantizer.obj
 0002:0000ca9c       $chain$8$?normalizeInput@QuantizerImpl@@AEAAXIPEBVPxVec3@physx@@I@Z 0000000180055a9c     Quantizer.obj
 0002:0000caac       $chain$10$?normalizeInput@QuantizerImpl@@AEAAXIPEBVPxVec3@physx@@I@Z 0000000180055aac     Quantizer.obj
 0002:0000cac4       $chain$11$?normalizeInput@QuantizerImpl@@AEAAXIPEBVPxVec3@physx@@I@Z 0000000180055ac4     Quantizer.obj
 0002:0000cad4       $unwind$?growAndPushBack@?$Array@VPxVec3@physx@@V?$ReflectionAllocator@VPxVec3@physx@@@shdfnd@2@@shdfnd@physx@@IEAAAEAVPxVec3@3@AEBV43@@Z 0000000180055ad4     Quantizer.obj
 0002:0000cad4       $unwind$?saveMidPhaseStructure@BV4TriangleMeshBuilder@physx@@UEBAXAEAVPxOutputStream@2@_N@Z 0000000180055ad4     TriangleMeshBuilder.obj
 0002:0000cae0       $chain$0$?growAndPushBack@?$Array@VPxVec3@physx@@V?$ReflectionAllocator@VPxVec3@physx@@@shdfnd@2@@shdfnd@physx@@IEAAAEAVPxVec3@3@AEBV43@@Z 0000000180055ae0     Quantizer.obj
 0002:0000caf4       $chain$1$?growAndPushBack@?$Array@VPxVec3@physx@@V?$ReflectionAllocator@VPxVec3@physx@@@shdfnd@2@@shdfnd@physx@@IEAAAEAVPxVec3@3@AEBV43@@Z 0000000180055af4     Quantizer.obj
 0002:0000cb08       $chain$2$?growAndPushBack@?$Array@VPxVec3@physx@@V?$ReflectionAllocator@VPxVec3@physx@@@shdfnd@2@@shdfnd@physx@@IEAAAEAVPxVec3@3@AEBV43@@Z 0000000180055b08     Quantizer.obj
 0002:0000cb18       $chain$4$?growAndPushBack@?$Array@VPxVec3@physx@@V?$ReflectionAllocator@VPxVec3@physx@@@shdfnd@2@@shdfnd@physx@@IEAAAEAVPxVec3@3@AEBV43@@Z 0000000180055b18     Quantizer.obj
 0002:0000cb2c       $chain$3$?growAndPushBack@?$Array@VPxVec3@physx@@V?$ReflectionAllocator@VPxVec3@physx@@@shdfnd@2@@shdfnd@physx@@IEAAAEAVPxVec3@3@AEBV43@@Z 0000000180055b2c     Quantizer.obj
 0002:0000cb3c       $unwind$??_GQuantizerImpl@@EEAAPEAXI@Z 0000000180055b3c     Quantizer.obj
 0002:0000cb3c       $unwind$??_GConvexHull@physx@@QEAAPEAXI@Z 0000000180055b3c     QuickHullConvexHullLib.obj
 0002:0000cb48       $chain$0$??_GQuantizerImpl@@EEAAPEAXI@Z 0000000180055b48     Quantizer.obj
 0002:0000cb5c       $chain$1$??_GQuantizerImpl@@EEAAPEAXI@Z 0000000180055b5c     Quantizer.obj
 0002:0000cb6c       $unwind$?loadFromDesc@BVHStructureBuilder@physx@@QEAA_NAEBVPxBVHStructureDesc@2@@Z 0000000180055b6c     BVHStructureBuilder.obj
 0002:0000cb78       $chain$4$?loadFromDesc@BVHStructureBuilder@physx@@QEAA_NAEBVPxBVHStructureDesc@2@@Z 0000000180055b78     BVHStructureBuilder.obj
 0002:0000cb9c       $chain$6$?loadFromDesc@BVHStructureBuilder@physx@@QEAA_NAEBVPxBVHStructureDesc@2@@Z 0000000180055b9c     BVHStructureBuilder.obj
 0002:0000cbb4       $chain$7$?loadFromDesc@BVHStructureBuilder@physx@@QEAA_NAEBVPxBVHStructureDesc@2@@Z 0000000180055bb4     BVHStructureBuilder.obj
 0002:0000cbc4       $chain$8$?loadFromDesc@BVHStructureBuilder@physx@@QEAA_NAEBVPxBVHStructureDesc@2@@Z 0000000180055bc4     BVHStructureBuilder.obj
 0002:0000cbd4       $unwind$?save@BVHStructureBuilder@physx@@QEBA_NAEAVPxOutputStream@2@_N@Z 0000000180055bd4     BVHStructureBuilder.obj
 0002:0000cbe4       $chain$2$?save@BVHStructureBuilder@physx@@QEBA_NAEAVPxOutputStream@2@_N@Z 0000000180055be4     BVHStructureBuilder.obj
 0002:0000cbfc       $chain$3$?save@BVHStructureBuilder@physx@@QEBA_NAEAVPxOutputStream@2@_N@Z 0000000180055bfc     BVHStructureBuilder.obj
 0002:0000cc10       $chain$1$?allocate@?$Array@USlab@NodeAllocator@Gu@physx@@V?$ReflectionAllocator@USlab@NodeAllocator@Gu@physx@@@shdfnd@4@@shdfnd@physx@@IEAAPEAUSlab@NodeAllocator@Gu@3@I@Z 0000000180055c10     BVHStructureBuilder.obj
 0002:0000cc28       $chain$3$?allocate@?$Array@USlab@NodeAllocator@Gu@physx@@V?$ReflectionAllocator@USlab@NodeAllocator@Gu@physx@@@shdfnd@4@@shdfnd@physx@@IEAAPEAUSlab@NodeAllocator@Gu@3@I@Z 0000000180055c28     BVHStructureBuilder.obj
 0002:0000cc3c       $chain$4$?allocate@?$Array@USlab@NodeAllocator@Gu@physx@@V?$ReflectionAllocator@USlab@NodeAllocator@Gu@physx@@@shdfnd@4@@shdfnd@physx@@IEAAPEAUSlab@NodeAllocator@Gu@3@I@Z 0000000180055c3c     BVHStructureBuilder.obj
 0002:0000cc4c       $chain$0$?recreate@?$Array@USlab@NodeAllocator@Gu@physx@@V?$ReflectionAllocator@USlab@NodeAllocator@Gu@physx@@@shdfnd@4@@shdfnd@physx@@IEAAXI@Z 0000000180055c4c     BVHStructureBuilder.obj
 0002:0000cc60       $chain$1$?recreate@?$Array@USlab@NodeAllocator@Gu@physx@@V?$ReflectionAllocator@USlab@NodeAllocator@Gu@physx@@@shdfnd@4@@shdfnd@physx@@IEAAXI@Z 0000000180055c60     BVHStructureBuilder.obj
 0002:0000cc70       $unwind$??4NodeAllocator@Gu@physx@@QEAAAEAV012@AEBV012@@Z 0000000180055c70     BVHStructureBuilder.obj
 0002:0000cc70       $unwind$_free_osfhnd       0000000180055c70     libucrt:osfinfo.obj
 0002:0000cc70       $unwind$__std_exception_copy 0000000180055c70     libvcruntime:std_exception.obj
 0002:0000cc70       $unwind$??$doPchar@$00@DName@@AEAAXPEBDH@Z 0000000180055c70     libvcruntime:undname.obj
 0002:0000cc84       $unwind$?saveHeightField@physx@@YA_NAEBVHeightField@Gu@1@AEAVPxOutputStream@1@_N@Z 0000000180055c84     HeightFieldCooking.obj
 0002:0000cc94       $chain$2$?saveHeightField@physx@@YA_NAEBVHeightField@Gu@1@AEAVPxOutputStream@1@_N@Z 0000000180055c94     HeightFieldCooking.obj
 0002:0000ccac       $chain$3$?saveHeightField@physx@@YA_NAEBVHeightField@Gu@1@AEAVPxOutputStream@1@_N@Z 0000000180055cac     HeightFieldCooking.obj
 0002:0000ccbc       $chain$0$?allocate@?$ReflectionAllocator@I@shdfnd@physx@@QEAAPEAX_KPEBDH@Z 0000000180055cbc     RTreeCooking.obj
 0002:0000ccd0       $chain$1$?allocate@?$ReflectionAllocator@I@shdfnd@physx@@QEAAPEAX_KPEBDH@Z 0000000180055cd0     RTreeCooking.obj
 0002:0000cce0       $unwind$?buildFromTriangles@RTreeCooker@physx@@SAXAEAURTree@Gu@2@PEBVPxVec3@2@IPEBGPEBIIAEAV?$Array@IV?$ReflectionAllocator@I@shdfnd@physx@@@shdfnd@2@PEAURemapCallback@12@MW4Enum@PxMeshCookingHint@2@@Z 0000000180055ce0     RTreeCooking.obj
 0002:0000ccec       $chain$7$?buildFromTriangles@RTreeCooker@physx@@SAXAEAURTree@Gu@2@PEBVPxVec3@2@IPEBGPEBIIAEAV?$Array@IV?$ReflectionAllocator@I@shdfnd@physx@@@shdfnd@2@PEAURemapCallback@12@MW4Enum@PxMeshCookingHint@2@@Z 0000000180055cec     RTreeCooking.obj
 0002:0000cd1c       $chain$9$?buildFromTriangles@RTreeCooker@physx@@SAXAEAURTree@Gu@2@PEBVPxVec3@2@IPEBGPEBIIAEAV?$Array@IV?$ReflectionAllocator@I@shdfnd@physx@@@shdfnd@2@PEAURemapCallback@12@MW4Enum@PxMeshCookingHint@2@@Z 0000000180055d1c     RTreeCooking.obj
 0002:0000cd34       $chain$10$?buildFromTriangles@RTreeCooker@physx@@SAXAEAURTree@Gu@2@PEBVPxVec3@2@IPEBGPEBIIAEAV?$Array@IV?$ReflectionAllocator@I@shdfnd@physx@@@shdfnd@2@PEAURemapCallback@12@MW4Enum@PxMeshCookingHint@2@@Z 0000000180055d34     RTreeCooking.obj
 0002:0000cd44       $chain$11$?buildFromTriangles@RTreeCooker@physx@@SAXAEAURTree@Gu@2@PEBVPxVec3@2@IPEBGPEBIIAEAV?$Array@IV?$ReflectionAllocator@I@shdfnd@physx@@@shdfnd@2@PEAURemapCallback@12@MW4Enum@PxMeshCookingHint@2@@Z 0000000180055d44     RTreeCooking.obj
 0002:0000cd54       $unwind$?buildFromBounds@physx@@YAXAEAURTree@Gu@1@PEBUPxBounds3V@1@IAEAV?$Array@IV?$ReflectionAllocator@I@shdfnd@physx@@@shdfnd@1@PEAURemapCallback@RTreeCooker@1@AEAT__m128@@4MW4Enum@PxMeshCookingHint@1@@Z 0000000180055d54     RTreeCooking.obj
 0002:0000cd70       $chain$1$?allocate@?$Array@UPxBounds3V@physx@@V?$ReflectionAllocator@UPxBounds3V@physx@@@shdfnd@2@@shdfnd@physx@@IEAAPEAUPxBounds3V@3@I@Z 0000000180055d70     RTreeCooking.obj
 0002:0000cd88       $chain$3$?allocate@?$Array@UPxBounds3V@physx@@V?$ReflectionAllocator@UPxBounds3V@physx@@@shdfnd@2@@shdfnd@physx@@IEAAPEAUPxBounds3V@3@I@Z 0000000180055d88     RTreeCooking.obj
 0002:0000cd9c       $chain$4$?allocate@?$Array@UPxBounds3V@physx@@V?$ReflectionAllocator@UPxBounds3V@physx@@@shdfnd@2@@shdfnd@physx@@IEAAPEAUPxBounds3V@3@I@Z 0000000180055d9c     RTreeCooking.obj
 0002:0000cdac       $unwind$?growAndPushBack@?$Array@VHalfEdge@ConvexHull@physx@@V?$ReflectionAllocator@VHalfEdge@ConvexHull@physx@@@shdfnd@3@@shdfnd@physx@@IEAAAEAVHalfEdge@ConvexHull@3@AEBV453@@Z 0000000180055dac     ConvexHullUtils.obj
 0002:0000cdac       $unwind$?growAndPushBack@?$Array@VPxPlane@physx@@V?$ReflectionAllocator@VPxPlane@physx@@@shdfnd@2@@shdfnd@physx@@IEAAAEAVPxPlane@3@AEBV43@@Z 0000000180055dac     ConvexHullUtils.obj
 0002:0000cdac       $unwind$?resize@?$Array@VHalfEdge@ConvexHull@physx@@V?$ReflectionAllocator@VHalfEdge@ConvexHull@physx@@@shdfnd@3@@shdfnd@physx@@QEAAXIAEBVHalfEdge@ConvexHull@3@@Z 0000000180055dac     ConvexHullUtils.obj
 0002:0000cdac       $unwind$?growAndPushBack@?$Array@VPair@@V?$ReflectionAllocator@VPair@@@shdfnd@physx@@@shdfnd@physx@@IEAAAEAVPair@@AEBV4@@Z 0000000180055dac     ConvexPolygonsBuilder.obj
 0002:0000cdac       $unwind$??_GQuickHullConvexHullLib@physx@@UEAAPEAXI@Z 0000000180055dac     QuickHullConvexHullLib.obj
 0002:0000cdac       $unwind$?growAndPushBack@?$Array@PEAUQuickHullFace@local@@V?$ReflectionAllocator@PEAUQuickHullFace@local@@@shdfnd@physx@@@shdfnd@physx@@IEAAAEAPEAUQuickHullFace@local@@AEBQEAU45@@Z 0000000180055dac     QuickHullConvexHullLib.obj
 0002:0000cdac       $unwind$?growAndPushBack@?$Array@PEAUQuickHullHalfEdge@local@@V?$ReflectionAllocator@PEAUQuickHullHalfEdge@local@@@shdfnd@physx@@@shdfnd@physx@@IEAAAEAPEAUQuickHullHalfEdge@local@@AEBQEAU45@@Z 0000000180055dac     QuickHullConvexHullLib.obj
 0002:0000cdac       $unwind$?growAndPushBack@?$Array@PEAUQuickHullVertex@local@@V?$ReflectionAllocator@PEAUQuickHullVertex@local@@@shdfnd@physx@@@shdfnd@physx@@IEAAAEAPEAUQuickHullVertex@local@@AEBQEAU45@@Z 0000000180055dac     QuickHullConvexHullLib.obj
 0002:0000cdac       $unwind$?growAndPushBack@?$Array@UExpandPoint@local@@V?$ReflectionAllocator@UExpandPoint@local@@@shdfnd@physx@@@shdfnd@physx@@IEAAAEAUExpandPoint@local@@AEBU45@@Z 0000000180055dac     QuickHullConvexHullLib.obj
 0002:0000cdac       $unwind$?growAndPushBack@?$Array@UInterval@physx@@V?$InlineAllocator@$0CAAA@V?$ReflectionAllocator@UInterval@physx@@@shdfnd@physx@@@shdfnd@2@@shdfnd@physx@@IEAAAEAUInterval@3@AEBU43@@Z 0000000180055dac     RTreeCooking.obj
 0002:0000cdac       $unwind$?growAndPushBack@?$Array@UPxBounds3V@physx@@V?$ReflectionAllocator@UPxBounds3V@physx@@@shdfnd@2@@shdfnd@physx@@IEAAAEAUPxBounds3V@3@AEBU43@@Z 0000000180055dac     RTreeCooking.obj
 0002:0000cdac       $unwind$?growAndPushBack@?$Array@URTreeNodeNQ@physx@@V?$ReflectionAllocator@URTreeNodeNQ@physx@@@shdfnd@2@@shdfnd@physx@@IEAAAEAURTreeNodeNQ@3@AEBU43@@Z 0000000180055dac     RTreeCooking.obj
 0002:0000cdac       $unwind$?growAndPushBack@?$Array@URTreeNodeQ@Gu@physx@@V?$ReflectionAllocator@URTreeNodeQ@Gu@physx@@@shdfnd@3@@shdfnd@physx@@IEAAAEAURTreeNodeQ@Gu@3@AEBU453@@Z 0000000180055dac     RTreeCooking.obj
 0002:0000cdac       $unwind$?resize@?$Array@IV?$ReflectionAllocator@I@shdfnd@physx@@@shdfnd@physx@@QEAAXIAEBI@Z 0000000180055dac     RTreeCooking.obj
 0002:0000cdac       $unwind$?should_round_up@@YA_NQEBD0HW4__acrt_has_trailing_digits@@W4__acrt_rounding_mode@@@Z 0000000180055dac     libucrt:_fptostr.obj
 0002:0000cdac       $unwind$_ischartype_l      0000000180055dac     libucrt:atox.obj
 0002:0000cdac       $unwind$_recalloc_base     0000000180055dac     libucrt:recalloc.obj
 0002:0000cdac       $unwind$__acrt_free_locale 0000000180055dac     libucrt:locale_refcounting.obj
 0002:0000cdac       $unwind$__acrt_lowio_create_handle_array 0000000180055dac     libucrt:osfinfo.obj
 0002:0000cdac       $unwind$_seh_filter_exe    0000000180055dac     libucrt:exception_filter.obj
 0002:0000cdac       $unwind$__acrt_stdio_flush_nolock 0000000180055dac     libucrt:fflush.obj
 0002:0000cdac       $unwind$??$ensure_buffer_is_big_enough@D@formatting_buffer@__crt_stdio_output@@QEAA_N_KAEAV__crt_cached_ptd_host@@@Z 0000000180055dac     libucrt:output.obj
 0002:0000cdac       $unwind$__scrt_dllmain_exception_filter 0000000180055dac     LIBCMT:utility.obj
 0002:0000cdac       $unwind$?GetHandlerSearchState@__FrameHandler3@@SAHPEA_KPEAU_xDISPATCHER_CONTEXT@@PEBU_s_FuncInfo@@@Z 0000000180055dac     libvcruntime:frame.obj
 0002:0000cdac       $unwind$?Is_bad_exception_allowed@@YAEPEBU_s_ESTypeList@@@Z 0000000180055dac     libvcruntime:frame.obj
 0002:0000cdc0       $chain$0$?recreate@?$Array@UPxBounds3V@physx@@V?$ReflectionAllocator@UPxBounds3V@physx@@@shdfnd@2@@shdfnd@physx@@IEAAXI@Z 0000000180055dc0     RTreeCooking.obj
 0002:0000cdd4       $chain$1$?recreate@?$Array@UPxBounds3V@physx@@V?$ReflectionAllocator@UPxBounds3V@physx@@@shdfnd@2@@shdfnd@physx@@IEAAXI@Z 0000000180055dd4     RTreeCooking.obj
 0002:0000cde4       $unwind$?growAndPushBack@?$Array@IV?$ReflectionAllocator@I@shdfnd@physx@@@shdfnd@physx@@IEAAAEAIAEBI@Z 0000000180055de4     RTreeCooking.obj
 0002:0000cdf4       $chain$0$?growAndPushBack@?$Array@IV?$ReflectionAllocator@I@shdfnd@physx@@@shdfnd@physx@@IEAAAEAIAEBI@Z 0000000180055df4     RTreeCooking.obj
 0002:0000ce08       $chain$2$?growAndPushBack@?$Array@IV?$ReflectionAllocator@I@shdfnd@physx@@@shdfnd@physx@@IEAAAEAIAEBI@Z 0000000180055e08     RTreeCooking.obj
 0002:0000ce1c       $chain$1$?growAndPushBack@?$Array@IV?$ReflectionAllocator@I@shdfnd@physx@@@shdfnd@physx@@IEAAAEAIAEBI@Z 0000000180055e1c     RTreeCooking.obj
 0002:0000ce2c       $chain$0$?recreate@?$Array@IV?$ReflectionAllocator@I@shdfnd@physx@@@shdfnd@physx@@IEAAXI@Z 0000000180055e2c     RTreeCooking.obj
 0002:0000ce40       $chain$1$?recreate@?$Array@IV?$ReflectionAllocator@I@shdfnd@physx@@@shdfnd@physx@@IEAAXI@Z 0000000180055e40     RTreeCooking.obj
 0002:0000ce50       $chain$1$?allocate@?$Array@VPxVec3@physx@@V?$ReflectionAllocator@VPxVec3@physx@@@shdfnd@2@@shdfnd@physx@@IEAAPEAVPxVec3@3@I@Z 0000000180055e50     RTreeCooking.obj
 0002:0000ce68       $chain$3$?allocate@?$Array@VPxVec3@physx@@V?$ReflectionAllocator@VPxVec3@physx@@@shdfnd@2@@shdfnd@physx@@IEAAPEAVPxVec3@3@I@Z 0000000180055e68     RTreeCooking.obj
 0002:0000ce7c       $chain$4$?allocate@?$Array@VPxVec3@physx@@V?$ReflectionAllocator@VPxVec3@physx@@@shdfnd@2@@shdfnd@physx@@IEAAPEAVPxVec3@3@I@Z 0000000180055e7c     RTreeCooking.obj
 0002:0000ce8c       $chain$0$?recreate@?$Array@VPxVec3@physx@@V?$ReflectionAllocator@VPxVec3@physx@@@shdfnd@2@@shdfnd@physx@@IEAAXI@Z 0000000180055e8c     RTreeCooking.obj
 0002:0000cea0       $chain$1$?recreate@?$Array@VPxVec3@physx@@V?$ReflectionAllocator@VPxVec3@physx@@@shdfnd@2@@shdfnd@physx@@IEAAXI@Z 0000000180055ea0     RTreeCooking.obj
 0002:0000ceb0       $unwind$?sort4@SubSortQuick@physx@@QEAAXPEIAIIAEAV?$Array@URTreeNodeNQ@physx@@V?$ReflectionAllocator@URTreeNodeNQ@physx@@@shdfnd@2@@shdfnd@2@AEAIAEAUPxBounds3V@2@I@Z 0000000180055eb0     RTreeCooking.obj
 0002:0000cec8       $chain$1$?allocate@?$Array@URTreeNodeNQ@physx@@V?$ReflectionAllocator@URTreeNodeNQ@physx@@@shdfnd@2@@shdfnd@physx@@IEAAPEAURTreeNodeNQ@3@I@Z 0000000180055ec8     RTreeCooking.obj
 0002:0000cee0       $chain$3$?allocate@?$Array@URTreeNodeNQ@physx@@V?$ReflectionAllocator@URTreeNodeNQ@physx@@@shdfnd@2@@shdfnd@physx@@IEAAPEAURTreeNodeNQ@3@I@Z 0000000180055ee0     RTreeCooking.obj
 0002:0000cef4       $chain$4$?allocate@?$Array@URTreeNodeNQ@physx@@V?$ReflectionAllocator@URTreeNodeNQ@physx@@@shdfnd@2@@shdfnd@physx@@IEAAPEAURTreeNodeNQ@3@I@Z 0000000180055ef4     RTreeCooking.obj
 0002:0000cf04       $chain$0$?recreate@?$Array@URTreeNodeNQ@physx@@V?$ReflectionAllocator@URTreeNodeNQ@physx@@@shdfnd@2@@shdfnd@physx@@IEAAXI@Z 0000000180055f04     RTreeCooking.obj
 0002:0000cf18       $chain$1$?recreate@?$Array@URTreeNodeNQ@physx@@V?$ReflectionAllocator@URTreeNodeNQ@physx@@@shdfnd@2@@shdfnd@physx@@IEAAXI@Z 0000000180055f18     RTreeCooking.obj
 0002:0000cf28       $unwind$??$quickSelectFirstK@UBoundsLTE@physx@@@quickSelect@physx@@YAXPEIAIIIIAEBUBoundsLTE@1@@Z 0000000180055f28     RTreeCooking.obj
 0002:0000cf40       $unwind$?split@SubSortSAH@physx@@QEAAIPEAII@Z 0000000180055f40     RTreeCooking.obj
 0002:0000cf4c       $chain$3$?split@SubSortSAH@physx@@QEAAIPEAII@Z 0000000180055f4c     RTreeCooking.obj
 0002:0000cf6c       $chain$6$?split@SubSortSAH@physx@@QEAAIPEAII@Z 0000000180055f6c     RTreeCooking.obj
 0002:0000cf88       $chain$7$?split@SubSortSAH@physx@@QEAAIPEAII@Z 0000000180055f88     RTreeCooking.obj
 0002:0000cf88       $chain$9$?split@SubSortSAH@physx@@QEAAIPEAII@Z 0000000180055f88     RTreeCooking.obj
 0002:0000cf98       $chain$8$?split@SubSortSAH@physx@@QEAAIPEAII@Z 0000000180055f98     RTreeCooking.obj
 0002:0000cfb4       $chain$10$?split@SubSortSAH@physx@@QEAAIPEAII@Z 0000000180055fb4     RTreeCooking.obj
 0002:0000cfc4       $unwind$?sort4@SubSortSAH@physx@@QEAAXPEAIIAEAV?$Array@URTreeNodeNQ@physx@@V?$ReflectionAllocator@URTreeNodeNQ@physx@@@shdfnd@2@@shdfnd@2@AEAIIPEAURTreeNodeNQ@2@@Z 0000000180055fc4     RTreeCooking.obj
 0002:0000cff0       $chain$1$?allocate@?$Array@UInterval@physx@@V?$InlineAllocator@$0CAAA@V?$ReflectionAllocator@UInterval@physx@@@shdfnd@physx@@@shdfnd@2@@shdfnd@physx@@IEAAPEAUInterval@3@I@Z 0000000180055ff0     RTreeCooking.obj
 0002:0000d008       $chain$3$?allocate@?$Array@UInterval@physx@@V?$InlineAllocator@$0CAAA@V?$ReflectionAllocator@UInterval@physx@@@shdfnd@physx@@@shdfnd@2@@shdfnd@physx@@IEAAPEAUInterval@3@I@Z 0000000180056008     RTreeCooking.obj
 0002:0000d01c       $chain$4$?allocate@?$Array@UInterval@physx@@V?$InlineAllocator@$0CAAA@V?$ReflectionAllocator@UInterval@physx@@@shdfnd@physx@@@shdfnd@2@@shdfnd@physx@@IEAAPEAUInterval@3@I@Z 000000018005601c     RTreeCooking.obj
 0002:0000d02c       $chain$1$?allocate@?$Array@URTreeNodeQ@Gu@physx@@V?$ReflectionAllocator@URTreeNodeQ@Gu@physx@@@shdfnd@3@@shdfnd@physx@@IEAAPEAURTreeNodeQ@Gu@3@I@Z 000000018005602c     RTreeCooking.obj
 0002:0000d044       $chain$3$?allocate@?$Array@URTreeNodeQ@Gu@physx@@V?$ReflectionAllocator@URTreeNodeQ@Gu@physx@@@shdfnd@3@@shdfnd@physx@@IEAAPEAURTreeNodeQ@Gu@3@I@Z 0000000180056044     RTreeCooking.obj
 0002:0000d058       $chain$4$?allocate@?$Array@URTreeNodeQ@Gu@physx@@V?$ReflectionAllocator@URTreeNodeQ@Gu@physx@@@shdfnd@3@@shdfnd@physx@@IEAAPEAURTreeNodeQ@Gu@3@I@Z 0000000180056058     RTreeCooking.obj
 0002:0000d068       $chain$0$?recreate@?$Array@URTreeNodeQ@Gu@physx@@V?$ReflectionAllocator@URTreeNodeQ@Gu@physx@@@shdfnd@3@@shdfnd@physx@@IEAAXI@Z 0000000180056068     RTreeCooking.obj
 0002:0000d07c       $chain$1$?recreate@?$Array@URTreeNodeQ@Gu@physx@@V?$ReflectionAllocator@URTreeNodeQ@Gu@physx@@@shdfnd@3@@shdfnd@physx@@IEAAXI@Z 000000018005607c     RTreeCooking.obj
 0002:0000d08c       $unwind$??$sort@IU?$Less@I@shdfnd@physx@@V?$ReflectionAllocator@I@23@@shdfnd@physx@@YAXPEAIIAEBU?$Less@I@01@AEBV?$ReflectionAllocator@I@01@I@Z 000000018005608c     RTreeCooking.obj
 0002:0000d0ac       $unwind$??$sort@IUSortBoundsPredicate@physx@@V?$ReflectionAllocator@I@shdfnd@2@@shdfnd@physx@@YAXPEAIIAEBUSortBoundsPredicate@1@AEBV?$ReflectionAllocator@I@01@I@Z 00000001800560ac     RTreeCooking.obj
 0002:0000d0c8       $unwind$??$smallSort@I$$CBUSortBoundsPredicate@physx@@@internal@shdfnd@physx@@YAXPEAIHHAEBUSortBoundsPredicate@2@@Z 00000001800560c8     RTreeCooking.obj
 0002:0000d0d4       $chain$6$??$smallSort@I$$CBUSortBoundsPredicate@physx@@@internal@shdfnd@physx@@YAXPEAIHHAEBUSortBoundsPredicate@2@@Z 00000001800560d4     RTreeCooking.obj
 0002:0000d100       $chain$7$??$smallSort@I$$CBUSortBoundsPredicate@physx@@@internal@shdfnd@physx@@YAXPEAIHHAEBUSortBoundsPredicate@2@@Z 0000000180056100     RTreeCooking.obj
 0002:0000d110       $unwind$??0QuickHullConvexHullLib@physx@@QEAA@AEBVPxConvexMeshDesc@1@AEBUPxCookingParams@1@@Z 0000000180056110     QuickHullConvexHullLib.obj
 0002:0000d110       $unwind$?allocateTriangles@TriangleMeshData@Gu@physx@@QEAAPEAXI_NI@Z 0000000180056110     TriangleMeshBuilder.obj
 0002:0000d128       $chain$0$??$?_UG@@YAPEAX_KV?$ReflectionAllocator@G@shdfnd@physx@@PEBDH@Z 0000000180056128     TriangleMeshBuilder.obj
 0002:0000d13c       $chain$1$??$?_UG@@YAPEAX_KV?$ReflectionAllocator@G@shdfnd@physx@@PEBDH@Z 000000018005613c     TriangleMeshBuilder.obj
 0002:0000d14c       $chain$0$??1RTreeTriangleData@Gu@physx@@UEAA@XZ 000000018005614c     TriangleMeshBuilder.obj
 0002:0000d160       $chain$1$??1RTreeTriangleData@Gu@physx@@UEAA@XZ 0000000180056160     TriangleMeshBuilder.obj
 0002:0000d170       $unwind$?cleanMesh@TriangleMeshBuilder@physx@@QEAA_N_NPEAW4Enum@PxTriangleMeshCookingResult@2@@Z 0000000180056170     TriangleMeshBuilder.obj
 0002:0000d184       $chain$0$?cleanMesh@TriangleMeshBuilder@physx@@QEAA_N_NPEAW4Enum@PxTriangleMeshCookingResult@2@@Z 0000000180056184     TriangleMeshBuilder.obj
 0002:0000d198       $chain$1$?cleanMesh@TriangleMeshBuilder@physx@@QEAA_N_NPEAW4Enum@PxTriangleMeshCookingResult@2@@Z 0000000180056198     TriangleMeshBuilder.obj
 0002:0000d1ac       $chain$2$?cleanMesh@TriangleMeshBuilder@physx@@QEAA_N_NPEAW4Enum@PxTriangleMeshCookingResult@2@@Z 00000001800561ac     TriangleMeshBuilder.obj
 0002:0000d1c0       $chain$3$?cleanMesh@TriangleMeshBuilder@physx@@QEAA_N_NPEAW4Enum@PxTriangleMeshCookingResult@2@@Z 00000001800561c0     TriangleMeshBuilder.obj
 0002:0000d1d0       $chain$7$?cleanMesh@TriangleMeshBuilder@physx@@QEAA_N_NPEAW4Enum@PxTriangleMeshCookingResult@2@@Z 00000001800561d0     TriangleMeshBuilder.obj
 0002:0000d1ec       $chain$4$?cleanMesh@TriangleMeshBuilder@physx@@QEAA_N_NPEAW4Enum@PxTriangleMeshCookingResult@2@@Z 00000001800561ec     TriangleMeshBuilder.obj
 0002:0000d1fc       $chain$8$?cleanMesh@TriangleMeshBuilder@physx@@QEAA_N_NPEAW4Enum@PxTriangleMeshCookingResult@2@@Z 00000001800561fc     TriangleMeshBuilder.obj
 0002:0000d20c       $unwind$?remapTopology@TriangleMeshBuilder@physx@@QEAAXPEBI@Z 000000018005620c     TriangleMeshBuilder.obj
 0002:0000d218       $chain$4$?remapTopology@TriangleMeshBuilder@physx@@QEAAXPEBI@Z 0000000180056218     TriangleMeshBuilder.obj
 0002:0000d23c       $chain$5$?remapTopology@TriangleMeshBuilder@physx@@QEAAXPEBI@Z 000000018005623c     TriangleMeshBuilder.obj
 0002:0000d25c       $chain$6$?remapTopology@TriangleMeshBuilder@physx@@QEAAXPEBI@Z 000000018005625c     TriangleMeshBuilder.obj
 0002:0000d26c       $unwind$?createSharedEdgeData@TriangleMeshBuilder@physx@@QEAAX_N0@Z 000000018005626c     TriangleMeshBuilder.obj
 0002:0000d278       $chain$3$?createSharedEdgeData@TriangleMeshBuilder@physx@@QEAAX_N0@Z 0000000180056278     TriangleMeshBuilder.obj
 0002:0000d298       $chain$4$?createSharedEdgeData@TriangleMeshBuilder@physx@@QEAAX_N0@Z 0000000180056298     TriangleMeshBuilder.obj
 0002:0000d2ac       $chain$5$?createSharedEdgeData@TriangleMeshBuilder@physx@@QEAAX_N0@Z 00000001800562ac     TriangleMeshBuilder.obj
 0002:0000d2bc       $chain$6$?createSharedEdgeData@TriangleMeshBuilder@physx@@QEAAX_N0@Z 00000001800562bc     TriangleMeshBuilder.obj
 0002:0000d2cc       $unwind$?createGRBMidPhaseAndData@TriangleMeshBuilder@physx@@QEAAXI@Z 00000001800562cc     TriangleMeshBuilder.obj
 0002:0000d2d8       $chain$0$?createGRBMidPhaseAndData@TriangleMeshBuilder@physx@@QEAAXI@Z 00000001800562d8     TriangleMeshBuilder.obj
 0002:0000d2ec       $chain$4$?createGRBMidPhaseAndData@TriangleMeshBuilder@physx@@QEAAXI@Z 00000001800562ec     TriangleMeshBuilder.obj
 0002:0000d30c       $chain$5$?createGRBMidPhaseAndData@TriangleMeshBuilder@physx@@QEAAXI@Z 000000018005630c     TriangleMeshBuilder.obj
 0002:0000d328       $chain$6$?createGRBMidPhaseAndData@TriangleMeshBuilder@physx@@QEAAXI@Z 0000000180056328     TriangleMeshBuilder.obj
 0002:0000d33c       $chain$7$?createGRBMidPhaseAndData@TriangleMeshBuilder@physx@@QEAAXI@Z 000000018005633c     TriangleMeshBuilder.obj
 0002:0000d350       $chain$8$?createGRBMidPhaseAndData@TriangleMeshBuilder@physx@@QEAAXI@Z 0000000180056350     TriangleMeshBuilder.obj
 0002:0000d360       $unwind$?loadFromDesc@TriangleMeshBuilder@physx@@QEAA_NAEBVPxTriangleMeshDesc@2@PEAW4Enum@PxTriangleMeshCookingResult@2@_N@Z 0000000180056360     TriangleMeshBuilder.obj
 0002:0000d370       $chain$2$?loadFromDesc@TriangleMeshBuilder@physx@@QEAA_NAEBVPxTriangleMeshDesc@2@PEAW4Enum@PxTriangleMeshCookingResult@2@_N@Z 0000000180056370     TriangleMeshBuilder.obj
 0002:0000d38c       $chain$4$?loadFromDesc@TriangleMeshBuilder@physx@@QEAA_NAEBVPxTriangleMeshDesc@2@PEAW4Enum@PxTriangleMeshCookingResult@2@_N@Z 000000018005638c     TriangleMeshBuilder.obj
 0002:0000d3a8       $chain$5$?loadFromDesc@TriangleMeshBuilder@physx@@QEAA_NAEBVPxTriangleMeshDesc@2@PEAW4Enum@PxTriangleMeshCookingResult@2@_N@Z 00000001800563a8     TriangleMeshBuilder.obj
 0002:0000d3b8       $unwind$?save@TriangleMeshBuilder@physx@@QEBA_NAEAVPxOutputStream@2@_NAEBUPxCookingParams@2@@Z 00000001800563b8     TriangleMeshBuilder.obj
 0002:0000d3d4       $chain$3$?save@TriangleMeshBuilder@physx@@QEBA_NAEAVPxOutputStream@2@_NAEBUPxCookingParams@2@@Z 00000001800563d4     TriangleMeshBuilder.obj
 0002:0000d3e8       $unwind$?checkMeshIndicesSize@TriangleMeshBuilder@physx@@QEAAXXZ 00000001800563e8     TriangleMeshBuilder.obj
 0002:0000d3f4       $chain$1$?checkMeshIndicesSize@TriangleMeshBuilder@physx@@QEAAXXZ 00000001800563f4     TriangleMeshBuilder.obj
 0002:0000d40c       $chain$2$?checkMeshIndicesSize@TriangleMeshBuilder@physx@@QEAAXXZ 000000018005640c     TriangleMeshBuilder.obj
 0002:0000d420       $chain$3$?checkMeshIndicesSize@TriangleMeshBuilder@physx@@QEAAXXZ 0000000180056420     TriangleMeshBuilder.obj
 0002:0000d430       $chain$4$?checkMeshIndicesSize@TriangleMeshBuilder@physx@@QEAAXXZ 0000000180056430     TriangleMeshBuilder.obj
 0002:0000d440       $unwind$?importMesh@TriangleMeshBuilder@physx@@IEAA_NAEBVPxTriangleMeshDesc@2@AEBUPxCookingParams@2@PEAW4Enum@PxTriangleMeshCookingResult@2@_N@Z 0000000180056440     TriangleMeshBuilder.obj
 0002:0000d45c       $unwind$?createMidPhaseStructure@RTreeTriangleMeshBuilder@physx@@UEAAXXZ 000000018005645c     TriangleMeshBuilder.obj
 0002:0000d464       $unwind$?saveMidPhaseStructure@RTreeTriangleMeshBuilder@physx@@UEBAXAEAVPxOutputStream@2@_N@Z 0000000180056464     TriangleMeshBuilder.obj
 0002:0000d474       $chain$0$?saveMidPhaseStructure@RTreeTriangleMeshBuilder@physx@@UEBAXAEAVPxOutputStream@2@_N@Z 0000000180056474     TriangleMeshBuilder.obj
 0002:0000d488       $chain$1$?saveMidPhaseStructure@RTreeTriangleMeshBuilder@physx@@UEBAXAEAVPxOutputStream@2@_N@Z 0000000180056488     TriangleMeshBuilder.obj
 0002:0000d498       $unwind$?createMidPhaseStructure@BV4TriangleMeshBuilder@physx@@UEAAXXZ 0000000180056498     TriangleMeshBuilder.obj
 0002:0000d4a4       $chain$2$?createMidPhaseStructure@BV4TriangleMeshBuilder@physx@@UEAAXXZ 00000001800564a4     TriangleMeshBuilder.obj
 0002:0000d4c0       $chain$3$?createMidPhaseStructure@BV4TriangleMeshBuilder@physx@@UEAAXXZ 00000001800564c0     TriangleMeshBuilder.obj
 0002:0000d4d4       $chain$4$?createMidPhaseStructure@BV4TriangleMeshBuilder@physx@@UEAAXXZ 00000001800564d4     TriangleMeshBuilder.obj
 0002:0000d4e4       $chain$5$?createMidPhaseStructure@BV4TriangleMeshBuilder@physx@@UEAAXXZ 00000001800564e4     TriangleMeshBuilder.obj
 0002:0000d4f8       $unwind$?createMidPhaseStructure@BV32TriangleMeshBuilder@physx@@SAXAEBUPxCookingParams@2@AEAVTriangleMeshData@Gu@2@AEAVBV32Tree@52@@Z 00000001800564f8     TriangleMeshBuilder.obj
 0002:0000d508       $chain$0$?createMidPhaseStructure@BV32TriangleMeshBuilder@physx@@SAXAEBUPxCookingParams@2@AEAVTriangleMeshData@Gu@2@AEAVBV32Tree@52@@Z 0000000180056508     TriangleMeshBuilder.obj
 0002:0000d51c       $chain$1$?createMidPhaseStructure@BV32TriangleMeshBuilder@physx@@SAXAEBUPxCookingParams@2@AEAVTriangleMeshData@Gu@2@AEAVBV32Tree@52@@Z 000000018005651c     TriangleMeshBuilder.obj
 0002:0000d530       $chain$2$?createMidPhaseStructure@BV32TriangleMeshBuilder@physx@@SAXAEBUPxCookingParams@2@AEAVTriangleMeshData@Gu@2@AEAVBV32Tree@52@@Z 0000000180056530     TriangleMeshBuilder.obj
 0002:0000d540       $chain$3$?createMidPhaseStructure@BV32TriangleMeshBuilder@physx@@SAXAEBUPxCookingParams@2@AEAVTriangleMeshData@Gu@2@AEAVBV32Tree@52@@Z 0000000180056540     TriangleMeshBuilder.obj
 0002:0000d550       $unwind$?findAdjacent@physx@@YAIPEBVPxVec3@1@0PEBUuint3@1@IIIAEBVPxPlane@1@PEAUEdgeTriLookup@1@I@Z 0000000180056550     TriangleMeshBuilder.obj
 0002:0000d574       $unwind$?buildAdjacencies@physx@@YAXPEAUuint4@1@PEAVPxVec3@1@PEBV31@PEBUuint3@1@I@Z 0000000180056574     TriangleMeshBuilder.obj
 0002:0000d580       $chain$3$?buildAdjacencies@physx@@YAXPEAUuint4@1@PEAVPxVec3@1@PEBV31@PEBUuint3@1@I@Z 0000000180056580     TriangleMeshBuilder.obj
 0002:0000d5a0       $chain$7$?buildAdjacencies@physx@@YAXPEAUuint4@1@PEAVPxVec3@1@PEBV31@PEBUuint3@1@I@Z 00000001800565a0     TriangleMeshBuilder.obj
 0002:0000d5c0       $chain$11$?buildAdjacencies@physx@@YAXPEAUuint4@1@PEAVPxVec3@1@PEBV31@PEBUuint3@1@I@Z 00000001800565c0     TriangleMeshBuilder.obj
 0002:0000d5e0       $chain$12$?buildAdjacencies@physx@@YAXPEAUuint4@1@PEAVPxVec3@1@PEBV31@PEBUuint3@1@I@Z 00000001800565e0     TriangleMeshBuilder.obj
 0002:0000d5f0       $chain$13$?buildAdjacencies@physx@@YAXPEAUuint4@1@PEAVPxVec3@1@PEBV31@PEBUuint3@1@I@Z 00000001800565f0     TriangleMeshBuilder.obj
 0002:0000d600       $chain$14$?buildAdjacencies@physx@@YAXPEAUuint4@1@PEAVPxVec3@1@PEBV31@PEBUuint3@1@I@Z 0000000180056600     TriangleMeshBuilder.obj
 0002:0000d610       $unwind$??$sort@UEdgeTriLookup@physx@@U?$Less@UEdgeTriLookup@physx@@@shdfnd@2@V?$ReflectionAllocator@UEdgeTriLookup@physx@@@42@@shdfnd@physx@@YAXPEAUEdgeTriLookup@1@IAEBU?$Less@UEdgeTriLookup@physx@@@01@AEBV?$ReflectionAllocator@UEdgeTriLookup@physx@@@01@I@Z 0000000180056610     TriangleMeshBuilder.obj
 0002:0000d630       $unwind$?precompute@BigConvexDataBuilder@physx@@QEAA_NI@Z 0000000180056630     BigConvexDataBuilder.obj
 0002:0000d648       $chain$10$?precompute@BigConvexDataBuilder@physx@@QEAA_NI@Z 0000000180056648     BigConvexDataBuilder.obj
 0002:0000d684       $chain$11$?precompute@BigConvexDataBuilder@physx@@QEAA_NI@Z 0000000180056684     BigConvexDataBuilder.obj
 0002:0000d694       $unwind$?save@BigConvexDataBuilder@physx@@QEBA_NAEAVPxOutputStream@2@_N@Z 0000000180056694     BigConvexDataBuilder.obj
 0002:0000d6a4       $chain$0$?save@BigConvexDataBuilder@physx@@QEBA_NAEAVPxOutputStream@2@_N@Z 00000001800566a4     BigConvexDataBuilder.obj
 0002:0000d6b8       $chain$1$?save@BigConvexDataBuilder@physx@@QEBA_NAEAVPxOutputStream@2@_N@Z 00000001800566b8     BigConvexDataBuilder.obj
 0002:0000d6cc       $chain$2$?save@BigConvexDataBuilder@physx@@QEBA_NAEAVPxOutputStream@2@_N@Z 00000001800566cc     BigConvexDataBuilder.obj
 0002:0000d6dc       $chain$3$?save@BigConvexDataBuilder@physx@@QEBA_NAEAVPxOutputStream@2@_N@Z 00000001800566dc     BigConvexDataBuilder.obj
 0002:0000d6ec       $unwind$?computeValencies@BigConvexDataBuilder@physx@@QEAA_NAEBVConvexHullBuilder@2@@Z 00000001800566ec     BigConvexDataBuilder.obj
 0002:0000d700       $chain$2$?computeValencies@BigConvexDataBuilder@physx@@QEAA_NAEBVConvexHullBuilder@2@@Z 0000000180056700     BigConvexDataBuilder.obj
 0002:0000d71c       $chain$3$?computeValencies@BigConvexDataBuilder@physx@@QEAA_NAEBVConvexHullBuilder@2@@Z 000000018005671c     BigConvexDataBuilder.obj
 0002:0000d72c       $unwind$?init@ConvexHullBuilder@physx@@QEAA_NIPEBVPxVec3@2@PEBIIIPEBUPxHullPolygon@2@_NPEAVConvexHullLib@2@@Z 000000018005672c     ConvexHullBuilder.obj
 0002:0000d744       $chain$0$?init@ConvexHullBuilder@physx@@QEAA_NIPEBVPxVec3@2@PEBIIIPEBUPxHullPolygon@2@_NPEAVConvexHullLib@2@@Z 0000000180056744     ConvexHullBuilder.obj
 0002:0000d758       $chain$2$?init@ConvexHullBuilder@physx@@QEAA_NIPEBVPxVec3@2@PEBIIIPEBUPxHullPolygon@2@_NPEAVConvexHullLib@2@@Z 0000000180056758     ConvexHullBuilder.obj
 0002:0000d770       $chain$7$?init@ConvexHullBuilder@physx@@QEAA_NIPEBVPxVec3@2@PEBIIIPEBUPxHullPolygon@2@_NPEAVConvexHullLib@2@@Z 0000000180056770     ConvexHullBuilder.obj
 0002:0000d794       $chain$9$?init@ConvexHullBuilder@physx@@QEAA_NIPEBVPxVec3@2@PEBIIIPEBUPxHullPolygon@2@_NPEAVConvexHullLib@2@@Z 0000000180056794     ConvexHullBuilder.obj
 0002:0000d7ac       $chain$10$?init@ConvexHullBuilder@physx@@QEAA_NIPEBVPxVec3@2@PEBIIIPEBUPxHullPolygon@2@_NPEAVConvexHullLib@2@@Z 00000001800567ac     ConvexHullBuilder.obj
 0002:0000d7c0       $chain$11$?init@ConvexHullBuilder@physx@@QEAA_NIPEBVPxVec3@2@PEBIIIPEBUPxHullPolygon@2@_NPEAVConvexHullLib@2@@Z 00000001800567c0     ConvexHullBuilder.obj
 0002:0000d7d0       $chain$12$?init@ConvexHullBuilder@physx@@QEAA_NIPEBVPxVec3@2@PEBIIIPEBUPxHullPolygon@2@_NPEAVConvexHullLib@2@@Z 00000001800567d0     ConvexHullBuilder.obj
 0002:0000d7e0       $chain$13$?init@ConvexHullBuilder@physx@@QEAA_NIPEBVPxVec3@2@PEBIIIPEBUPxHullPolygon@2@_NPEAVConvexHullLib@2@@Z 00000001800567e0     ConvexHullBuilder.obj
 0002:0000d7f0       $chain$14$?init@ConvexHullBuilder@physx@@QEAA_NIPEBVPxVec3@2@PEBIIIPEBUPxHullPolygon@2@_NPEAVConvexHullLib@2@@Z 00000001800567f0     ConvexHullBuilder.obj
 0002:0000d800       $chain$15$?init@ConvexHullBuilder@physx@@QEAA_NIPEBVPxVec3@2@PEBIIIPEBUPxHullPolygon@2@_NPEAVConvexHullLib@2@@Z 0000000180056800     ConvexHullBuilder.obj
 0002:0000d810       $chain$16$?init@ConvexHullBuilder@physx@@QEAA_NIPEBVPxVec3@2@PEBIIIPEBUPxHullPolygon@2@_NPEAVConvexHullLib@2@@Z 0000000180056810     ConvexHullBuilder.obj
 0002:0000d82c       $chain$17$?init@ConvexHullBuilder@physx@@QEAA_NIPEBVPxVec3@2@PEBIIIPEBUPxHullPolygon@2@_NPEAVConvexHullLib@2@@Z 000000018005682c     ConvexHullBuilder.obj
 0002:0000d840       $unwind$?save@ConvexHullBuilder@physx@@QEBA_NAEAVPxOutputStream@2@_N@Z 0000000180056840     ConvexHullBuilder.obj
 0002:0000d850       $chain$0$?save@ConvexHullBuilder@physx@@QEBA_NAEAVPxOutputStream@2@_N@Z 0000000180056850     ConvexHullBuilder.obj
 0002:0000d864       $chain$3$?save@ConvexHullBuilder@physx@@QEBA_NAEAVPxOutputStream@2@_N@Z 0000000180056864     ConvexHullBuilder.obj
 0002:0000d880       $chain$4$?save@ConvexHullBuilder@physx@@QEBA_NAEAVPxOutputStream@2@_N@Z 0000000180056880     ConvexHullBuilder.obj
 0002:0000d894       $chain$5$?save@ConvexHullBuilder@physx@@QEBA_NAEAVPxOutputStream@2@_N@Z 0000000180056894     ConvexHullBuilder.obj
 0002:0000d8a4       $unwind$?copy@ConvexHullBuilder@physx@@QEAA_NAEAUConvexHullData@Gu@2@AEAI@Z 00000001800568a4     ConvexHullBuilder.obj
 0002:0000d8a4       $unwind$??$parse_integer@KV?$c_string_character_source@D@__crt_strtox@@$00@__crt_strtox@@YAKAEAV__crt_cached_ptd_host@@V?$c_string_character_source@D@0@H_N@Z 00000001800568a4     libucrt:atox.obj
 0002:0000d8a4       $unwind$??$copy_and_add_argument_to_buffer@D@@YAHQEBD0_KAEAV?$argument_list@D@?A0x5f5c8891@@@Z 00000001800568a4     libucrt:argv_wildcards.obj
 0002:0000d8a4       $unwind$??$parse_integer@KV?$c_string_character_source@D@__crt_strtox@@$0A@@__crt_strtox@@YAKAEAV__crt_cached_ptd_host@@V?$c_string_character_source@D@0@H_N@Z 00000001800568a4     libucrt:output.obj
 0002:0000d8c0       $unwind$?createEdgeList@ConvexHullBuilder@physx@@QEAA_N_NI@Z 00000001800568c0     ConvexHullBuilder.obj
 0002:0000d8d0       $chain$4$?createEdgeList@ConvexHullBuilder@physx@@QEAA_N_NI@Z 00000001800568d0     ConvexHullBuilder.obj
 0002:0000d8f4       $chain$6$?createEdgeList@ConvexHullBuilder@physx@@QEAA_N_NI@Z 00000001800568f4     ConvexHullBuilder.obj
 0002:0000d918       $unwind$?checkHullPolygons@ConvexHullBuilder@physx@@QEBA_NXZ 0000000180056918     ConvexHullBuilder.obj
 0002:0000d924       $chain$14$?checkHullPolygons@ConvexHullBuilder@physx@@QEBA_NXZ 0000000180056924     ConvexHullBuilder.obj
 0002:0000d970       $chain$16$?checkHullPolygons@ConvexHullBuilder@physx@@QEBA_NXZ 0000000180056970     ConvexHullBuilder.obj
 0002:0000d9bc       $chain$17$?checkHullPolygons@ConvexHullBuilder@physx@@QEBA_NXZ 00000001800569bc     ConvexHullBuilder.obj
 0002:0000d9cc       $unwind$?calculateVertexMapTable@ConvexHullBuilder@physx@@QEAA_NI_N@Z 00000001800569cc     ConvexHullBuilder.obj
 0002:0000d9e8       $unwind$?computeGeomCenter@ConvexHullBuilder@physx@@IEBA_NAEAVPxVec3@2@IPEAUHullTriangleData@2@@Z 00000001800569e8     ConvexHullBuilder.obj
 0002:0000d9f0       $chain$1$?computeGeomCenter@ConvexHullBuilder@physx@@IEBA_NAEAVPxVec3@2@IPEAUHullTriangleData@2@@Z 00000001800569f0     ConvexHullBuilder.obj
 0002:0000da08       $chain$10$?computeGeomCenter@ConvexHullBuilder@physx@@IEBA_NAEAVPxVec3@2@IPEAUHullTriangleData@2@@Z 0000000180056a08     ConvexHullBuilder.obj
 0002:0000da3c       $chain$11$?computeGeomCenter@ConvexHullBuilder@physx@@IEBA_NAEAVPxVec3@2@IPEAUHullTriangleData@2@@Z 0000000180056a3c     ConvexHullBuilder.obj
 0002:0000da4c       $chain$12$?computeGeomCenter@ConvexHullBuilder@physx@@IEBA_NAEAVPxVec3@2@IPEAUHullTriangleData@2@@Z 0000000180056a4c     ConvexHullBuilder.obj
 0002:0000da5c       $chain$0$??$?_UE@@YAPEAX_KV?$ReflectionAllocator@E@shdfnd@physx@@PEBDH@Z 0000000180056a5c     ConvexHullBuilder.obj
 0002:0000da70       $chain$1$??$?_UE@@YAPEAX_KV?$ReflectionAllocator@E@shdfnd@physx@@PEBDH@Z 0000000180056a70     ConvexHullBuilder.obj
 0002:0000da80       $unwind$?cleanupVertices@ConvexHullLib@physx@@IEAA_NIPEBVPxVec3@2@IAEAIPEAV32@AEAV32@3@Z 0000000180056a80     ConvexHullLib.obj
 0002:0000daa8       $chain$6$?cleanupVertices@ConvexHullLib@physx@@IEAA_NIPEBVPxVec3@2@IAEAIPEAV32@AEAV32@3@Z 0000000180056aa8     ConvexHullLib.obj
 0002:0000dac0       $chain$12$?cleanupVertices@ConvexHullLib@physx@@IEAA_NIPEBVPxVec3@2@IAEAIPEAV32@AEAV32@3@Z 0000000180056ac0     ConvexHullLib.obj
 0002:0000dae8       $chain$13$?cleanupVertices@ConvexHullLib@physx@@IEAA_NIPEBVPxVec3@2@IAEAIPEAV32@AEAV32@3@Z 0000000180056ae8     ConvexHullLib.obj
 0002:0000daf8       $chain$14$?cleanupVertices@ConvexHullLib@physx@@IEAA_NIPEBVPxVec3@2@IAEAIPEAV32@AEAV32@3@Z 0000000180056af8     ConvexHullLib.obj
 0002:0000db08       $unwind$?shiftAndcleanupVertices@ConvexHullLib@physx@@IEAA_NIPEBVPxVec3@2@IAEAIPEAV32@AEAV32@3@Z 0000000180056b08     ConvexHullLib.obj
 0002:0000db18       $chain$6$?shiftAndcleanupVertices@ConvexHullLib@physx@@IEAA_NIPEBVPxVec3@2@IAEAIPEAV32@AEAV32@3@Z 0000000180056b18     ConvexHullLib.obj
 0002:0000db44       $chain$7$?shiftAndcleanupVertices@ConvexHullLib@physx@@IEAA_NIPEBVPxVec3@2@IAEAIPEAV32@AEAV32@3@Z 0000000180056b44     ConvexHullLib.obj
 0002:0000db68       $chain$12$?shiftAndcleanupVertices@ConvexHullLib@physx@@IEAA_NIPEBVPxVec3@2@IAEAIPEAV32@AEAV32@3@Z 0000000180056b68     ConvexHullLib.obj
 0002:0000db8c       $chain$13$?shiftAndcleanupVertices@ConvexHullLib@physx@@IEAA_NIPEBVPxVec3@2@IAEAIPEAV32@AEAV32@3@Z 0000000180056b8c     ConvexHullLib.obj
 0002:0000db9c       $chain$14$?shiftAndcleanupVertices@ConvexHullLib@physx@@IEAA_NIPEBVPxVec3@2@IAEAIPEAV32@AEAV32@3@Z 0000000180056b9c     ConvexHullLib.obj
 0002:0000dbac       $unwind$?swapLargestFace@ConvexHullLib@physx@@IEAAXAEAVPxConvexMeshDesc@2@@Z 0000000180056bac     ConvexHullLib.obj
 0002:0000dbbc       $chain$1$?swapLargestFace@ConvexHullLib@physx@@IEAAXAEAVPxConvexMeshDesc@2@@Z 0000000180056bbc     ConvexHullLib.obj
 0002:0000dbd4       $chain$2$?swapLargestFace@ConvexHullLib@physx@@IEAAXAEAVPxConvexMeshDesc@2@@Z 0000000180056bd4     ConvexHullLib.obj
 0002:0000dbe8       $chain$3$?swapLargestFace@ConvexHullLib@physx@@IEAAXAEAVPxConvexMeshDesc@2@@Z 0000000180056be8     ConvexHullLib.obj
 0002:0000dbf8       $chain$4$?swapLargestFace@ConvexHullLib@physx@@IEAAXAEAVPxConvexMeshDesc@2@@Z 0000000180056bf8     ConvexHullLib.obj
 0002:0000dc08       $unwind$?checkPointsAABBValidity@local@@YA_NIPEBVPxVec3@physx@@IMMAEAV23@1AEAIPEAV23@_N@Z 0000000180056c08     ConvexHullLib.obj
 0002:0000dc24       $chain$5$?checkPointsAABBValidity@local@@YA_NIPEBVPxVec3@physx@@IMMAEAV23@1AEAIPEAV23@_N@Z 0000000180056c24     ConvexHullLib.obj
 0002:0000dc4c       $chain$6$?checkPointsAABBValidity@local@@YA_NIPEBVPxVec3@physx@@IMMAEAV23@1AEAIPEAV23@_N@Z 0000000180056c4c     ConvexHullLib.obj
 0002:0000dc5c       $unwind$??0PxQuat@physx@@QEAA@AEBVPxMat33@1@@Z 0000000180056c5c     ConvexHullUtils.obj
 0002:0000dc5c       $unwind$?UScore@UnDecorator@@SA?AUStringLiteral@@W4Tokens@@@Z 0000000180056c5c     libvcruntime:undname.obj
 0002:0000dc64       $chain$0$??0PxQuat@physx@@QEAA@AEBVPxMat33@1@@Z 0000000180056c64     ConvexHullUtils.obj
 0002:0000dc78       $chain$1$??0PxQuat@physx@@QEAA@AEBVPxMat33@1@@Z 0000000180056c78     ConvexHullUtils.obj
 0002:0000dc88       $unwind$?getInverse@PxMat33@physx@@QEBA?BV12@XZ 0000000180056c88     ConvexHullUtils.obj
 0002:0000dca8       $chain$1$?getInverse@PxMat33@physx@@QEBA?BV12@XZ 0000000180056ca8     ConvexHullUtils.obj
 0002:0000dcc0       $chain$2$?getInverse@PxMat33@physx@@QEBA?BV12@XZ 0000000180056cc0     ConvexHullUtils.obj
 0002:0000dcd0       $unwind$??0ConvexHull@physx@@QEAA@AEBVPxVec3@1@AEBVPxTransform@1@AEBV?$Array@VPxPlane@physx@@V?$ReflectionAllocator@VPxPlane@physx@@@shdfnd@2@@shdfnd@1@@Z 0000000180056cd0     ConvexHullUtils.obj
 0002:0000dd08       $unwind$?findCandidatePlane@ConvexHull@physx@@QEBAHMM@Z 0000000180056d08     ConvexHullUtils.obj
 0002:0000dd20       $chain$11$?findCandidatePlane@ConvexHull@physx@@QEBAHMM@Z 0000000180056d20     ConvexHullUtils.obj
 0002:0000dd60       $chain$12$?findCandidatePlane@ConvexHull@physx@@QEBAHMM@Z 0000000180056d60     ConvexHullUtils.obj
 0002:0000dd70       $chain$13$?findCandidatePlane@ConvexHull@physx@@QEBAHMM@Z 0000000180056d70     ConvexHullUtils.obj
 0002:0000ddb0       $unwind$?assertIntact@ConvexHull@physx@@QEBA_NM@Z 0000000180056db0     ConvexHullUtils.obj
 0002:0000ddf4       $unwind$?maxNumVertsPerFace@ConvexHull@physx@@QEBAIXZ 0000000180056df4     ConvexHullUtils.obj
 0002:0000de00       $chain$0$?maxNumVertsPerFace@ConvexHull@physx@@QEBAIXZ 0000000180056e00     ConvexHullUtils.obj
 0002:0000de14       $chain$1$?maxNumVertsPerFace@ConvexHull@physx@@QEBAIXZ 0000000180056e14     ConvexHullUtils.obj
 0002:0000de24       $chain$1$?allocate@?$Array@VHalfEdge@ConvexHull@physx@@V?$ReflectionAllocator@VHalfEdge@ConvexHull@physx@@@shdfnd@3@@shdfnd@physx@@IEAAPEAVHalfEdge@ConvexHull@3@I@Z 0000000180056e24     ConvexHullUtils.obj
 0002:0000de3c       $chain$3$?allocate@?$Array@VHalfEdge@ConvexHull@physx@@V?$ReflectionAllocator@VHalfEdge@ConvexHull@physx@@@shdfnd@3@@shdfnd@physx@@IEAAPEAVHalfEdge@ConvexHull@3@I@Z 0000000180056e3c     ConvexHullUtils.obj
 0002:0000de50       $chain$4$?allocate@?$Array@VHalfEdge@ConvexHull@physx@@V?$ReflectionAllocator@VHalfEdge@ConvexHull@physx@@@shdfnd@3@@shdfnd@physx@@IEAAPEAVHalfEdge@ConvexHull@3@I@Z 0000000180056e50     ConvexHullUtils.obj
 0002:0000de60       $chain$0$?recreate@?$Array@VHalfEdge@ConvexHull@physx@@V?$ReflectionAllocator@VHalfEdge@ConvexHull@physx@@@shdfnd@3@@shdfnd@physx@@IEAAXI@Z 0000000180056e60     ConvexHullUtils.obj
 0002:0000de74       $chain$1$?recreate@?$Array@VHalfEdge@ConvexHull@physx@@V?$ReflectionAllocator@VHalfEdge@ConvexHull@physx@@@shdfnd@3@@shdfnd@physx@@IEAAXI@Z 0000000180056e74     ConvexHullUtils.obj
 0002:0000de84       $chain$1$?allocate@?$Array@VPxPlane@physx@@V?$ReflectionAllocator@VPxPlane@physx@@@shdfnd@2@@shdfnd@physx@@IEAAPEAVPxPlane@3@I@Z 0000000180056e84     ConvexHullUtils.obj
 0002:0000de9c       $chain$3$?allocate@?$Array@VPxPlane@physx@@V?$ReflectionAllocator@VPxPlane@physx@@@shdfnd@2@@shdfnd@physx@@IEAAPEAVPxPlane@3@I@Z 0000000180056e9c     ConvexHullUtils.obj
 0002:0000deb0       $chain$4$?allocate@?$Array@VPxPlane@physx@@V?$ReflectionAllocator@VPxPlane@physx@@@shdfnd@2@@shdfnd@physx@@IEAAPEAVPxPlane@3@I@Z 0000000180056eb0     ConvexHullUtils.obj
 0002:0000dec0       $chain$0$?recreate@?$Array@VPxPlane@physx@@V?$ReflectionAllocator@VPxPlane@physx@@@shdfnd@2@@shdfnd@physx@@IEAAXI@Z 0000000180056ec0     ConvexHullUtils.obj
 0002:0000ded4       $chain$1$?recreate@?$Array@VPxPlane@physx@@V?$ReflectionAllocator@VPxPlane@physx@@@shdfnd@2@@shdfnd@physx@@IEAAXI@Z 0000000180056ed4     ConvexHullUtils.obj
 0002:0000dee4       $unwind$?convexHullCrop@physx@@YAPEAVConvexHull@1@AEBV21@AEBVPxPlane@1@M@Z 0000000180056ee4     ConvexHullUtils.obj
 0002:0000def4       $chain$5$?convexHullCrop@physx@@YAPEAVConvexHull@1@AEBV21@AEBVPxPlane@1@M@Z 0000000180056ef4     ConvexHullUtils.obj
 0002:0000df1c       $chain$6$?convexHullCrop@physx@@YAPEAVConvexHull@1@AEBV21@AEBVPxPlane@1@M@Z 0000000180056f1c     ConvexHullUtils.obj
 0002:0000df30       $chain$7$?convexHullCrop@physx@@YAPEAVConvexHull@1@AEBV21@AEBVPxPlane@1@M@Z 0000000180056f30     ConvexHullUtils.obj
 0002:0000df30       $chain$9$?convexHullCrop@physx@@YAPEAVConvexHull@1@AEBV21@AEBVPxPlane@1@M@Z 0000000180056f30     ConvexHullUtils.obj
 0002:0000df40       $chain$8$?convexHullCrop@physx@@YAPEAVConvexHull@1@AEBV21@AEBVPxPlane@1@M@Z 0000000180056f40     ConvexHullUtils.obj
 0002:0000df54       $chain$10$?convexHullCrop@physx@@YAPEAVConvexHull@1@AEBV21@AEBVPxPlane@1@M@Z 0000000180056f54     ConvexHullUtils.obj
 0002:0000df64       $unwind$?computeOBBFromConvex@physx@@YA_NAEBVPxConvexMeshDesc@1@AEAVPxVec3@1@AEAVPxTransform@1@@Z 0000000180056f64     ConvexHullUtils.obj
 0002:0000df88       $chain$4$?computeOBBFromConvex@physx@@YA_NAEBVPxConvexMeshDesc@1@AEAVPxVec3@1@AEAVPxTransform@1@@Z 0000000180056f88     ConvexHullUtils.obj
 0002:0000dfac       $chain$5$?computeOBBFromConvex@physx@@YA_NAEBVPxConvexMeshDesc@1@AEAVPxVec3@1@AEAVPxTransform@1@@Z 0000000180056fac     ConvexHullUtils.obj
 0002:0000dfbc       $unwind$?rotate@Box@Gu@physx@@QEBA?AVPxVec3@3@AEBV43@@Z 0000000180056fbc     ConvexHullUtils.obj
 0002:0000dfc8       $unwind$?rotateInv@Box@Gu@physx@@QEBA?AVPxVec3@3@AEBV43@@Z 0000000180056fc8     ConvexHullUtils.obj
 0002:0000dfc8       $unwind$?transform@Box@Gu@physx@@QEBA?AVPxVec3@3@AEBV43@@Z 0000000180056fc8     ConvexHullUtils.obj
 0002:0000dfd4       $unwind$?computeAABBExtent@Box@Gu@physx@@QEBA?AVPxVec3@3@XZ 0000000180056fd4     ConvexHullUtils.obj
 0002:0000dfe0       $unwind$?computeOBBSIMD@local@@YAXIPEBT__m128@@AEAT2@AEBT2@1@Z 0000000180056fe0     ConvexHullUtils.obj
 0002:0000e00c       $chain$1$?computeOBBSIMD@local@@YAXIPEBT__m128@@AEAT2@AEBT2@1@Z 000000018005700c     ConvexHullUtils.obj
 0002:0000e024       $chain$2$?computeOBBSIMD@local@@YAXIPEBT__m128@@AEAT2@AEBT2@1@Z 0000000180057024     ConvexHullUtils.obj
 0002:0000e034       $unwind$?build@ConvexMeshBuilder@physx@@QEAA_NAEBVPxConvexMeshDesc@2@I_NPEAVConvexHullLib@2@@Z 0000000180057034     ConvexMeshBuilder.obj
 0002:0000e044       $chain$0$?build@ConvexMeshBuilder@physx@@QEAA_NAEBVPxConvexMeshDesc@2@I_NPEAVConvexHullLib@2@@Z 0000000180057044     ConvexMeshBuilder.obj
 0002:0000e058       $chain$2$?build@ConvexMeshBuilder@physx@@QEAA_NAEBVPxConvexMeshDesc@2@I_NPEAVConvexHullLib@2@@Z 0000000180057058     ConvexMeshBuilder.obj
 0002:0000e070       $chain$3$?build@ConvexMeshBuilder@physx@@QEAA_NAEBVPxConvexMeshDesc@2@I_NPEAVConvexHullLib@2@@Z 0000000180057070     ConvexMeshBuilder.obj
 0002:0000e080       $chain$4$?build@ConvexMeshBuilder@physx@@QEAA_NAEBVPxConvexMeshDesc@2@I_NPEAVConvexHullLib@2@@Z 0000000180057080     ConvexMeshBuilder.obj
 0002:0000e090       $unwind$?save@ConvexMeshBuilder@physx@@QEBA_NAEAVPxOutputStream@2@_N@Z 0000000180057090     ConvexMeshBuilder.obj
 0002:0000e0a0       $chain$0$?save@ConvexMeshBuilder@physx@@QEBA_NAEAVPxOutputStream@2@_N@Z 00000001800570a0     ConvexMeshBuilder.obj
 0002:0000e0b4       $chain$1$?save@ConvexMeshBuilder@physx@@QEBA_NAEAVPxOutputStream@2@_N@Z 00000001800570b4     ConvexMeshBuilder.obj
 0002:0000e0c4       $unwind$?loadConvexHull@ConvexMeshBuilder@physx@@QEAA_NAEBVPxConvexMeshDesc@2@PEAVConvexHullLib@2@@Z 00000001800570c4     ConvexMeshBuilder.obj
 0002:0000e0e4       $unwind$?computeHullPolygons@ConvexMeshBuilder@physx@@QEAA_NAEBIPEBVPxVec3@2@0PEBIAEAVPxAllocatorCallback@2@AEAIAEAPEAV32@4AEAPEAI4AEAPEAUPxHullPolygon@2@@Z 00000001800570e4     ConvexMeshBuilder.obj
 0002:0000e0f0       $chain$3$?computeHullPolygons@ConvexMeshBuilder@physx@@QEAA_NAEBIPEBVPxVec3@2@0PEBIAEAVPxAllocatorCallback@2@AEAIAEAPEAV32@4AEAPEAI4AEAPEAUPxHullPolygon@2@@Z 00000001800570f0     ConvexMeshBuilder.obj
 0002:0000e10c       $chain$4$?computeHullPolygons@ConvexMeshBuilder@physx@@QEAA_NAEBIPEBVPxVec3@2@0PEBIAEAVPxAllocatorCallback@2@AEAIAEAPEAV32@4AEAPEAI4AEAPEAUPxHullPolygon@2@@Z 000000018005710c     ConvexMeshBuilder.obj
 0002:0000e120       $unwind$?computeMassInfo@ConvexMeshBuilder@physx@@QEAAX_N@Z 0000000180057120     ConvexMeshBuilder.obj
 0002:0000e130       $chain$0$?computeMassInfo@ConvexMeshBuilder@physx@@QEAAX_N@Z 0000000180057130     ConvexMeshBuilder.obj
 0002:0000e144       $chain$1$?computeMassInfo@ConvexMeshBuilder@physx@@QEAAX_N@Z 0000000180057144     ConvexMeshBuilder.obj
 0002:0000e158       $chain$5$?computeMassInfo@ConvexMeshBuilder@physx@@QEAAX_N@Z 0000000180057158     ConvexMeshBuilder.obj
 0002:0000e178       $chain$6$?computeMassInfo@ConvexMeshBuilder@physx@@QEAAX_N@Z 0000000180057178     ConvexMeshBuilder.obj
 0002:0000e188       $chain$7$?computeMassInfo@ConvexMeshBuilder@physx@@QEAAX_N@Z 0000000180057188     ConvexMeshBuilder.obj
 0002:0000e198       $chain$8$?computeMassInfo@ConvexMeshBuilder@physx@@QEAAX_N@Z 0000000180057198     ConvexMeshBuilder.obj
 0002:0000e1a8       $unwind$?ComputeInternalExtent@@YAXAEAUConvexHullData@Gu@physx@@PEBUHullPolygonData@23@@Z 00000001800571a8     ConvexMeshBuilder.obj
 0002:0000e1d4       $chain$0$?ComputeInternalExtent@@YAXAEAUConvexHullData@Gu@physx@@PEBUHullPolygonData@23@@Z 00000001800571d4     ConvexMeshBuilder.obj
 0002:0000e1e8       $chain$1$?ComputeInternalExtent@@YAXAEAUConvexHullData@Gu@physx@@PEBUHullPolygonData@23@@Z 00000001800571e8     ConvexMeshBuilder.obj
 0002:0000e1f8       $unwind$?computeHullPolygons@ConvexPolygonsBuilder@physx@@QEAA_NAEBIPEBVPxVec3@2@0PEBI@Z 00000001800571f8     ConvexPolygonsBuilder.obj
 0002:0000e21c       $chain$0$?computeHullPolygons@ConvexPolygonsBuilder@physx@@QEAA_NAEBIPEBVPxVec3@2@0PEBI@Z 000000018005721c     ConvexPolygonsBuilder.obj
 0002:0000e230       $chain$8$?computeHullPolygons@ConvexPolygonsBuilder@physx@@QEAA_NAEBIPEBVPxVec3@2@0PEBI@Z 0000000180057230     ConvexPolygonsBuilder.obj
 0002:0000e260       $chain$9$?computeHullPolygons@ConvexPolygonsBuilder@physx@@QEAA_NAEBIPEBVPxVec3@2@0PEBI@Z 0000000180057260     ConvexPolygonsBuilder.obj
 0002:0000e290       $unwind$?createPolygonData@ConvexPolygonsBuilder@physx@@AEAA_NXZ 0000000180057290     ConvexPolygonsBuilder.obj
 0002:0000e2a0       $chain$0$?createPolygonData@ConvexPolygonsBuilder@physx@@AEAA_NXZ 00000001800572a0     ConvexPolygonsBuilder.obj
 0002:0000e2b4       $chain$6$?createPolygonData@ConvexPolygonsBuilder@physx@@AEAA_NXZ 00000001800572b4     ConvexPolygonsBuilder.obj
 0002:0000e2dc       $chain$7$?createPolygonData@ConvexPolygonsBuilder@physx@@AEAA_NXZ 00000001800572dc     ConvexPolygonsBuilder.obj
 0002:0000e2ec       $chain$8$?createPolygonData@ConvexPolygonsBuilder@physx@@AEAA_NXZ 00000001800572ec     ConvexPolygonsBuilder.obj
 0002:0000e2fc       $chain$9$?createPolygonData@ConvexPolygonsBuilder@physx@@AEAA_NXZ 00000001800572fc     ConvexPolygonsBuilder.obj
 0002:0000e328       $chain$17$?createPolygonData@ConvexPolygonsBuilder@physx@@AEAA_NXZ 0000000180057328     ConvexPolygonsBuilder.obj
 0002:0000e358       $chain$18$?createPolygonData@ConvexPolygonsBuilder@physx@@AEAA_NXZ 0000000180057358     ConvexPolygonsBuilder.obj
 0002:0000e368       $unwind$?createTrianglesFromPolygons@ConvexPolygonsBuilder@physx@@AEAA_NXZ 0000000180057368     ConvexPolygonsBuilder.obj
 0002:0000e38c       $chain$3$?createTrianglesFromPolygons@ConvexPolygonsBuilder@physx@@AEAA_NXZ 000000018005738c     ConvexPolygonsBuilder.obj
 0002:0000e3ac       $chain$4$?createTrianglesFromPolygons@ConvexPolygonsBuilder@physx@@AEAA_NXZ 00000001800573ac     ConvexPolygonsBuilder.obj
 0002:0000e3bc       $unwind$?findLineStrip@@YA_NAEAV?$Array@IV?$ReflectionAllocator@I@shdfnd@physx@@@shdfnd@physx@@AEBV?$Array@VPair@@V?$ReflectionAllocator@VPair@@@shdfnd@physx@@@23@@Z 00000001800573bc     ConvexPolygonsBuilder.obj
 0002:0000e3c8       $chain$3$?findLineStrip@@YA_NAEAV?$Array@IV?$ReflectionAllocator@I@shdfnd@physx@@@shdfnd@physx@@AEBV?$Array@VPair@@V?$ReflectionAllocator@VPair@@@shdfnd@physx@@@23@@Z 00000001800573c8     ConvexPolygonsBuilder.obj
 0002:0000e3e8       $chain$5$?findLineStrip@@YA_NAEAV?$Array@IV?$ReflectionAllocator@I@shdfnd@physx@@@shdfnd@physx@@AEBV?$Array@VPair@@V?$ReflectionAllocator@VPair@@@shdfnd@physx@@@23@@Z 00000001800573e8     ConvexPolygonsBuilder.obj
 0002:0000e400       $chain$6$?findLineStrip@@YA_NAEAV?$Array@IV?$ReflectionAllocator@I@shdfnd@physx@@@shdfnd@physx@@AEBV?$Array@VPair@@V?$ReflectionAllocator@VPair@@@shdfnd@physx@@@23@@Z 0000000180057400     ConvexPolygonsBuilder.obj
 0002:0000e410       $chain$7$?findLineStrip@@YA_NAEAV?$Array@IV?$ReflectionAllocator@I@shdfnd@physx@@@shdfnd@physx@@AEBV?$Array@VPair@@V?$ReflectionAllocator@VPair@@@shdfnd@physx@@@23@@Z 0000000180057410     ConvexPolygonsBuilder.obj
 0002:0000e438       $chain$1$?allocate@?$Array@VPair@@V?$ReflectionAllocator@VPair@@@shdfnd@physx@@@shdfnd@physx@@IEAAPEAVPair@@I@Z 0000000180057438     ConvexPolygonsBuilder.obj
 0002:0000e450       $chain$3$?allocate@?$Array@VPair@@V?$ReflectionAllocator@VPair@@@shdfnd@physx@@@shdfnd@physx@@IEAAPEAVPair@@I@Z 0000000180057450     ConvexPolygonsBuilder.obj
 0002:0000e464       $chain$4$?allocate@?$Array@VPair@@V?$ReflectionAllocator@VPair@@@shdfnd@physx@@@shdfnd@physx@@IEAAPEAVPair@@I@Z 0000000180057464     ConvexPolygonsBuilder.obj
 0002:0000e474       $unwind$?TestDuplicateTriangles@@YA_NAEAIPEAU?$TriangleT@I@Gu@physx@@_N@Z 0000000180057474     ConvexPolygonsBuilder.obj
 0002:0000e490       $unwind$?checkRedundantVertices@@YAXAEAIAEAV?$Array@IV?$ReflectionAllocator@I@shdfnd@physx@@@shdfnd@physx@@AEBVConvexPolygonsBuilder@3@11@Z 0000000180057490     ConvexPolygonsBuilder.obj
 0002:0000e4ac       $unwind$?extractHullPolygons@@YA_NAEAIAEAV?$Array@IV?$ReflectionAllocator@I@shdfnd@physx@@@shdfnd@physx@@AEBVConvexPolygonsBuilder@3@PEAV123@1@Z 00000001800574ac     ConvexPolygonsBuilder.obj
 0002:0000e4c8       $unwind$?FloodFill@Local@?7??extractHullPolygons@@YA_NAEAIAEAV?$Array@IV?$ReflectionAllocator@I@shdfnd@physx@@@shdfnd@physx@@AEBVConvexPolygonsBuilder@5@PEAV345@1@Z@SAX1PEBVAdjTriangle@5@IPEA_N@Z 00000001800574c8     ConvexPolygonsBuilder.obj
 0002:0000e4d8       $chain$0$?FloodFill@Local@?7??extractHullPolygons@@YA_NAEAIAEAV?$Array@IV?$ReflectionAllocator@I@shdfnd@physx@@@shdfnd@physx@@AEBVConvexPolygonsBuilder@5@PEAV345@1@Z@SAX1PEBVAdjTriangle@5@IPEA_N@Z 00000001800574d8     ConvexPolygonsBuilder.obj
 0002:0000e4ec       $chain$1$?FloodFill@Local@?7??extractHullPolygons@@YA_NAEAIAEAV?$Array@IV?$ReflectionAllocator@I@shdfnd@physx@@@shdfnd@physx@@AEBVConvexPolygonsBuilder@5@PEAV345@1@Z@SAX1PEBVAdjTriangle@5@IPEA_N@Z 00000001800574ec     ConvexPolygonsBuilder.obj
 0002:0000e4fc       $unwind$?CheckFloodFillFace@Local@?7??extractHullPolygons@@YA_NAEAIAEAV?$Array@IV?$ReflectionAllocator@I@shdfnd@physx@@@shdfnd@physx@@AEBVConvexPolygonsBuilder@5@PEAV345@1@Z@SA_NIPEBVAdjTriangle@5@PEBI@Z 00000001800574fc     ConvexPolygonsBuilder.obj
 0002:0000e514       $unwind$?createConvexHull@QuickHullConvexHullLib@physx@@UEAA?AW4Enum@PxConvexMeshCookingResult@2@XZ 0000000180057514     QuickHullConvexHullLib.obj
 0002:0000e52c       $unwind$?createEdgeList@QuickHullConvexHullLib@physx@@UEAA_NIPEBEPEAPEAEPEAPEAG2@Z 000000018005752c     QuickHullConvexHullLib.obj
 0002:0000e54c       $unwind$?expandHullOBB@QuickHullConvexHullLib@physx@@IEAA?AW4Enum@PxConvexMeshCookingResult@2@XZ 000000018005754c     QuickHullConvexHullLib.obj
 0002:0000e558       $chain$4$?expandHullOBB@QuickHullConvexHullLib@physx@@IEAA?AW4Enum@PxConvexMeshCookingResult@2@XZ 0000000180057558     QuickHullConvexHullLib.obj
 0002:0000e57c       $chain$5$?expandHullOBB@QuickHullConvexHullLib@physx@@IEAA?AW4Enum@PxConvexMeshCookingResult@2@XZ 000000018005757c     QuickHullConvexHullLib.obj
 0002:0000e590       $chain$6$?expandHullOBB@QuickHullConvexHullLib@physx@@IEAA?AW4Enum@PxConvexMeshCookingResult@2@XZ 0000000180057590     QuickHullConvexHullLib.obj
 0002:0000e5a0       $chain$7$?expandHullOBB@QuickHullConvexHullLib@physx@@IEAA?AW4Enum@PxConvexMeshCookingResult@2@XZ 00000001800575a0     QuickHullConvexHullLib.obj
 0002:0000e5b0       $unwind$?expandHull@QuickHullConvexHullLib@physx@@IEAA?AW4Enum@PxConvexMeshCookingResult@2@XZ 00000001800575b0     QuickHullConvexHullLib.obj
 0002:0000e5d4       $unwind$?cleanupForSimplex@QuickHullConvexHullLib@physx@@IEAA_NPEAVPxVec3@2@IPEAUQuickHullVertex@local@@1AEAM2@Z 00000001800575d4     QuickHullConvexHullLib.obj
 0002:0000e5f8       $chain$4$?cleanupForSimplex@QuickHullConvexHullLib@physx@@IEAA_NPEAVPxVec3@2@IPEAUQuickHullVertex@local@@1AEAM2@Z 00000001800575f8     QuickHullConvexHullLib.obj
 0002:0000e61c       $chain$6$?cleanupForSimplex@QuickHullConvexHullLib@physx@@IEAA_NPEAVPxVec3@2@IPEAUQuickHullVertex@local@@1AEAM2@Z 000000018005761c     QuickHullConvexHullLib.obj
 0002:0000e634       $chain$7$?cleanupForSimplex@QuickHullConvexHullLib@physx@@IEAA_NPEAVPxVec3@2@IPEAUQuickHullVertex@local@@1AEAM2@Z 0000000180057634     QuickHullConvexHullLib.obj
 0002:0000e648       $chain$8$?cleanupForSimplex@QuickHullConvexHullLib@physx@@IEAA_NPEAVPxVec3@2@IPEAUQuickHullVertex@local@@1AEAM2@Z 0000000180057648     QuickHullConvexHullLib.obj
 0002:0000e65c       $chain$9$?cleanupForSimplex@QuickHullConvexHullLib@physx@@IEAA_NPEAVPxVec3@2@IPEAUQuickHullVertex@local@@1AEAM2@Z 000000018005765c     QuickHullConvexHullLib.obj
 0002:0000e66c       $chain$10$?cleanupForSimplex@QuickHullConvexHullLib@physx@@IEAA_NPEAVPxVec3@2@IPEAUQuickHullVertex@local@@1AEAM2@Z 000000018005766c     QuickHullConvexHullLib.obj
 0002:0000e67c       $chain$11$?cleanupForSimplex@QuickHullConvexHullLib@physx@@IEAA_NPEAVPxVec3@2@IPEAUQuickHullVertex@local@@1AEAM2@Z 000000018005767c     QuickHullConvexHullLib.obj
 0002:0000e68c       $chain$12$?cleanupForSimplex@QuickHullConvexHullLib@physx@@IEAA_NPEAVPxVec3@2@IPEAUQuickHullVertex@local@@1AEAM2@Z 000000018005768c     QuickHullConvexHullLib.obj
 0002:0000e69c       $unwind$?fillConvexMeshDescFromQuickHull@QuickHullConvexHullLib@physx@@IEAAXAEAVPxConvexMeshDesc@2@@Z 000000018005769c     QuickHullConvexHullLib.obj
 0002:0000e6b4       $unwind$?fillConvexMeshDescFromCroppedHull@QuickHullConvexHullLib@physx@@IEAAXAEAVPxConvexMeshDesc@2@@Z 00000001800576b4     QuickHullConvexHullLib.obj
 0002:0000e6cc       $chain$0$??_GConvexHull@physx@@QEAAPEAXI@Z 00000001800576cc     QuickHullConvexHullLib.obj
 0002:0000e6e0       $chain$1$??_GConvexHull@physx@@QEAAPEAXI@Z 00000001800576e0     QuickHullConvexHullLib.obj
 0002:0000e6f0       $unwind$?mergeAdjacentFace@QuickHullFace@local@@QEAA_NPEAUQuickHullHalfEdge@2@AEAV?$Array@PEAUQuickHullFace@local@@V?$ReflectionAllocator@PEAUQuickHullFace@local@@@shdfnd@physx@@@shdfnd@physx@@@Z 00000001800576f0     QuickHullConvexHullLib.obj
 0002:0000e708       $chain$4$?mergeAdjacentFace@QuickHullFace@local@@QEAA_NPEAUQuickHullHalfEdge@2@AEAV?$Array@PEAUQuickHullFace@local@@V?$ReflectionAllocator@PEAUQuickHullFace@local@@@shdfnd@physx@@@shdfnd@physx@@@Z 0000000180057708     QuickHullConvexHullLib.obj
 0002:0000e72c       $chain$5$?mergeAdjacentFace@QuickHullFace@local@@QEAA_NPEAUQuickHullHalfEdge@2@AEAV?$Array@PEAUQuickHullFace@local@@V?$ReflectionAllocator@PEAUQuickHullFace@local@@@shdfnd@physx@@@shdfnd@physx@@@Z 000000018005772c     QuickHullConvexHullLib.obj
 0002:0000e72c       $chain$8$?mergeAdjacentFace@QuickHullFace@local@@QEAA_NPEAUQuickHullHalfEdge@2@AEAV?$Array@PEAUQuickHullFace@local@@V?$ReflectionAllocator@PEAUQuickHullFace@local@@@shdfnd@physx@@@shdfnd@physx@@@Z 000000018005772c     QuickHullConvexHullLib.obj
 0002:0000e73c       $chain$6$?mergeAdjacentFace@QuickHullFace@local@@QEAA_NPEAUQuickHullHalfEdge@2@AEAV?$Array@PEAUQuickHullFace@local@@V?$ReflectionAllocator@PEAUQuickHullFace@local@@@shdfnd@physx@@@shdfnd@physx@@@Z 000000018005773c     QuickHullConvexHullLib.obj
 0002:0000e760       $chain$7$?mergeAdjacentFace@QuickHullFace@local@@QEAA_NPEAUQuickHullHalfEdge@2@AEAV?$Array@PEAUQuickHullFace@local@@V?$ReflectionAllocator@PEAUQuickHullFace@local@@@shdfnd@physx@@@shdfnd@physx@@@Z 0000000180057760     QuickHullConvexHullLib.obj
 0002:0000e774       $unwind$?connectHalfEdges@QuickHullFace@local@@AEAAPEAU12@PEAUQuickHullHalfEdge@2@0@Z 0000000180057774     QuickHullConvexHullLib.obj
 0002:0000e77c       $chain$0$?connectHalfEdges@QuickHullFace@local@@AEAAPEAU12@PEAUQuickHullHalfEdge@2@0@Z 000000018005777c     QuickHullConvexHullLib.obj
 0002:0000e790       $chain$4$?connectHalfEdges@QuickHullFace@local@@AEAAPEAU12@PEAUQuickHullHalfEdge@2@0@Z 0000000180057790     QuickHullConvexHullLib.obj
 0002:0000e7b0       $chain$5$?connectHalfEdges@QuickHullFace@local@@AEAAPEAU12@PEAUQuickHullHalfEdge@2@0@Z 00000001800577b0     QuickHullConvexHullLib.obj
 0002:0000e7c0       $chain$6$?connectHalfEdges@QuickHullFace@local@@AEAAPEAU12@PEAUQuickHullHalfEdge@2@0@Z 00000001800577c0     QuickHullConvexHullLib.obj
 0002:0000e7d0       $unwind$?parseInputVertices@QuickHull@local@@QEAAXPEBVPxVec3@physx@@I@Z 00000001800577d0     QuickHullConvexHullLib.obj
 0002:0000e7e0       $chain$0$?parseInputVertices@QuickHull@local@@QEAAXPEBVPxVec3@physx@@I@Z 00000001800577e0     QuickHullConvexHullLib.obj
 0002:0000e7f4       $chain$1$?parseInputVertices@QuickHull@local@@QEAAXPEBVPxVec3@physx@@I@Z 00000001800577f4     QuickHullConvexHullLib.obj
 0002:0000e804       $unwind$?buildHull@QuickHull@local@@QEAA?AW4Enum@QuickHullResult@2@XZ 0000000180057804     QuickHullConvexHullLib.obj
 0002:0000e818       $unwind$?computeMinMaxVerts@QuickHull@local@@IEAAXXZ 0000000180057818     QuickHullConvexHullLib.obj
 0002:0000e824       $unwind$?findSimplex@QuickHull@local@@IEAA_NXZ 0000000180057824     QuickHullConvexHullLib.obj
 0002:0000e838       $chain$8$?findSimplex@QuickHull@local@@IEAA_NXZ 0000000180057838     QuickHullConvexHullLib.obj
 0002:0000e86c       $chain$12$?findSimplex@QuickHull@local@@IEAA_NXZ 000000018005786c     QuickHullConvexHullLib.obj
 0002:0000e88c       $chain$13$?findSimplex@QuickHull@local@@IEAA_NXZ 000000018005788c     QuickHullConvexHullLib.obj
 0002:0000e88c       $chain$15$?findSimplex@QuickHull@local@@IEAA_NXZ 000000018005788c     QuickHullConvexHullLib.obj
 0002:0000e8c0       $chain$14$?findSimplex@QuickHull@local@@IEAA_NXZ 00000001800578c0     QuickHullConvexHullLib.obj
 0002:0000e904       $chain$16$?findSimplex@QuickHull@local@@IEAA_NXZ 0000000180057904     QuickHullConvexHullLib.obj
 0002:0000e914       $unwind$?addSimplex@QuickHull@local@@IEAAXPEAUQuickHullVertex@2@_N@Z 0000000180057914     QuickHullConvexHullLib.obj
 0002:0000e928       $chain$2$?addSimplex@QuickHull@local@@IEAAXPEAUQuickHullVertex@2@_N@Z 0000000180057928     QuickHullConvexHullLib.obj
 0002:0000e944       $chain$8$?addSimplex@QuickHull@local@@IEAAXPEAUQuickHullVertex@2@_N@Z 0000000180057944     QuickHullConvexHullLib.obj
 0002:0000e968       $chain$3$?addSimplex@QuickHull@local@@IEAAXPEAUQuickHullVertex@2@_N@Z 0000000180057968     QuickHullConvexHullLib.obj
 0002:0000e978       $unwind$?nextPointToAdd@QuickHull@local@@IEAAPEAUQuickHullVertex@2@AEAPEAUQuickHullFace@2@@Z 0000000180057978     QuickHullConvexHullLib.obj
 0002:0000e98c       $unwind$?addPointToHull@QuickHull@local@@IEAA_NPEBUQuickHullVertex@2@AEAUQuickHullFace@2@AEA_N@Z 000000018005798c     QuickHullConvexHullLib.obj
 0002:0000e9a0       $chain$1$?addPointToHull@QuickHull@local@@IEAA_NPEBUQuickHullVertex@2@AEAUQuickHullFace@2@AEA_N@Z 00000001800579a0     QuickHullConvexHullLib.obj
 0002:0000e9b8       $chain$2$?addPointToHull@QuickHull@local@@IEAA_NPEBUQuickHullVertex@2@AEAUQuickHullFace@2@AEA_N@Z 00000001800579b8     QuickHullConvexHullLib.obj
 0002:0000e9cc       $unwind$?createTriangle@QuickHull@local@@IEAAPEAUQuickHullFace@2@AEBUQuickHullVertex@2@00@Z 00000001800579cc     QuickHullConvexHullLib.obj
 0002:0000e9f4       $unwind$?calculateHorizon@QuickHull@local@@IEAAXAEBVPxVec3@physx@@PEAUQuickHullHalfEdge@2@AEAUQuickHullFace@2@AEAV?$Array@PEAUQuickHullHalfEdge@local@@V?$ReflectionAllocator@PEAUQuickHullHalfEdge@local@@@shdfnd@physx@@@shdfnd@4@AEAV?$Array@PEAUQuickHullFace@local@@V?$ReflectionAllocator@PEAUQuickHullFace@local@@@shdfnd@physx@@@84@@Z 00000001800579f4     QuickHullConvexHullLib.obj
 0002:0000ea0c       $unwind$?doAdjacentMerge@QuickHull@local@@IEAA_NAEAUQuickHullFace@2@_NAEA_N@Z 0000000180057a0c     QuickHullConvexHullLib.obj
 0002:0000ea1c       $chain$1$?doAdjacentMerge@QuickHull@local@@IEAA_NAEAUQuickHullFace@2@_NAEA_N@Z 0000000180057a1c     QuickHullConvexHullLib.obj
 0002:0000ea34       $chain$2$?doAdjacentMerge@QuickHull@local@@IEAA_NAEAUQuickHullFace@2@_NAEA_N@Z 0000000180057a34     QuickHullConvexHullLib.obj
 0002:0000ea48       $chain$3$?doAdjacentMerge@QuickHull@local@@IEAA_NAEAUQuickHullFace@2@_NAEA_N@Z 0000000180057a48     QuickHullConvexHullLib.obj
 0002:0000ea58       $unwind$?resolveUnclaimedPoints@QuickHull@local@@IEAAXAEBV?$Array@PEAUQuickHullFace@local@@V?$ReflectionAllocator@PEAUQuickHullFace@local@@@shdfnd@physx@@@shdfnd@physx@@@Z 0000000180057a58     QuickHullConvexHullLib.obj
 0002:0000ea68       $chain$1$?resolveUnclaimedPoints@QuickHull@local@@IEAAXAEBV?$Array@PEAUQuickHullFace@local@@V?$ReflectionAllocator@PEAUQuickHullFace@local@@@shdfnd@physx@@@shdfnd@physx@@@Z 0000000180057a68     QuickHullConvexHullLib.obj
 0002:0000ea80       $chain$2$?resolveUnclaimedPoints@QuickHull@local@@IEAAXAEBV?$Array@PEAUQuickHullFace@local@@V?$ReflectionAllocator@PEAUQuickHullFace@local@@@shdfnd@physx@@@shdfnd@physx@@@Z 0000000180057a80     QuickHullConvexHullLib.obj
 0002:0000ea90       $unwind$?postMergeHull@QuickHull@local@@IEAAXXZ 0000000180057a90     QuickHullConvexHullLib.obj
 0002:0000ea9c       $chain$5$?postMergeHull@QuickHull@local@@IEAAXXZ 0000000180057a9c     QuickHullConvexHullLib.obj
 0002:0000eac4       $chain$6$?postMergeHull@QuickHull@local@@IEAAXXZ 0000000180057ac4     QuickHullConvexHullLib.obj
 0002:0000ead4       $chain$7$?postMergeHull@QuickHull@local@@IEAAXXZ 0000000180057ad4     QuickHullConvexHullLib.obj
 0002:0000eafc       $unwind$?canMergeFaces@QuickHull@local@@IEAA_NAEBUQuickHullHalfEdge@2@@Z 0000000180057afc     QuickHullConvexHullLib.obj
 0002:0000eb40       $unwind$?init@?$MemBlock@UQuickHullHalfEdge@local@@$0A@@local@@QEAAXI@Z 0000000180057b40     QuickHullConvexHullLib.obj
 0002:0000eb4c       $unwind$??1?$MemBlock@UQuickHullFace@local@@$00@local@@QEAA@XZ 0000000180057b4c     QuickHullConvexHullLib.obj
 0002:0000eb4c       $unwind$??1?$MemBlock@UQuickHullHalfEdge@local@@$0A@@local@@QEAA@XZ 0000000180057b4c     QuickHullConvexHullLib.obj
 0002:0000eb4c       $unwind$fesetenv           0000000180057b4c     libucrt:fesetenv.obj
 0002:0000eb58       $chain$0$??1?$MemBlock@UQuickHullFace@local@@$00@local@@QEAA@XZ 0000000180057b58     QuickHullConvexHullLib.obj
 0002:0000eb58       $chain$0$??1?$MemBlock@UQuickHullHalfEdge@local@@$0A@@local@@QEAA@XZ 0000000180057b58     QuickHullConvexHullLib.obj
 0002:0000eb6c       $chain$1$??1?$MemBlock@UQuickHullFace@local@@$00@local@@QEAA@XZ 0000000180057b6c     QuickHullConvexHullLib.obj
 0002:0000eb6c       $chain$1$??1?$MemBlock@UQuickHullHalfEdge@local@@$0A@@local@@QEAA@XZ 0000000180057b6c     QuickHullConvexHullLib.obj
 0002:0000eb7c       $unwind$?getFreeItem@?$MemBlock@UQuickHullHalfEdge@local@@$0A@@local@@QEAAPEAUQuickHullHalfEdge@2@XZ 0000000180057b7c     QuickHullConvexHullLib.obj
 0002:0000eb88       $chain$1$?allocate@?$Array@PEAUQuickHullHalfEdge@local@@V?$ReflectionAllocator@PEAUQuickHullHalfEdge@local@@@shdfnd@physx@@@shdfnd@physx@@IEAAPEAPEAUQuickHullHalfEdge@local@@I@Z 0000000180057b88     QuickHullConvexHullLib.obj
 0002:0000eba0       $chain$3$?allocate@?$Array@PEAUQuickHullHalfEdge@local@@V?$ReflectionAllocator@PEAUQuickHullHalfEdge@local@@@shdfnd@physx@@@shdfnd@physx@@IEAAPEAPEAUQuickHullHalfEdge@local@@I@Z 0000000180057ba0     QuickHullConvexHullLib.obj
 0002:0000ebb4       $chain$4$?allocate@?$Array@PEAUQuickHullHalfEdge@local@@V?$ReflectionAllocator@PEAUQuickHullHalfEdge@local@@@shdfnd@physx@@@shdfnd@physx@@IEAAPEAPEAUQuickHullHalfEdge@local@@I@Z 0000000180057bb4     QuickHullConvexHullLib.obj
 0002:0000ebc4       $chain$0$?recreate@?$Array@PEAUQuickHullHalfEdge@local@@V?$ReflectionAllocator@PEAUQuickHullHalfEdge@local@@@shdfnd@physx@@@shdfnd@physx@@IEAAXI@Z 0000000180057bc4     QuickHullConvexHullLib.obj
 0002:0000ebd8       $chain$1$?recreate@?$Array@PEAUQuickHullHalfEdge@local@@V?$ReflectionAllocator@PEAUQuickHullHalfEdge@local@@@shdfnd@physx@@@shdfnd@physx@@IEAAXI@Z 0000000180057bd8     QuickHullConvexHullLib.obj
 0002:0000ebe8       $unwind$?init@?$MemBlock@UQuickHullFace@local@@$00@local@@QEAAXI@Z 0000000180057be8     QuickHullConvexHullLib.obj
 0002:0000ebf8       $unwind$?getFreeItem@?$MemBlock@UQuickHullFace@local@@$00@local@@QEAAPEAUQuickHullFace@2@XZ 0000000180057bf8     QuickHullConvexHullLib.obj
 0002:0000ec08       $chain$1$?allocate@?$Array@PEAUQuickHullFace@local@@V?$ReflectionAllocator@PEAUQuickHullFace@local@@@shdfnd@physx@@@shdfnd@physx@@IEAAPEAPEAUQuickHullFace@local@@I@Z 0000000180057c08     QuickHullConvexHullLib.obj
 0002:0000ec20       $chain$3$?allocate@?$Array@PEAUQuickHullFace@local@@V?$ReflectionAllocator@PEAUQuickHullFace@local@@@shdfnd@physx@@@shdfnd@physx@@IEAAPEAPEAUQuickHullFace@local@@I@Z 0000000180057c20     QuickHullConvexHullLib.obj
 0002:0000ec34       $chain$4$?allocate@?$Array@PEAUQuickHullFace@local@@V?$ReflectionAllocator@PEAUQuickHullFace@local@@@shdfnd@physx@@@shdfnd@physx@@IEAAPEAPEAUQuickHullFace@local@@I@Z 0000000180057c34     QuickHullConvexHullLib.obj
 0002:0000ec44       $chain$0$?recreate@?$Array@PEAUQuickHullFace@local@@V?$ReflectionAllocator@PEAUQuickHullFace@local@@@shdfnd@physx@@@shdfnd@physx@@IEAAXI@Z 0000000180057c44     QuickHullConvexHullLib.obj
 0002:0000ec58       $chain$1$?recreate@?$Array@PEAUQuickHullFace@local@@V?$ReflectionAllocator@PEAUQuickHullFace@local@@@shdfnd@physx@@@shdfnd@physx@@IEAAXI@Z 0000000180057c58     QuickHullConvexHullLib.obj
 0002:0000ec68       $chain$1$?allocate@?$Array@PEAUQuickHullVertex@local@@V?$ReflectionAllocator@PEAUQuickHullVertex@local@@@shdfnd@physx@@@shdfnd@physx@@IEAAPEAPEAUQuickHullVertex@local@@I@Z 0000000180057c68     QuickHullConvexHullLib.obj
 0002:0000ec80       $chain$3$?allocate@?$Array@PEAUQuickHullVertex@local@@V?$ReflectionAllocator@PEAUQuickHullVertex@local@@@shdfnd@physx@@@shdfnd@physx@@IEAAPEAPEAUQuickHullVertex@local@@I@Z 0000000180057c80     QuickHullConvexHullLib.obj
 0002:0000ec94       $chain$4$?allocate@?$Array@PEAUQuickHullVertex@local@@V?$ReflectionAllocator@PEAUQuickHullVertex@local@@@shdfnd@physx@@@shdfnd@physx@@IEAAPEAPEAUQuickHullVertex@local@@I@Z 0000000180057c94     QuickHullConvexHullLib.obj
 0002:0000eca4       $chain$0$?recreate@?$Array@PEAUQuickHullVertex@local@@V?$ReflectionAllocator@PEAUQuickHullVertex@local@@@shdfnd@physx@@@shdfnd@physx@@IEAAXI@Z 0000000180057ca4     QuickHullConvexHullLib.obj
 0002:0000ecb8       $chain$1$?recreate@?$Array@PEAUQuickHullVertex@local@@V?$ReflectionAllocator@PEAUQuickHullVertex@local@@@shdfnd@physx@@@shdfnd@physx@@IEAAXI@Z 0000000180057cb8     QuickHullConvexHullLib.obj
 0002:0000ecc8       $chain$1$?allocate@?$Array@UExpandPoint@local@@V?$ReflectionAllocator@UExpandPoint@local@@@shdfnd@physx@@@shdfnd@physx@@IEAAPEAUExpandPoint@local@@I@Z 0000000180057cc8     QuickHullConvexHullLib.obj
 0002:0000ece0       $chain$3$?allocate@?$Array@UExpandPoint@local@@V?$ReflectionAllocator@UExpandPoint@local@@@shdfnd@physx@@@shdfnd@physx@@IEAAPEAUExpandPoint@local@@I@Z 0000000180057ce0     QuickHullConvexHullLib.obj
 0002:0000ecf4       $chain$4$?allocate@?$Array@UExpandPoint@local@@V?$ReflectionAllocator@UExpandPoint@local@@@shdfnd@physx@@@shdfnd@physx@@IEAAPEAUExpandPoint@local@@I@Z 0000000180057cf4     QuickHullConvexHullLib.obj
 0002:0000ed04       $chain$0$?recreate@?$Array@UExpandPoint@local@@V?$ReflectionAllocator@UExpandPoint@local@@@shdfnd@physx@@@shdfnd@physx@@IEAAXI@Z 0000000180057d04     QuickHullConvexHullLib.obj
 0002:0000ed18       $chain$1$?recreate@?$Array@UExpandPoint@local@@V?$ReflectionAllocator@UExpandPoint@local@@@shdfnd@physx@@@shdfnd@physx@@IEAAXI@Z 0000000180057d18     QuickHullConvexHullLib.obj
 0002:0000ed28       $unwind$?computeVolumeIntegralsEberly@physx@@YA_NAEBVPxConvexMeshDesc@1@MAEAUPxIntegrals@1@AEBVPxVec3@1@@Z 0000000180057d28     VolumeIntegration.obj
 0002:0000ed28       $unwind$?computeVolumeIntegralsEberlySIMD@physx@@YA_NAEBVPxConvexMeshDesc@1@MAEAUPxIntegrals@1@AEBVPxVec3@1@@Z 0000000180057d28     VolumeIntegration.obj
 0002:0000ed28       $unwind$_raise_exc         0000000180057d28     libucrt:fpexcept.obj
 0002:0000ed28       $unwind$_raise_excf        0000000180057d28     libucrt:fpexcept.obj
 0002:0000ed28       $unwind$__unDName          0000000180057d28     libvcruntime:undname.obj
 0002:0000ed30       $unwind$?computeVolumeIntegralsSIMD@VolumeIntegratorEberly@?A0xe4073fc3@physx@@QEAA_NAEAUPxIntegrals@3@AEBVPxVec3@3@@Z 0000000180057d30     VolumeIntegration.obj
 0002:0000ed68       $chain$1$?computeVolumeIntegralsSIMD@VolumeIntegratorEberly@?A0xe4073fc3@physx@@QEAA_NAEAUPxIntegrals@3@AEBVPxVec3@3@@Z 0000000180057d68     VolumeIntegration.obj
 0002:0000ed80       $chain$2$?computeVolumeIntegralsSIMD@VolumeIntegratorEberly@?A0xe4073fc3@physx@@QEAA_NAEAUPxIntegrals@3@AEBVPxVec3@3@@Z 0000000180057d80     VolumeIntegration.obj
 0002:0000ed90       $unwind$?computeVolumeIntegrals@VolumeIntegratorEberly@?A0xe4073fc3@physx@@QEAA_NAEAUPxIntegrals@3@AEBVPxVec3@3@@Z 0000000180057d90     VolumeIntegration.obj
 0002:0000edc8       $chain$0$?computeVolumeIntegrals@VolumeIntegratorEberly@?A0xe4073fc3@physx@@QEAA_NAEAUPxIntegrals@3@AEBVPxVec3@3@@Z 0000000180057dc8     VolumeIntegration.obj
 0002:0000eddc       $chain$3$?computeVolumeIntegrals@VolumeIntegratorEberly@?A0xe4073fc3@physx@@QEAA_NAEAUPxIntegrals@3@AEBVPxVec3@3@@Z 0000000180057ddc     VolumeIntegration.obj
 0002:0000edf8       $chain$4$?computeVolumeIntegrals@VolumeIntegratorEberly@?A0xe4073fc3@physx@@QEAA_NAEAUPxIntegrals@3@AEBVPxVec3@3@@Z 0000000180057df8     VolumeIntegration.obj
 0002:0000ee08       $chain$5$?computeVolumeIntegrals@VolumeIntegratorEberly@?A0xe4073fc3@physx@@QEAA_NAEAUPxIntegrals@3@AEBVPxVec3@3@@Z 0000000180057e08     VolumeIntegration.obj
 0002:0000ee18       $chain$1$?cookingDelayHook@@YAP6A_JXZIPEAUDelayLoadInfo@@@Z 0000000180057e18     WindowsCookingDelayLoadHook.obj
 0002:0000ee30       $chain$3$?cookingDelayHook@@YAP6A_JXZIPEAUDelayLoadInfo@@@Z 0000000180057e30     WindowsCookingDelayLoadHook.obj
 0002:0000ee30       $chain$5$?cookingDelayHook@@YAP6A_JXZIPEAUDelayLoadInfo@@@Z 0000000180057e30     WindowsCookingDelayLoadHook.obj
 0002:0000ee48       $chain$6$?cookingDelayHook@@YAP6A_JXZIPEAUDelayLoadInfo@@@Z 0000000180057e48     WindowsCookingDelayLoadHook.obj
 0002:0000ee58       xdata                      0000000180057e58     PhysXCommon_64:PhysXCommon_64.dll
 0002:0000ee60       xdata                      0000000180057e60     PhysXFoundation_64:PhysXFoundation_64.dll
 0002:0000ee68       $unwind$?DloadObtainSection@@YAPEAXPEAK0@Z 0000000180057e68     Delayimp:delayhlp.obj
 0002:0000ee68       $unwind$strstr             0000000180057e68     libvcruntime:strstr.obj
 0002:0000ee78       $unwind$?DloadProtectSection@@YAXKPEAK@Z 0000000180057e78     Delayimp:delayhlp.obj
 0002:0000ee88       $unwind$__delayLoadHelper2 0000000180057e88     Delayimp:delayhlp.obj
 0002:0000eea8       $xdatasym                  0000000180057ea8     LIBCMT:chkstk.obj
 0002:0000eeb0       $unwind$?dllmain_crt_process_attach@@YAHQEAUHINSTANCE__@@QEAX@Z 0000000180057eb0     LIBCMT:dll_dllmain.obj
 0002:0000eeec       $unwind$_query_new_handler$fin$0 0000000180057eec     libucrt:new_handler.obj
 0002:0000eeec       $unwind$?fin$0@?0???$?RV<lambda_0ae27a3a962d80f24befdcbee591983d>@@AEAV<lambda_8d0ee55de4b1038c4002e0adecdf1839>@@V<lambda_dc504788e8f1664fe9b84e20bfb512f2>@@@?$__crt_seh_guarded_call@X@@QEAAX$$QEAV<lambda_0ae27a3a962d80f24befdcbee591983d>@@AEAV<lambda_8d0ee55de4b1038c4002e0adecdf1839>@@$$QEAV<lambda_dc504788e8f1664fe9b84e20bfb512f2>@@@Z@4HA 0000000180057eec     libucrt:per_thread_data.obj
 0002:0000eeec       $unwind$?fin$0@?0???$?RV<lambda_2d41944a1d46af3157314b8a01080d33>@@AEAV<lambda_8f455de75cd7d7f24b4096f044d8b9e6>@@V<lambda_aa500f224e6afead328df44964fe2772>@@@?$__crt_seh_guarded_call@X@@QEAAX$$QEAV<lambda_2d41944a1d46af3157314b8a01080d33>@@AEAV<lambda_8f455de75cd7d7f24b4096f044d8b9e6>@@$$QEAV<lambda_aa500f224e6afead328df44964fe2772>@@@Z@4HA 0000000180057eec     libucrt:per_thread_data.obj
 0002:0000eeec       $unwind$?fin$0@?0???$?RV<lambda_aa87e3671a710a21b5dc78c0bdf72e11>@@AEAV<lambda_92619d2358a28f41a33ba319515a20b9>@@V<lambda_6992ecaafeb10aed2b74cb1fae11a551>@@@?$__crt_seh_guarded_call@X@@QEAAX$$QEAV<lambda_aa87e3671a710a21b5dc78c0bdf72e11>@@AEAV<lambda_92619d2358a28f41a33ba319515a20b9>@@$$QEAV<lambda_6992ecaafeb10aed2b74cb1fae11a551>@@@Z@4HA 0000000180057eec     libucrt:per_thread_data.obj
 0002:0000eeec       $unwind$?fin$0@?0???$?RV<lambda_f2e299630e499de9f9a165e60fcd3db5>@@AEAV<lambda_2ae9d31cdba2644fcbeaf08da7c24588>@@V<lambda_40d01ff24d0e7b3814fdbdcee8eab3c7>@@@?$__crt_seh_guarded_call@X@@QEAAX$$QEAV<lambda_f2e299630e499de9f9a165e60fcd3db5>@@AEAV<lambda_2ae9d31cdba2644fcbeaf08da7c24588>@@$$QEAV<lambda_40d01ff24d0e7b3814fdbdcee8eab3c7>@@@Z@4HA 0000000180057eec     libucrt:per_thread_data.obj
 0002:0000eeec       $unwind$__acrt_update_thread_locale_data$fin$0 0000000180057eec     libucrt:locale_refcounting.obj
 0002:0000eeec       $unwind$?fin$0@?0???$?RV<lambda_410d79af7f07d98d83a3f525b3859a53>@@AEAV<lambda_3e16ef9562a7dcce91392c22ab16ea36>@@V<lambda_38119f0e861e05405d8a144b9b982f0a>@@@?$__crt_seh_guarded_call@X@@QEAAX$$QEAV<lambda_410d79af7f07d98d83a3f525b3859a53>@@AEAV<lambda_3e16ef9562a7dcce91392c22ab16ea36>@@$$QEAV<lambda_38119f0e861e05405d8a144b9b982f0a>@@@Z@4HA 0000000180057eec     libucrt:wsetlocale.obj
 0002:0000eeec       $unwind$?fin$0@?0???$?RV<lambda_ad8af0d99a0adf03d037d7dffe354bb5>@@AEAV<lambda_c9ba49e555ba839a7b07aa3fbecb7617>@@V<lambda_2f1ebd5d68526518146ae959c9e734c8>@@@?$__crt_seh_guarded_call@H@@QEAAH$$QEAV<lambda_ad8af0d99a0adf03d037d7dffe354bb5>@@AEAV<lambda_c9ba49e555ba839a7b07aa3fbecb7617>@@$$QEAV<lambda_2f1ebd5d68526518146ae959c9e734c8>@@@Z@4HA 0000000180057eec     libucrt:close.obj
 0002:0000eeec       $unwind$?fin$0@?0???$?RV<lambda_a37b2b86f63e897a80ea819b0eb08c01>@@AEAV<lambda_38ce7e780aa69e748d6df282ebc68efe>@@V<lambda_99fb1378e971ab6e7edea83e3a7a83a2>@@@?$__crt_seh_guarded_call@H@@QEAAH$$QEAV<lambda_a37b2b86f63e897a80ea819b0eb08c01>@@AEAV<lambda_38ce7e780aa69e748d6df282ebc68efe>@@$$QEAV<lambda_99fb1378e971ab6e7edea83e3a7a83a2>@@@Z@4HA 0000000180057eec     libucrt:commit.obj
 0002:0000eeec       $unwind$__acrt_initialize_lowio$fin$0 0000000180057eec     libucrt:ioinit.obj
 0002:0000eeec       $unwind$__acrt_lowio_ensure_fh_exists$fin$0 0000000180057eec     libucrt:osfinfo.obj
 0002:0000eeec       $unwind$?fin$0@?0???$?RV<lambda_efdfa57d1f175319df784efa44bb7b81>@@AEAV<lambda_5f0a4c1567f8adc6734073e5d1e1b35c>@@V<lambda_2e8a7d3640ea6ccb4c2413664c2db6fd>@@@?$__crt_seh_guarded_call@X@@QEAAX$$QEAV<lambda_efdfa57d1f175319df784efa44bb7b81>@@AEAV<lambda_5f0a4c1567f8adc6734073e5d1e1b35c>@@$$QEAV<lambda_2e8a7d3640ea6ccb4c2413664c2db6fd>@@@Z@4HA 0000000180057eec     libucrt:mbctype.obj
 0002:0000eeec       $unwind$?fin$0@?0??update_thread_multibyte_data_internal@@YAPEAU__crt_multibyte_data@@QEAU__acrt_ptd@@QEAPEAU1@@Z@4HA 0000000180057eec     libucrt:mbctype.obj
 0002:0000eeec       $unwind$?fin$0@?0???$?RV<lambda_450d765d439847d4c735a33c368b5fc0>@@AEAV<lambda_44731a7d0e6d81c3e6aa82d741081786>@@V<lambda_601a2a7da3b7a96e9554ac7215c4b07c>@@@?$__crt_seh_guarded_call@P6AXH@Z@@QEAAP6AXH@Z$$QEAV<lambda_450d765d439847d4c735a33c368b5fc0>@@AEAV<lambda_44731a7d0e6d81c3e6aa82d741081786>@@$$QEAV<lambda_601a2a7da3b7a96e9554ac7215c4b07c>@@@Z@4HA 0000000180057eec     libucrt:signal.obj
 0002:0000eeec       $unwind$raise$fin$0        0000000180057eec     libucrt:signal.obj
 0002:0000eeec       $unwind$?filt$0@?0???R<lambda_6e4b09c48022b2350581041d5f6b0c4c>@@QEBA@XZ@4HA 0000000180057eec     libucrt:exit.obj
 0002:0000eeec       $unwind$?fin$0@?0???$?RV<lambda_d80eeec6fff315bfe5c115232f3240e3>@@AEAV<lambda_6e4b09c48022b2350581041d5f6b0c4c>@@V<lambda_2358e3775559c9db80273638284d5e45>@@@?$__crt_seh_guarded_call@X@@QEAAX$$QEAV<lambda_d80eeec6fff315bfe5c115232f3240e3>@@AEAV<lambda_6e4b09c48022b2350581041d5f6b0c4c>@@$$QEAV<lambda_2358e3775559c9db80273638284d5e45>@@@Z@4HA 0000000180057eec     libucrt:exit.obj
 0002:0000eeec       $unwind$?fin$0@?0???$?RV<lambda_7777bce6b2f8c936911f934f8298dc43>@@AEAV<lambda_f03950bc5685219e0bcd2087efbe011e>@@V<lambda_3883c3dff614d5e0c5f61bb1ac94921c>@@@?$__crt_seh_guarded_call@H@@QEAAH$$QEAV<lambda_7777bce6b2f8c936911f934f8298dc43>@@AEAV<lambda_f03950bc5685219e0bcd2087efbe011e>@@$$QEAV<lambda_3883c3dff614d5e0c5f61bb1ac94921c>@@@Z@4HA 0000000180057eec     libucrt:onexit.obj
 0002:0000eeec       $unwind$_fcloseall$fin$0   0000000180057eec     libucrt:closeall.obj
 0002:0000eeec       $unwind$?fin$0@?0???$?RV<lambda_842d9ff0dc9ef11c61343bbaebe7f885>@@AEAV<lambda_c5860995281e5c4ce005b3de8f5874ee>@@V<lambda_d90129c13df834fdcbf8d2b88dafcf2d>@@@?$__crt_seh_guarded_call@X@@QEAAX$$QEAV<lambda_842d9ff0dc9ef11c61343bbaebe7f885>@@AEAV<lambda_c5860995281e5c4ce005b3de8f5874ee>@@$$QEAV<lambda_d90129c13df834fdcbf8d2b88dafcf2d>@@@Z@4HA 0000000180057eec     libucrt:fflush.obj
 0002:0000eeec       $unwind$?fin$0@?0???$?RV<lambda_886d6c58226a84441f68b9f2b8217b83>@@AEAV<lambda_ab61a845afdef5b7c387490eaf3616ee>@@V<lambda_f7f22ab5edc0698d5f6905b0d3f44752>@@@?$__crt_seh_guarded_call@X@@QEAAX$$QEAV<lambda_886d6c58226a84441f68b9f2b8217b83>@@AEAV<lambda_ab61a845afdef5b7c387490eaf3616ee>@@$$QEAV<lambda_f7f22ab5edc0698d5f6905b0d3f44752>@@@Z@4HA 0000000180057eec     libucrt:fflush.obj
 0002:0000eeec       $unwind$_ctrlfp$filt$0     0000000180057eec     libucrt:fpctrl.obj
 0002:0000eeec       $unwind$common_control87$filt$0 0000000180057eec     libucrt:ieee.obj
 0002:0000eeec       $unwind$?fin$0@?0??dllmain_crt_process_attach@@YAHQEAUHINSTANCE__@@QEAX@Z@4HA 0000000180057eec     LIBCMT:dll_dllmain.obj
 0002:0000eeec       $unwind$?fin$0@?0??dllmain_crt_process_detach@@YAH_N@Z@4HA 0000000180057eec     LIBCMT:dll_dllmain.obj
 0002:0000eeec       $unwind$?fin$1@?0??dllmain_crt_process_detach@@YAH_N@Z@4HA 0000000180057eec     LIBCMT:dll_dllmain.obj
 0002:0000eeec       $unwind$_IsNonwritableInCurrentImage$filt$0 0000000180057eec     LIBCMT:pesect.obj
 0002:0000eeec       $unwind$?filt$0@?0??CxxCallCatchBlock@__FrameHandler3@@SAPEAXPEAU_EXCEPTION_RECORD@@@Z@4HA 0000000180057eec     libvcruntime:frame.obj
 0002:0000eeec       $unwind$?filt$0@?0??CxxCallCatchBlock@__FrameHandler4@@SAPEAXPEAU_EXCEPTION_RECORD@@@Z@4HA 0000000180057eec     libvcruntime:frame.obj
 0002:0000eeec       $unwind$?filt$0@?0??FrameUnwindToState@__FrameHandler3@@SAXPEA_KPEAU_xDISPATCHER_CONTEXT@@PEBU_s_FuncInfo@@H@Z@4HA 0000000180057eec     libvcruntime:frame.obj
 0002:0000eeec       $unwind$?fin$1@?0??FrameUnwindToState@__FrameHandler3@@SAXPEA_KPEAU_xDISPATCHER_CONTEXT@@PEBU_s_FuncInfo@@H@Z@4HA 0000000180057eec     libvcruntime:frame.obj
 0002:0000eeec       $unwind$__unDNameEx$fin$0  0000000180057eec     libvcruntime:undname.obj
 0002:0000eef4       $unwind$?dllmain_crt_process_detach@@YAH_N@Z 0000000180057ef4     LIBCMT:dll_dllmain.obj
 0002:0000ef48       $unwind$?dllmain_dispatch@@YAHQEAUHINSTANCE__@@KQEAX@Z 0000000180057f48     LIBCMT:dll_dllmain.obj
 0002:0000ef70       $unwind$_write_internal$fin$0 0000000180057f70     libucrt:write.obj
 0002:0000ef70       $unwind$?fin$0@?0??_fclose_internal@@YAHQEAU_iobuf@@AEAV__crt_cached_ptd_host@@@Z@4HA 0000000180057f70     libucrt:fclose.obj
 0002:0000ef70       $unwind$?filt$0@?0??dllmain_dispatch@@YAHQEAUHINSTANCE__@@KQEAX@Z@4HA 0000000180057f70     LIBCMT:dll_dllmain.obj
 0002:0000ef70       $unwind$?filt$0@?0??FrameUnwindToState@__FrameHandler4@@SAXPEA_KPEAU_xDISPATCHER_CONTEXT@@PEAUFuncInfo4@FH4@@H@Z@4HA 0000000180057f70     libvcruntime:frame.obj
 0002:0000ef70       $unwind$?fin$1@?0??FrameUnwindToState@__FrameHandler4@@SAXPEA_KPEAU_xDISPATCHER_CONTEXT@@PEAUFuncInfo4@FH4@@H@Z@4HA 0000000180057f70     libvcruntime:frame.obj
 0002:0000ef78       $unwind$__isa_available_init 0000000180057f78     LIBCMT:cpu_disp.obj
 0002:0000ef88       $xdatasym                  0000000180057f88     LIBCMT:svml_ssinf4_sse2.obj
 0002:0000efc0       $xdatasym                  0000000180057fc0     LIBCMT:svml_ssinf4_sse4.obj
 0002:0000eff4       $unwind$__security_init_cookie 0000000180057ff4     LIBCMT:gs_support.obj
 0002:0000f000       $unwind$__scrt_is_nonwritable_in_current_image 0000000180058000     LIBCMT:utility.obj
 0002:0000f020       $unwind$__scrt_is_nonwritable_in_current_image$filt$0 0000000180058020     LIBCMT:utility.obj
 0002:0000f028       $unwind$__scrt_fastfail    0000000180058028     LIBCMT:utility_desktop.obj
 0002:0000f038       $xdatasym                  0000000180058038     LIBCMT:guard_dispatch.obj
 0002:0000f040       $xdatasym                  0000000180058040     LIBCMT:guard_xfg_dispatch.obj
 0002:0000f048       $xdatasym                  0000000180058048     LIBCMT:svml_s_sin_cout.obj
 0002:0000f050       $unwind$__C_specific_handler 0000000180058050     libvcruntime:riscchandler.obj
 0002:0000f050       $unwind$?GetRangeOfTrysToCheck@__FrameHandler3@@SA?AU?$pair@Viterator@TryBlockMap@__FrameHandler3@@V123@@std@@AEAVTryBlockMap@1@HPEAU_xDISPATCHER_CONTEXT@@PEBU_s_FuncInfo@@H@Z 0000000180058050     libvcruntime:risctrnsctrl.obj
 0002:0000f050       $unwind$__std_type_info_name 0000000180058050     libvcruntime:std_type_info.obj
 0002:0000f070       $xdatasym                  0000000180058070     libvcruntime:memset.obj
 0002:0000f080       $xdatasym                  0000000180058080     libvcruntime:memcpy.obj
 0002:0000f090       $unwind$__DestructExceptionObject 0000000180058090     libvcruntime:ehhelpers.obj
 0002:0000f0b0       $unwind$__DestructExceptionObject$filt$0 00000001800580b0     libvcruntime:ehhelpers.obj
 0002:0000f0b0       $unwind$?fin$1@?0??CxxCallCatchBlock@__FrameHandler3@@SAPEAXPEAU_EXCEPTION_RECORD@@@Z@4HA 00000001800580b0     libvcruntime:frame.obj
 0002:0000f0b0       $unwind$?fin$1@?0??CxxCallCatchBlock@__FrameHandler4@@SAPEAXPEAU_EXCEPTION_RECORD@@@Z@4HA 00000001800580b0     libvcruntime:frame.obj
 0002:0000f0bc       $unwind$__unDNameEx        00000001800580bc     libvcruntime:undname.obj
 0002:0000f0ec       $unwind$sprintf_s          00000001800580ec     libvcruntime:undname.obj
 0002:0000f0fc       $unwind$??0DName@@QEAA@_J@Z 00000001800580fc     libvcruntime:undname.obj
 0002:0000f0fc       $unwind$??0DName@@QEAA@_K@Z 00000001800580fc     libvcruntime:undname.obj
 0002:0000f10c       $unwind$?doPchar@DName@@AEAAXD@Z 000000018005810c     libvcruntime:undname.obj
 0002:0000f118       $unwind$?getDecoratedName@UnDecorator@@CA?AVDName@@XZ 0000000180058118     libvcruntime:undname.obj
 0002:0000f138       $cppxdata$?getDecoratedName@UnDecorator@@CA?AVDName@@XZ 0000000180058138     libvcruntime:undname.obj
 0002:0000f141       $stateUnwindMap$?getDecoratedName@UnDecorator@@CA?AVDName@@XZ 0000000180058141     libvcruntime:undname.obj
 0002:0000f148       $ip2state$?getDecoratedName@UnDecorator@@CA?AVDName@@XZ 0000000180058148     libvcruntime:undname.obj
 0002:0000f150       $unwind$?getZName@UnDecorator@@CA?AVDName@@_N0@Z 0000000180058150     libvcruntime:undname.obj
 0002:0000f174       $unwind$?getOperatorName@UnDecorator@@CA?AVDName@@_NPEA_N@Z 0000000180058174     libvcruntime:undname.obj
 0002:0000f190       $unwind$?getScope@UnDecorator@@CA?AVDName@@XZ 0000000180058190     libvcruntime:undname.obj
 0002:0000f1ac       $unwind$?getScopedName@UnDecorator@@CA?AVDName@@XZ 00000001800581ac     libvcruntime:undname.obj
 0002:0000f1bc       $unwind$_mbsdec_l          00000001800581bc     libucrt:mbsdec.obj
 0002:0000f1bc       $unwind$?getSignedDimension@UnDecorator@@CA?AVDName@@XZ 00000001800581bc     libvcruntime:undname.obj
 0002:0000f1c8       $unwind$?getDimension@UnDecorator@@CA?AVDName@@_N@Z 00000001800581c8     libvcruntime:undname.obj
 0002:0000f1e0       $unwind$?getFloatingPoint@UnDecorator@@CA?AVDName@@H@Z 00000001800581e0     libvcruntime:undname.obj
 0002:0000f1fc       $unwind$?getValueObject@UnDecorator@@CA?AVDName@@XZ 00000001800581fc     libvcruntime:undname.obj
 0002:0000f208       $unwind$?getArgumentTypes@UnDecorator@@CA?AVDName@@XZ 0000000180058208     libvcruntime:undname.obj
 0002:0000f208       $unwind$?getPointerToMember@UnDecorator@@CA?AVDName@@XZ 0000000180058208     libvcruntime:undname.obj
 0002:0000f214       $unwind$?getTemplateName@UnDecorator@@CA?AVDName@@_N@Z 0000000180058214     libvcruntime:undname.obj
 0002:0000f230       $unwind$?getTemplateArgumentList@UnDecorator@@CA?AVDName@@XZ 0000000180058230     libvcruntime:undname.obj
 0002:0000f250       $unwind$?getTemplateNonTypeArgument@UnDecorator@@CA?AVDName@@XZ 0000000180058250     libvcruntime:undname.obj
 0002:0000f270       $unwind$?getTemplateTypeArgument@UnDecorator@@CA?AVDName@@XZ 0000000180058270     libvcruntime:undname.obj
 0002:0000f288       $unwind$?composeDeclaration@UnDecorator@@CA?AVDName@@AEBV2@@Z 0000000180058288     libvcruntime:undname.obj
 0002:0000f2a4       $unwind$?getBasedType@UnDecorator@@CA?AVDName@@XZ 00000001800582a4     libvcruntime:undname.obj
 0002:0000f2a4       $unwind$?getEnumType@UnDecorator@@CA?AVDName@@XZ 00000001800582a4     libvcruntime:undname.obj
 0002:0000f2b0       $unwind$?getCallingConvention@UnDecorator@@CA?AVDName@@XZ 00000001800582b0     libvcruntime:undname.obj
 0002:0000f2c0       $unwind$?getDataType@UnDecorator@@CA?AVDName@@PEAV2@@Z 00000001800582c0     libvcruntime:undname.obj
 0002:0000f2cc       $unwind$?getExtendedDataIndirectType@UnDecorator@@CA?AVDName@@AEAW4IndirectionKind@@AEA_NH@Z 00000001800582cc     libvcruntime:undname.obj
 0002:0000f2cc       $unwind$?getPrimaryDataType@UnDecorator@@CA?AVDName@@AEBV2@@Z 00000001800582cc     libvcruntime:undname.obj
 0002:0000f2cc       $unwind$?getPtrRefDataType@UnDecorator@@CA?AVDName@@AEBV2@H@Z 00000001800582cc     libvcruntime:undname.obj
 0002:0000f2dc       $unwind$?getDataIndirectType@UnDecorator@@CA?AVDName@@AEBV2@W4IndirectionKind@@0H@Z 00000001800582dc     libvcruntime:undname.obj
 0002:0000f2fc       $unwind$?getBasicDataType@UnDecorator@@CA?AVDName@@AEBV2@@Z 00000001800582fc     libvcruntime:undname.obj
 0002:0000f314       $unwind$?getECSUDataType@UnDecorator@@CA?AVDName@@XZ 0000000180058314     libvcruntime:undname.obj
 0002:0000f324       $unwind$?getPtrRefType@UnDecorator@@CA?AVDName@@AEBV2@0W4IndirectionKind@@@Z 0000000180058324     libvcruntime:undname.obj
 0002:0000f33c       $unwind$?getArrayType@UnDecorator@@CA?AVDName@@AEBV2@@Z 000000018005833c     libvcruntime:undname.obj
 0002:0000f354       $unwind$?getFunctionIndirectType@UnDecorator@@CA?AVDName@@AEBV2@@Z 0000000180058354     libvcruntime:undname.obj
 0002:0000f374       $unwind$?fp_format_f@@YAHQEBNQEAD_K12HW4__acrt_rounding_mode@@AEAV__crt_cached_ptd_host@@@Z 0000000180058374     libucrt:cvt.obj
 0002:0000f374       $unwind$__acrt_LCMapStringEx 0000000180058374     libucrt:winapi_thunks.obj
 0002:0000f374       $unwind$?getArgumentList@UnDecorator@@CA?AVDName@@XZ 0000000180058374     libvcruntime:undname.obj
 0002:0000f388       $unwind$__stdio_common_vsprintf_s 0000000180058388     libucrt:output.obj
 0002:0000f388       $unwind$?getRestrictionSpec@UnDecorator@@CA?AVDName@@XZ 0000000180058388     libvcruntime:undname.obj
 0002:0000f39c       $unwind$?getLexicalFrame@UnDecorator@@CA?AVDName@@XZ 000000018005839c     libvcruntime:undname.obj
 0002:0000f39c       $unwind$?parseDecoratedName@UnDecorator@@CA?AVDName@@XZ 000000018005839c     libvcruntime:undname.obj
 0002:0000f3a8       $unwind$?getExternalDataType@UnDecorator@@CA?AVDName@@AEBV2@@Z 00000001800583a8     libvcruntime:undname.obj
 0002:0000f3b8       $unwind$?getVfTableType@UnDecorator@@CA?AVDName@@AEBV2@@Z 00000001800583b8     libvcruntime:undname.obj
 0002:0000f3d0       $xdatasym                  00000001800583d0     libvcruntime:notify.obj
 0002:0000f3dc       $unwind$?DecompFuncInfo@FH4@@YA_JPEAEAEAUFuncInfo4@1@_KH_N@Z 00000001800583dc     libvcruntime:risctrnsctrl.obj
 0002:0000f3f4       $unwind$?GetEstablisherFrame@__FrameHandler3@@SAPEA_KPEA_KPEAU_xDISPATCHER_CONTEXT@@PEBU_s_FuncInfo@@0@Z 00000001800583f4     libvcruntime:risctrnsctrl.obj
 0002:0000f40c       $unwind$?UnwindNestedFrames@__FrameHandler3@@SAXPEA_KPEAUEHExceptionRecord@@PEAU_CONTEXT@@0PEAXPEBU_s_FuncInfo@@HHPEBU_s_HandlerType@@PEAU_xDISPATCHER_CONTEXT@@E@Z 000000018005840c     libvcruntime:risctrnsctrl.obj
 0002:0000f40c       $unwind$?UnwindNestedFrames@__FrameHandler4@@SAXPEA_KPEAUEHExceptionRecord@@PEAU_CONTEXT@@0PEAXPEAUFuncInfo4@FH4@@HHPEAUHandlerType4@5@PEAU_xDISPATCHER_CONTEXT@@E@Z 000000018005840c     libvcruntime:risctrnsctrl.obj
 0002:0000f420       $unwind$?GetRangeOfTrysToCheck@__FrameHandler4@@SA?AU?$pair@Viterator@TryBlockMap4@FH4@@V123@@std@@AEAVTryBlockMap4@FH4@@HPEAU_xDISPATCHER_CONTEXT@@PEAUFuncInfo4@5@H@Z 0000000180058420     libvcruntime:risctrnsctrl.obj
 0002:0000f43c       $unwind$__CxxFrameHandler3 000000018005843c     libvcruntime:risctrnsctrl.obj
 0002:0000f450       $unwind$__CxxFrameHandler4 0000000180058450     libvcruntime:risctrnsctrl.obj
 0002:0000f464       $unwind$??$_CallSETranslator@V__FrameHandler4@@@@YAHPEAUEHExceptionRecord@@PEA_KPEAU_CONTEXT@@PEAU_xDISPATCHER_CONTEXT@@PEAUFuncInfo4@FH4@@K1H@Z 0000000180058464     libvcruntime:risctrnsctrl.obj
 0002:0000f484       $unwind$?filt$0@?0???$_CallSETranslator@V__FrameHandler3@@@@YAHPEAUEHExceptionRecord@@PEA_KPEAU_CONTEXT@@PEAU_xDISPATCHER_CONTEXT@@PEBU_s_FuncInfo@@K1H@Z@4HA 0000000180058484     libvcruntime:risctrnsctrl.obj
 0002:0000f484       $unwind$?filt$0@?0???$_CallSETranslator@V__FrameHandler4@@@@YAHPEAUEHExceptionRecord@@PEA_KPEAU_CONTEXT@@PEAU_xDISPATCHER_CONTEXT@@PEAUFuncInfo4@FH4@@K1H@Z@4HA 0000000180058484     libvcruntime:risctrnsctrl.obj
 0002:0000f490       $unwind$??$_CallSETranslator@V__FrameHandler3@@@@YAHPEAUEHExceptionRecord@@PEA_KPEAU_CONTEXT@@PEAU_xDISPATCHER_CONTEXT@@PEBU_s_FuncInfo@@K1H@Z 0000000180058490     libvcruntime:risctrnsctrl.obj
 0002:0000f4b0       $unwind$?try_get_function@@YAPEAXW4function_id@?A0x391cf84c@@QEBDQEBW4module_id@2@2@Z 00000001800584b0     libucrt:winapi_thunks.obj
 0002:0000f4b0       $unwind$??$parse_command_line@D@@YAXPEADPEAPEAD0PEA_K2@Z 00000001800584b0     libucrt:argv_parsing.obj
 0002:0000f4b0       $unwind$?try_get_function@@YAPEAXW4function_id@?A0xa2c972ab@@QEBDQEBW4module_id@2@2@Z 00000001800584b0     libvcruntime:winapi_downlevel.obj
 0002:0000f4cc       $unwind$?StateFromIp@__FrameHandler4@@SAHPEAUFuncInfo4@FH4@@PEAU_xDISPATCHER_CONTEXT@@_K@Z 00000001800584cc     libvcruntime:ehstate.obj
 0002:0000f4e0       $unwind$?getStartStop@UWMap4@FH4@@QEAAXHHAEAViterator@12@0@Z 00000001800584e0     libvcruntime:frame.obj
 0002:0000f4f8       $unwind$?FrameUnwindToState@__FrameHandler3@@SAXPEA_KPEAU_xDISPATCHER_CONTEXT@@PEBU_s_FuncInfo@@H@Z 00000001800584f8     libvcruntime:frame.obj
 0002:0000f544       $unwind$?CxxCallCatchBlock@__FrameHandler3@@SAPEAXPEAU_EXCEPTION_RECORD@@@Z 0000000180058544     libvcruntime:frame.obj
 0002:0000f580       $unwind$?FrameUnwindToState@__FrameHandler4@@SAXPEA_KPEAU_xDISPATCHER_CONTEXT@@PEAUFuncInfo4@FH4@@H@Z 0000000180058580     libvcruntime:frame.obj
 0002:0000f5c8       $unwind$?CxxCallCatchBlock@__FrameHandler4@@SAPEAXPEAU_EXCEPTION_RECORD@@@Z 00000001800585c8     libvcruntime:frame.obj
 0002:0000f624       $unwind$?IsInExceptionSpec@@YAEPEAUEHExceptionRecord@@PEBU_s_ESTypeList@@@Z 0000000180058624     libvcruntime:frame.obj
 0002:0000f640       $unwind$?fp_format_e@@YAHQEBNQEAD_K12H_NIW4__acrt_rounding_mode@@AEAV__crt_cached_ptd_host@@@Z 0000000180058640     libucrt:cvt.obj
 0002:0000f640       $unwind$??$__InternalCxxFrameHandler@V__FrameHandler3@@@@YA?AW4_EXCEPTION_DISPOSITION@@PEAUEHExceptionRecord@@PEA_KPEAU_CONTEXT@@PEAU_xDISPATCHER_CONTEXT@@PEBU_s_FuncInfo@@H1E@Z 0000000180058640     libvcruntime:frame.obj
 0002:0000f658       $unwind$??$__InternalCxxFrameHandler@V__FrameHandler4@@@@YA?AW4_EXCEPTION_DISPOSITION@@PEAUEHExceptionRecord@@PEA_KPEAU_CONTEXT@@PEAU_xDISPATCHER_CONTEXT@@PEAUFuncInfo4@FH4@@H1E@Z 0000000180058658     libvcruntime:frame.obj
 0002:0000f670       $unwind$?initialize_stdio_handles_nolock@@YAXXZ 0000000180058670     libucrt:ioinit.obj
 0002:0000f670       $unwind$__acrt_initialize_stdio 0000000180058670     libucrt:_file.obj
 0002:0000f670       $unwind$__GSHandlerCheck_EH 0000000180058670     LIBCMT:gshandlereh.obj
 0002:0000f670       $unwind$__GSHandlerCheck_SEH 0000000180058670     LIBCMT:gshandlerseh.obj
 0002:0000f670       $unwind$??$TypeMatchHelper@V__FrameHandler3@@@@YAHPEBU_s_HandlerType@@PEBU_s_CatchableType@@PEBU_s_ThrowInfo@@@Z 0000000180058670     libvcruntime:frame.obj
 0002:0000f670       $unwind$??$TypeMatchHelper@V__FrameHandler4@@@@YAHPEAUHandlerType4@FH4@@PEBU_s_CatchableType@@PEBU_s_ThrowInfo@@@Z 0000000180058670     libvcruntime:frame.obj
 0002:0000f688       $unwind$??$BuildCatchObjectHelperInternal@V__FrameHandler3@@@@YAHPEAUEHExceptionRecord@@PEAXPEBU_s_HandlerType@@PEBU_s_CatchableType@@@Z 0000000180058688     libvcruntime:frame.obj
 0002:0000f6c8       $unwind$??$BuildCatchObjectHelperInternal@V__FrameHandler4@@@@YAHPEAUEHExceptionRecord@@PEAXPEAUHandlerType4@FH4@@PEBU_s_CatchableType@@@Z 00000001800586c8     libvcruntime:frame.obj
 0002:0000f708       $unwind$??$BuildCatchObjectInternal@V__FrameHandler3@@@@YAXPEAUEHExceptionRecord@@PEAXPEBU_s_HandlerType@@PEBU_s_CatchableType@@@Z 0000000180058708     libvcruntime:frame.obj
 0002:0000f734       $unwind$??$BuildCatchObjectInternal@V__FrameHandler4@@@@YAXPEAUEHExceptionRecord@@PEAXPEAUHandlerType4@FH4@@PEBU_s_CatchableType@@@Z 0000000180058734     libvcruntime:frame.obj
 0002:0000f760       $unwind$??$FindHandler@V__FrameHandler3@@@@YAXPEAUEHExceptionRecord@@PEA_KPEAU_CONTEXT@@PEAU_xDISPATCHER_CONTEXT@@PEBU_s_FuncInfo@@EH1@Z 0000000180058760     libvcruntime:frame.obj
 0002:0000f780       $unwind$??$FindHandler@V__FrameHandler4@@@@YAXPEAUEHExceptionRecord@@PEA_KPEAU_CONTEXT@@PEAU_xDISPATCHER_CONTEXT@@PEAUFuncInfo4@FH4@@EH1@Z 0000000180058780     libvcruntime:frame.obj
 0002:0000f7a0       $unwind$??$CatchIt@V__FrameHandler3@@@@YAXPEAUEHExceptionRecord@@PEA_KPEAU_CONTEXT@@PEAU_xDISPATCHER_CONTEXT@@PEBU_s_FuncInfo@@PEBU_s_HandlerType@@PEBU_s_CatchableType@@PEBU_s_TryBlockMapEntry@@H1EE@Z 00000001800587a0     libvcruntime:frame.obj
 0002:0000f7a0       $unwind$??$CatchIt@V__FrameHandler4@@@@YAXPEAUEHExceptionRecord@@PEA_KPEAU_CONTEXT@@PEAU_xDISPATCHER_CONTEXT@@PEAUFuncInfo4@FH4@@PEAUHandlerType4@4@PEBU_s_CatchableType@@PEAUTryBlockMapEntry4@4@H1EE@Z 00000001800587a0     libvcruntime:frame.obj
 0002:0000f7b8       $unwind$??$FindHandlerForForeignException@V__FrameHandler3@@@@YAXPEAUEHExceptionRecord@@PEA_KPEAU_CONTEXT@@PEAU_xDISPATCHER_CONTEXT@@PEBU_s_FuncInfo@@HH1@Z 00000001800587b8     libvcruntime:frame.obj
 0002:0000f7d4       $unwind$??$FindHandlerForForeignException@V__FrameHandler4@@@@YAXPEAUEHExceptionRecord@@PEA_KPEAU_CONTEXT@@PEAU_xDISPATCHER_CONTEXT@@PEAUFuncInfo4@FH4@@HH1@Z 00000001800587d4     libvcruntime:frame.obj
 0002:0000f7f8       $xdatasym                  00000001800587f8     libvcruntime:handlers.obj
 0002:0000f818       $unwind$_CxxThrowException 0000000180058818     libvcruntime:throw.obj
 0002:0000f828       $xdatasym                  0000000180058828     libucrt:strcmp.obj
 0002:0000f82c       $unwind$atan2f             000000018005882c     libucrt:atan2f.obj
 0002:0000f850       $xdatasym                  0000000180058850     libucrt:cosf.obj
 0002:0000f858       $xdatasym                  0000000180058858     libucrt:sinf.obj
 0002:0000f860       $unwind$??$free_environment@D@@YAXQEAPEAD@Z 0000000180058860     libucrt:environment_initialization.obj
 0002:0000f860       $unwind$??$free_environment@_W@@YAXQEAPEA_W@Z 0000000180058860     libucrt:environment_initialization.obj
 0002:0000f860       $unwind$_initterm          0000000180058860     libucrt:initterm.obj
 0002:0000f86c       $unwind$?try_cor_exit_process@@YAXI@Z 000000018005886c     libucrt:exit.obj
 0002:0000f880       $ip2state$?try_cor_exit_process@@YAXI@Z 0000000180058880     libucrt:exit.obj
 0002:0000f888       $unwind$?common_exit@@YAXHW4_crt_exit_cleanup_mode@@W4_crt_exit_return_mode@@@Z 0000000180058888     libucrt:exit.obj
 0002:0000f89c       $stateUnwindMap$__dcrt_uninitialize_environments_nolock 000000018005889c     libucrt:environment_initialization.obj
 0002:0000f89c       $stateUnwindMap$?common_exit@@YAXHW4_crt_exit_cleanup_mode@@W4_crt_exit_return_mode@@@Z 000000018005889c     libucrt:exit.obj
 0002:0000f89c       $stateUnwindMap$_execute_onexit_table 000000018005889c     libucrt:onexit.obj
 0002:0000f8a8       $ip2state$?common_exit@@YAXHW4_crt_exit_cleanup_mode@@W4_crt_exit_return_mode@@@Z 00000001800588a8     libucrt:exit.obj
 0002:0000f8b0       $unwind$??R<lambda_6e4b09c48022b2350581041d5f6b0c4c>@@QEBA@XZ 00000001800588b0     libucrt:exit.obj
 0002:0000f8d0       $unwind$??$?RV<lambda_d80eeec6fff315bfe5c115232f3240e3>@@AEAV<lambda_6e4b09c48022b2350581041d5f6b0c4c>@@V<lambda_2358e3775559c9db80273638284d5e45>@@@?$__crt_seh_guarded_call@X@@QEAAX$$QEAV<lambda_d80eeec6fff315bfe5c115232f3240e3>@@AEAV<lambda_6e4b09c48022b2350581041d5f6b0c4c>@@$$QEAV<lambda_2358e3775559c9db80273638284d5e45>@@@Z 00000001800588d0     libucrt:exit.obj
 0002:0000f8f4       $unwind$_configure_narrow_argv 00000001800588f4     libucrt:argv_parsing.obj
 0002:0000f908       $unwind$__dcrt_uninitialize_environments_nolock 0000000180058908     libucrt:environment_initialization.obj
 0002:0000f918       $unwind$??$create_environment@D@@YAQEAPEADQEAD@Z 0000000180058918     libucrt:environment_initialization.obj
 0002:0000f918       $unwind$_mbtowc_internal   0000000180058918     libucrt:mbtowc.obj
 0002:0000f918       $unwind$??$__acrt_convert_wcs_mbs_cp@D_WV<lambda_7c9dea7b4ca7285d2cdb541a38da6275>@@U__crt_win32_buffer_internal_dynamic_resizing@@@@YAHQEBDAEAV?$__crt_win32_buffer@_WU__crt_win32_buffer_internal_dynamic_resizing@@@@AEBV<lambda_7c9dea7b4ca7285d2cdb541a38da6275>@@I@Z 0000000180058918     libucrt:argv_wildcards.obj
 0002:0000f918       $unwind$??$type_case_integer@$07@?$output_processor@DV?$string_output_adapter@D@__crt_stdio_output@@V?$format_validation_base@DV?$string_output_adapter@D@__crt_stdio_output@@@2@@__crt_stdio_output@@AEAA_N_N@Z 0000000180058918     libucrt:output.obj
 0002:0000f918       $unwind$??$type_case_integer@$09@?$output_processor@DV?$string_output_adapter@D@__crt_stdio_output@@V?$format_validation_base@DV?$string_output_adapter@D@__crt_stdio_output@@@2@@__crt_stdio_output@@AEAA_N_N@Z 0000000180058918     libucrt:output.obj
 0002:0000f918       $unwind$??$type_case_integer@$0BA@@?$output_processor@DV?$string_output_adapter@D@__crt_stdio_output@@V?$format_validation_base@DV?$string_output_adapter@D@__crt_stdio_output@@@2@@__crt_stdio_output@@AEAA_N_N@Z 0000000180058918     libucrt:output.obj
 0002:0000f918       $unwind$?process@?$output_processor@DV?$string_output_adapter@D@__crt_stdio_output@@V?$format_validation_base@DV?$string_output_adapter@D@__crt_stdio_output@@@2@@__crt_stdio_output@@QEAAHXZ 0000000180058918     libucrt:output.obj
 0002:0000f930       $unwind$_execute_onexit_table 0000000180058930     libucrt:onexit.obj
 0002:0000f940       $ip2state$_execute_onexit_table 0000000180058940     libucrt:onexit.obj
 0002:0000f948       $unwind$?fp_format_f_internal@@YAHQEAD_KHQEAU_strflt@@_NAEAV__crt_cached_ptd_host@@@Z 0000000180058948     libucrt:cvt.obj
 0002:0000f948       $unwind$__acrt_DownlevelLocaleNameToLCID 0000000180058948     libucrt:lcidtoname_downlevel.obj
 0002:0000f948       $unwind$??R<lambda_f03950bc5685219e0bcd2087efbe011e>@@QEBA@XZ 0000000180058948     libucrt:onexit.obj
 0002:0000f960       $unwind$??$?RV<lambda_7777bce6b2f8c936911f934f8298dc43>@@AEAV<lambda_f03950bc5685219e0bcd2087efbe011e>@@V<lambda_3883c3dff614d5e0c5f61bb1ac94921c>@@@?$__crt_seh_guarded_call@H@@QEAAH$$QEAV<lambda_7777bce6b2f8c936911f934f8298dc43>@@AEAV<lambda_f03950bc5685219e0bcd2087efbe011e>@@$$QEAV<lambda_3883c3dff614d5e0c5f61bb1ac94921c>@@@Z 0000000180058960     libucrt:onexit.obj
 0002:0000f984       $unwind$terminate          0000000180058984     libucrt:terminate.obj
 0002:0000f9a4       $unwind$?get_raw_ptd@__crt_cached_ptd_host@@QEAAPEAU__acrt_ptd@@XZ 00000001800589a4     libucrt:output.obj
 0002:0000f9ac       $chain$0$?get_raw_ptd@__crt_cached_ptd_host@@QEAAPEAU__acrt_ptd@@XZ 00000001800589ac     libucrt:output.obj
 0002:0000f9c0       $chain$1$?get_raw_ptd@__crt_cached_ptd_host@@QEAAPEAU__acrt_ptd@@XZ 00000001800589c0     libucrt:output.obj
 0002:0000f9d0       $unwind$?write_string@?$string_output_adapter@D@__crt_stdio_output@@QEBAXQEBDHQEAHAEAV__crt_cached_ptd_host@@@Z 00000001800589d0     libucrt:output.obj
 0002:0000f9e8       $unwind$??$common_vsprintf@Vformat_validation_base@__crt_stdio_output@@D@@YAH_KQEAD0QEBDAEAV__crt_cached_ptd_host@@1@Z 00000001800589e8     libucrt:output.obj
 0002:0000fa08       $unwind$?parse_int_from_format_string@?$output_processor@DV?$string_output_adapter@D@__crt_stdio_output@@V?$format_validation_base@DV?$string_output_adapter@D@__crt_stdio_output@@@2@@__crt_stdio_output@@AEAA_NQEAH@Z 0000000180058a08     libucrt:output.obj
 0002:0000fa1c       $unwind$?state_case_type@?$output_processor@DV?$string_output_adapter@D@__crt_stdio_output@@V?$format_validation_base@DV?$string_output_adapter@D@__crt_stdio_output@@@2@@__crt_stdio_output@@AEAA_NXZ 0000000180058a1c     libucrt:output.obj
 0002:0000fa40       $unwind$?type_case_a@?$output_processor@DV?$string_output_adapter@D@__crt_stdio_output@@V?$format_validation_base@DV?$string_output_adapter@D@__crt_stdio_output@@@2@@__crt_stdio_output@@AEAA_NXZ 0000000180058a40     libucrt:output.obj
 0002:0000fa54       $unwind$??$type_case_integer_parse_into_buffer@I$09@?$output_processor@DV?$string_output_adapter@D@__crt_stdio_output@@V?$format_validation_base@DV?$string_output_adapter@D@__crt_stdio_output@@@2@@__crt_stdio_output@@AEAAXI_N@Z 0000000180058a54     libucrt:output.obj
 0002:0000fa54       $unwind$??$type_case_integer_parse_into_buffer@_K$09@?$output_processor@DV?$string_output_adapter@D@__crt_stdio_output@@V?$format_validation_base@DV?$string_output_adapter@D@__crt_stdio_output@@@2@@__crt_stdio_output@@AEAAX_K_N@Z 0000000180058a54     libucrt:output.obj
 0002:0000fa5c       $unwind$atol               0000000180058a5c     libucrt:atox.obj
 0002:0000fa70       $xdatasym                  0000000180058a70     libucrt:strncmp.obj
 0002:0000fa74       $unwind$_ctrlfp            0000000180058a74     libucrt:fpctrl.obj
 0002:0000fa9c       $unwind$_call_matherr      0000000180058a9c     libucrt:libm_error.obj
 0002:0000faa4       $unwind$_handle_error      0000000180058aa4     libucrt:libm_error.obj
 0002:0000faa4       $unwind$_handle_errorf     0000000180058aa4     libucrt:libm_error.obj
 0002:0000fac8       $xdatasym                  0000000180058ac8     libucrt:remainder_piby2f_forasm.obj
 0002:0000fad0       $xdatasym                  0000000180058ad0     libucrt:remainder_piby2_forfma3.obj
 0002:0000fadc       $unwind$_sincosf_special   0000000180058adc     libucrt:sincos_special.obj
 0002:0000fae4       $unwind$__acrt_initialize_fma3 0000000180058ae4     libucrt:fma3_available.obj
 0002:0000faf0       $xdatasym                  0000000180058af0     libucrt:remainder_piby2f_forc.obj
 0002:0000fb00       $unwind$_free_base         0000000180058b00     libucrt:free_base.obj
 0002:0000fb00       $unwind$?destroy_fls@@YAXPEAX@Z 0000000180058b00     libucrt:per_thread_data.obj
 0002:0000fb00       $unwind$__acrt_locale_free_numeric 0000000180058b00     libucrt:initnum.obj
 0002:0000fb00       $unwind$__acrt_locale_free_lc_time_if_unreferenced 0000000180058b00     libucrt:locale_refcounting.obj
 0002:0000fb08       $unwind$?construct_ptd_array@@YAXQEAU__acrt_ptd@@@Z 0000000180058b08     libucrt:per_thread_data.obj
 0002:0000fb10       $unwind$?destroy_ptd_array@@YAXQEAU__acrt_ptd@@@Z 0000000180058b10     libucrt:per_thread_data.obj
 0002:0000fb18       $unwind$??$?RV<lambda_0ae27a3a962d80f24befdcbee591983d>@@AEAV<lambda_8d0ee55de4b1038c4002e0adecdf1839>@@V<lambda_dc504788e8f1664fe9b84e20bfb512f2>@@@?$__crt_seh_guarded_call@X@@QEAAX$$QEAV<lambda_0ae27a3a962d80f24befdcbee591983d>@@AEAV<lambda_8d0ee55de4b1038c4002e0adecdf1839>@@$$QEAV<lambda_dc504788e8f1664fe9b84e20bfb512f2>@@@Z 0000000180058b18     libucrt:per_thread_data.obj
 0002:0000fb3c       $unwind$??$?RV<lambda_aa87e3671a710a21b5dc78c0bdf72e11>@@AEAV<lambda_92619d2358a28f41a33ba319515a20b9>@@V<lambda_6992ecaafeb10aed2b74cb1fae11a551>@@@?$__crt_seh_guarded_call@X@@QEAAX$$QEAV<lambda_aa87e3671a710a21b5dc78c0bdf72e11>@@AEAV<lambda_92619d2358a28f41a33ba319515a20b9>@@$$QEAV<lambda_6992ecaafeb10aed2b74cb1fae11a551>@@@Z 0000000180058b3c     libucrt:per_thread_data.obj
 0002:0000fb60       $unwind$??$?RV<lambda_f2e299630e499de9f9a165e60fcd3db5>@@AEAV<lambda_2ae9d31cdba2644fcbeaf08da7c24588>@@V<lambda_40d01ff24d0e7b3814fdbdcee8eab3c7>@@@?$__crt_seh_guarded_call@X@@QEAAX$$QEAV<lambda_f2e299630e499de9f9a165e60fcd3db5>@@AEAV<lambda_2ae9d31cdba2644fcbeaf08da7c24588>@@$$QEAV<lambda_40d01ff24d0e7b3814fdbdcee8eab3c7>@@@Z 0000000180058b60     libucrt:per_thread_data.obj
 0002:0000fb84       $unwind$??$?RV<lambda_2d41944a1d46af3157314b8a01080d33>@@AEAV<lambda_8f455de75cd7d7f24b4096f044d8b9e6>@@V<lambda_aa500f224e6afead328df44964fe2772>@@@?$__crt_seh_guarded_call@X@@QEAAX$$QEAV<lambda_2d41944a1d46af3157314b8a01080d33>@@AEAV<lambda_8f455de75cd7d7f24b4096f044d8b9e6>@@$$QEAV<lambda_aa500f224e6afead328df44964fe2772>@@@Z 0000000180058b84     libucrt:per_thread_data.obj
